
lab2:	file format Mach-O 64-bit x86-64

Disassembly of section __TEXT,__text:
__text:
100000ab0:	55 	pushq	%rbp
100000ab1:	48 89 e5 	movq	%rsp, %rbp
100000ab4:	48 83 e4 80 	andq	$-128, %rsp
100000ab8:	41 54 	pushq	%r12
100000aba:	41 55 	pushq	%r13
100000abc:	41 56 	pushq	%r14
100000abe:	41 57 	pushq	%r15
100000ac0:	53 	pushq	%rbx
100000ac1:	48 81 ec d8 00 00 00 	subq	$216, %rsp
100000ac8:	48 89 f3 	movq	%rsi, %rbx
100000acb:	33 f6 	xorl	%esi, %esi
100000acd:	bf 03 00 00 00 	movl	$3, %edi
100000ad2:	e8 49 20 00 00 	callq	8265 <___intel_new_feature_proc_init>
100000ad7:	c5 f8 ae 1c 24 	vstmxcsr	(%rsp)
100000adc:	81 0c 24 40 80 00 00 	orl	$32832, (%rsp)
100000ae3:	48 8b 4b 08 	movq	8(%rbx), %rcx
100000ae7:	c5 f8 ae 14 24 	vldmxcsr	(%rsp)
100000aec:	e8 4f 52 00 00 	callq	21071 <___intel_sse4_atoi>
100000af1:	bf d2 04 00 00 	movl	$1234, %edi
100000af6:	89 c3 	movl	%eax, %ebx
100000af8:	e8 a7 59 00 00 	callq	22951
100000afd:	41 89 de 	movl	%ebx, %r14d
100000b00:	4d 03 f6 	addq	%r14, %r14
100000b03:	4c 89 f7 	movq	%r14, %rdi
100000b06:	e8 7b 59 00 00 	callq	22907
100000b0b:	49 89 c5 	movq	%rax, %r13
100000b0e:	4c 89 f7 	movq	%r14, %rdi
100000b11:	e8 70 59 00 00 	callq	22896
100000b16:	48 89 44 24 30 	movq	%rax, 48(%rsp)
100000b1b:	4c 89 f7 	movq	%r14, %rdi
100000b1e:	e8 63 59 00 00 	callq	22883
100000b23:	49 89 c7 	movq	%rax, %r15
100000b26:	4c 89 f7 	movq	%r14, %rdi
100000b29:	e8 58 59 00 00 	callq	22872
100000b2e:	49 89 c4 	movq	%rax, %r12
100000b31:	4c 89 f7 	movq	%r14, %rdi
100000b34:	e8 4d 59 00 00 	callq	22861
100000b39:	49 89 c6 	movq	%rax, %r14
100000b3c:	4d 85 ed 	testq	%r13, %r13
100000b3f:	0f 84 02 08 00 00 	je	2050 <_main+0x897>
100000b45:	48 83 7c 24 30 00 	cmpq	$0, 48(%rsp)
100000b4b:	0f 84 f6 07 00 00 	je	2038 <_main+0x897>
100000b51:	4d 85 ff 	testq	%r15, %r15
100000b54:	0f 84 ed 07 00 00 	je	2029 <_main+0x897>
100000b5a:	4d 85 e4 	testq	%r12, %r12
100000b5d:	0f 84 e4 07 00 00 	je	2020 <_main+0x897>
100000b63:	4d 85 f6 	testq	%r14, %r14
100000b66:	0f 84 db 07 00 00 	je	2011 <_main+0x897>
100000b6c:	33 c9 	xorl	%ecx, %ecx
100000b6e:	85 db 	testl	%ebx, %ebx
100000b70:	76 55 	jbe	85 <_main+0x117>
100000b72:	48 63 d3 	movslq	%ebx, %rdx
100000b75:	b8 01 00 00 00 	movl	$1, %eax
100000b7a:	4c 89 64 24 10 	movq	%r12, 16(%rsp)
100000b7f:	4c 89 74 24 08 	movq	%r14, 8(%rsp)
100000b84:	49 89 d6 	movq	%rdx, %r14
100000b87:	4c 89 7c 24 40 	movq	%r15, 64(%rsp)
100000b8c:	49 89 cf 	movq	%rcx, %r15
100000b8f:	89 5c 24 50 	movl	%ebx, 80(%rsp)
100000b93:	89 c3 	movl	%eax, %ebx
100000b95:	4c 8b 64 24 30 	movq	48(%rsp), %r12
100000b9a:	66 43 89 5c 7d 00 	movw	%bx, (%r13,%r15,2)
100000ba0:	e8 f3 58 00 00 	callq	22771
100000ba5:	66 43 89 04 7c 	movw	%ax, (%r12,%r15,2)
100000baa:	49 ff c7 	incq	%r15
100000bad:	4d 3b fe 	cmpq	%r14, %r15
100000bb0:	72 e8 	jb	-24 <_main+0xEA>
100000bb2:	8b 5c 24 50 	movl	80(%rsp), %ebx
100000bb6:	85 db 	testl	%ebx, %ebx
100000bb8:	4c 8b 74 24 08 	movq	8(%rsp), %r14
100000bbd:	4c 8b 64 24 10 	movq	16(%rsp), %r12
100000bc2:	4c 8b 7c 24 40 	movq	64(%rsp), %r15
100000bc7:	0f 86 d2 00 00 00 	jbe	210 <_main+0x1EF>
100000bcd:	8d 43 07 	leal	7(%rbx), %eax
100000bd0:	c1 f8 02 	sarl	$2, %eax
100000bd3:	c1 e8 1d 	shrl	$29, %eax
100000bd6:	8d 4c 18 07 	leal	7(%rax,%rbx), %ecx
100000bda:	48 63 c9 	movslq	%ecx, %rcx
100000bdd:	48 83 e1 f8 	andq	$-8, %rcx
100000be1:	48 83 f9 10 	cmpq	$16, %rcx
100000be5:	0f 8c 89 07 00 00 	jl	1929 <_main+0x8C4>
100000beb:	48 81 f9 b9 04 00 00 	cmpq	$1209, %rcx
100000bf2:	0f 8c 83 07 00 00 	jl	1923 <_main+0x8CB>
100000bf8:	4c 89 fa 	movq	%r15, %rdx
100000bfb:	48 83 e2 1f 	andq	$31, %rdx
100000bff:	85 d2 	testl	%edx, %edx
100000c01:	74 10 	je	16 <_main+0x163>
100000c03:	f6 c2 01 	testb	$1, %dl
100000c06:	0f 85 68 07 00 00 	jne	1896 <_main+0x8C4>
100000c0c:	f7 da 	negl	%edx
100000c0e:	83 c2 20 	addl	$32, %edx
100000c11:	d1 ea 	shrl	%edx
100000c13:	89 d0 	movl	%edx, %eax
100000c15:	48 8d 78 10 	leaq	16(%rax), %rdi
100000c19:	48 3b cf 	cmpq	%rdi, %rcx
100000c1c:	0f 8c 52 07 00 00 	jl	1874 <_main+0x8C4>
100000c22:	41 89 cb 	movl	%ecx, %r11d
100000c25:	44 89 df 	movl	%r11d, %edi
100000c28:	2b fa 	subl	%edx, %edi
100000c2a:	83 e7 0f 	andl	$15, %edi
100000c2d:	44 2b df 	subl	%edi, %r11d
100000c30:	33 ff 	xorl	%edi, %edi
100000c32:	85 d2 	testl	%edx, %edx
100000c34:	49 63 d3 	movslq	%r11d, %rdx
100000c37:	76 21 	jbe	33 <_main+0x1AA>
100000c39:	4c 8b 54 24 30 	movq	48(%rsp), %r10
100000c3e:	45 0f b7 4c 7d 00 	movzwl	(%r13,%rdi,2), %r9d
100000c44:	45 0f b7 04 7a 	movzwl	(%r10,%rdi,2), %r8d
100000c49:	45 0f af c8 	imull	%r8d, %r9d
100000c4d:	66 45 89 0c 7f 	movw	%r9w, (%r15,%rdi,2)
100000c52:	48 ff c7 	incq	%rdi
100000c55:	48 3b f8 	cmpq	%rax, %rdi
100000c58:	72 e4 	jb	-28 <_main+0x18E>
100000c5a:	48 8b 7c 24 30 	movq	48(%rsp), %rdi
100000c5f:	c4 c1 7e 6f 44 45 00 	vmovdqu	(%r13,%rax,2), %ymm0
100000c66:	c5 fd d5 0c 47 	vpmullw	(%rdi,%rax,2), %ymm0, %ymm1
100000c6b:	c4 c1 7e 7f 0c 47 	vmovdqu	%ymm1, (%r15,%rax,2)
100000c71:	48 83 c0 10 	addq	$16, %rax
100000c75:	48 3b c2 	cmpq	%rdx, %rax
100000c78:	72 e5 	jb	-27 <_main+0x1AF>
100000c7a:	48 3b d1 	cmpq	%rcx, %rdx
100000c7d:	73 20 	jae	32 <_main+0x1EF>
100000c7f:	4c 8b 44 24 30 	movq	48(%rsp), %r8
100000c84:	41 0f b7 7c 55 00 	movzwl	(%r13,%rdx,2), %edi
100000c8a:	41 0f b7 04 50 	movzwl	(%r8,%rdx,2), %eax
100000c8f:	0f af f8 	imull	%eax, %edi
100000c92:	66 41 89 3c 57 	movw	%di, (%r15,%rdx,2)
100000c97:	48 ff c2 	incq	%rdx
100000c9a:	48 3b d1 	cmpq	%rcx, %rdx
100000c9d:	72 e5 	jb	-27 <_main+0x1D4>
100000c9f:	41 89 da 	movl	%ebx, %r10d
100000ca2:	33 c9 	xorl	%ecx, %ecx
100000ca4:	41 c1 ea 03 	shrl	$3, %r10d
100000ca8:	33 d2 	xorl	%edx, %edx
100000caa:	45 85 d2 	testl	%r10d, %r10d
100000cad:	0f 86 b5 00 00 00 	jbe	181 <_main+0x2B8>
100000cb3:	44 89 d0 	movl	%r10d, %eax
100000cb6:	4c 8b 44 24 30 	movq	48(%rsp), %r8
100000cbb:	c4 a1 7a 6f 04 2a 	vmovdqu	(%rdx,%r13), %xmm0
100000cc1:	48 83 c1 08 	addq	$8, %rcx
100000cc5:	c4 a1 7a 6f 4c 2a 10 	vmovdqu	16(%rdx,%r13), %xmm1
100000ccc:	4a 8d 3c 22 	leaq	(%rdx,%r12), %rdi
100000cd0:	c4 a1 7a 6f 54 2a 20 	vmovdqu	32(%rdx,%r13), %xmm2
100000cd7:	c4 a1 7a 6f 5c 2a 30 	vmovdqu	48(%rdx,%r13), %xmm3
100000cde:	c4 a1 7a 6f 64 2a 40 	vmovdqu	64(%rdx,%r13), %xmm4
100000ce5:	c4 a1 7a 6f 6c 2a 50 	vmovdqu	80(%rdx,%r13), %xmm5
100000cec:	c4 a1 7a 6f 74 2a 60 	vmovdqu	96(%rdx,%r13), %xmm6
100000cf3:	c4 a1 7a 6f 7c 2a 70 	vmovdqu	112(%rdx,%r13), %xmm7
100000cfa:	c4 21 79 d5 04 02 	vpmullw	(%rdx,%r8), %xmm0, %xmm8
100000d00:	c4 21 71 d5 4c 02 10 	vpmullw	16(%rdx,%r8), %xmm1, %xmm9
100000d07:	c4 21 69 d5 54 02 20 	vpmullw	32(%rdx,%r8), %xmm2, %xmm10
100000d0e:	c4 21 61 d5 5c 02 30 	vpmullw	48(%rdx,%r8), %xmm3, %xmm11
100000d15:	c4 21 59 d5 64 02 40 	vpmullw	64(%rdx,%r8), %xmm4, %xmm12
100000d1c:	c4 21 51 d5 6c 02 50 	vpmullw	80(%rdx,%r8), %xmm5, %xmm13
100000d23:	c4 21 49 d5 74 02 60 	vpmullw	96(%rdx,%r8), %xmm6, %xmm14
100000d2a:	c4 21 41 d5 7c 02 70 	vpmullw	112(%rdx,%r8), %xmm7, %xmm15
100000d31:	48 81 c2 80 00 00 00 	addq	$128, %rdx
100000d38:	c5 7a 7f 07 	vmovdqu	%xmm8, (%rdi)
100000d3c:	c5 7a 7f 4f 10 	vmovdqu	%xmm9, 16(%rdi)
100000d41:	c5 7a 7f 57 20 	vmovdqu	%xmm10, 32(%rdi)
100000d46:	c5 7a 7f 5f 30 	vmovdqu	%xmm11, 48(%rdi)
100000d4b:	c5 7a 7f 67 40 	vmovdqu	%xmm12, 64(%rdi)
100000d50:	c5 7a 7f 6f 50 	vmovdqu	%xmm13, 80(%rdi)
100000d55:	c5 7a 7f 77 60 	vmovdqu	%xmm14, 96(%rdi)
100000d5a:	c5 7a 7f 7f 70 	vmovdqu	%xmm15, 112(%rdi)
100000d5f:	48 3b c8 	cmpq	%rax, %rcx
100000d62:	0f 82 53 ff ff ff 	jb	-173 <_main+0x20B>
100000d68:	89 d8 	movl	%ebx, %eax
100000d6a:	33 c9 	xorl	%ecx, %ecx
100000d6c:	c1 e8 04 	shrl	$4, %eax
100000d6f:	33 d2 	xorl	%edx, %edx
100000d71:	89 44 24 18 	movl	%eax, 24(%rsp)
100000d75:	85 c0 	testl	%eax, %eax
100000d77:	0f 86 de 00 00 00 	jbe	222 <_main+0x3AB>
100000d7d:	8b 44 24 18 	movl	24(%rsp), %eax
100000d81:	48 8b 7c 24 30 	movq	48(%rsp), %rdi
100000d86:	c4 a1 7e 6f 04 2a 	vmovdqu	(%rdx,%r13), %ymm0
100000d8c:	48 83 c1 08 	addq	$8, %rcx
100000d90:	c4 a1 7e 6f 54 2a 20 	vmovdqu	32(%rdx,%r13), %ymm2
100000d97:	c4 a1 7e 6f 64 2a 40 	vmovdqu	64(%rdx,%r13), %ymm4
100000d9e:	c4 a1 7e 6f 74 2a 60 	vmovdqu	96(%rdx,%r13), %ymm6
100000da5:	c4 21 7e 6f 84 2a 80 00 00 00 	vmovdqu	128(%rdx,%r13), %ymm8
100000daf:	c4 21 7e 6f 94 2a a0 00 00 00 	vmovdqu	160(%rdx,%r13), %ymm10
100000db9:	c4 21 7e 6f a4 2a c0 00 00 00 	vmovdqu	192(%rdx,%r13), %ymm12
100000dc3:	c4 21 7e 6f b4 2a e0 00 00 00 	vmovdqu	224(%rdx,%r13), %ymm14
100000dcd:	c5 fd d5 0c 3a 	vpmullw	(%rdx,%rdi), %ymm0, %ymm1
100000dd2:	c5 ed d5 5c 3a 20 	vpmullw	32(%rdx,%rdi), %ymm2, %ymm3
100000dd8:	c5 dd d5 6c 3a 40 	vpmullw	64(%rdx,%rdi), %ymm4, %ymm5
100000dde:	c5 cd d5 7c 3a 60 	vpmullw	96(%rdx,%rdi), %ymm6, %ymm7
100000de4:	c5 3d d5 8c 3a 80 00 00 00 	vpmullw	128(%rdx,%rdi), %ymm8, %ymm9
100000ded:	c5 2d d5 9c 3a a0 00 00 00 	vpmullw	160(%rdx,%rdi), %ymm10, %ymm11
100000df6:	c5 1d d5 ac 3a c0 00 00 00 	vpmullw	192(%rdx,%rdi), %ymm12, %ymm13
100000dff:	c5 0d d5 bc 3a e0 00 00 00 	vpmullw	224(%rdx,%rdi), %ymm14, %ymm15
100000e08:	c4 a1 7e 7f 0c 32 	vmovdqu	%ymm1, (%rdx,%r14)
100000e0e:	c4 a1 7e 7f 5c 32 20 	vmovdqu	%ymm3, 32(%rdx,%r14)
100000e15:	c4 a1 7e 7f 6c 32 40 	vmovdqu	%ymm5, 64(%rdx,%r14)
100000e1c:	c4 a1 7e 7f 7c 32 60 	vmovdqu	%ymm7, 96(%rdx,%r14)
100000e23:	c4 21 7e 7f 8c 32 80 00 00 00 	vmovdqu	%ymm9, 128(%rdx,%r14)
100000e2d:	c4 21 7e 7f 9c 32 a0 00 00 00 	vmovdqu	%ymm11, 160(%rdx,%r14)
100000e37:	c4 21 7e 7f ac 32 c0 00 00 00 	vmovdqu	%ymm13, 192(%rdx,%r14)
100000e41:	c4 21 7e 7f bc 32 e0 00 00 00 	vmovdqu	%ymm15, 224(%rdx,%r14)
100000e4b:	48 81 c2 00 01 00 00 	addq	$256, %rdx
100000e52:	48 3b c8 	cmpq	%rax, %rcx
100000e55:	0f 82 2b ff ff ff 	jb	-213 <_main+0x2D6>
100000e5b:	33 d2 	xorl	%edx, %edx
100000e5d:	85 db 	testl	%ebx, %ebx
100000e5f:	76 2a 	jbe	42 <_main+0x3DB>
100000e61:	48 63 c3 	movslq	%ebx, %rax
100000e64:	41 0f bf 3c 57 	movswl	(%r15,%rdx,2), %edi
100000e69:	41 0f bf 0c 54 	movswl	(%r12,%rdx,2), %ecx
100000e6e:	3b f9 	cmpl	%ecx, %edi
100000e70:	0f 85 d1 04 00 00 	jne	1233 <_main+0x897>
100000e76:	41 0f bf 0c 56 	movswl	(%r14,%rdx,2), %ecx
100000e7b:	3b f9 	cmpl	%ecx, %edi
100000e7d:	0f 85 c4 04 00 00 	jne	1220 <_main+0x897>
100000e83:	48 ff c2 	incq	%rdx
100000e86:	48 3b d0 	cmpq	%rax, %rdx
100000e89:	72 d9 	jb	-39 <_main+0x3B4>
100000e8b:	33 c9 	xorl	%ecx, %ecx
100000e8d:	8d 43 07 	leal	7(%rbx), %eax
100000e90:	c1 f8 02 	sarl	$2, %eax
100000e93:	45 33 c0 	xorl	%r8d, %r8d
100000e96:	c1 e8 1d 	shrl	$29, %eax
100000e99:	4c 89 7c 24 40 	movq	%r15, 64(%rsp)
100000e9e:	44 89 14 24 	movl	%r10d, (%rsp)
100000ea2:	4c 89 74 24 08 	movq	%r14, 8(%rsp)
100000ea7:	8d 74 03 07 	leal	7(%rbx,%rax), %esi
100000eab:	48 63 f6 	movslq	%esi, %rsi
100000eae:	4c 89 f8 	movq	%r15, %rax
100000eb1:	48 83 e6 f8 	andq	$-8, %rsi
100000eb5:	48 83 e0 1f 	andq	$31, %rax
100000eb9:	89 f2 	movl	%esi, %edx
100000ebb:	41 89 c3 	movl	%eax, %r11d
100000ebe:	89 d7 	movl	%edx, %edi
100000ec0:	41 f7 db 	negl	%r11d
100000ec3:	83 e7 f0 	andl	$-16, %edi
100000ec6:	41 83 c3 20 	addl	$32, %r11d
100000eca:	4c 63 cf 	movslq	%edi, %r9
100000ecd:	89 c7 	movl	%eax, %edi
100000ecf:	41 d1 eb 	shrl	%r11d
100000ed2:	83 e7 01 	andl	$1, %edi
100000ed5:	44 89 5c 24 28 	movl	%r11d, 40(%rsp)
100000eda:	41 89 c6 	movl	%eax, %r14d
100000edd:	89 7c 24 48 	movl	%edi, 72(%rsp)
100000ee1:	4c 89 4c 24 20 	movq	%r9, 32(%rsp)
100000ee6:	49 89 c9 	movq	%rcx, %r9
100000ee9:	4c 89 64 24 10 	movq	%r12, 16(%rsp)
100000eee:	4c 89 6c 24 38 	movq	%r13, 56(%rsp)
100000ef3:	41 89 d5 	movl	%edx, %r13d
100000ef6:	49 89 cf 	movq	%rcx, %r15
100000ef9:	c5 f8 77 	vzeroupper
100000efc:	48 8d 7c 24 60 	leaq	96(%rsp), %rdi
100000f01:	41 ff c0 	incl	%r8d
100000f04:	0f 01 f9 	rdtscp
100000f07:	48 c1 e2 20 	shlq	$32, %rdx
100000f0b:	48 0b c2 	orq	%rdx, %rax
100000f0e:	89 0f 	movl	%ecx, (%rdi)
100000f10:	49 89 c4 	movq	%rax, %r12
100000f13:	85 db 	testl	%ebx, %ebx
100000f15:	0f 86 ea 00 00 00 	jbe	234 <_main+0x555>
100000f1b:	48 83 fe 10 	cmpq	$16, %rsi
100000f1f:	0f 8c 3c 04 00 00 	jl	1084 <_main+0x8B1>
100000f25:	48 81 fe b9 04 00 00 	cmpq	$1209, %rsi
100000f2c:	0f 8c 36 04 00 00 	jl	1078 <_main+0x8B8>
100000f32:	45 89 f2 	movl	%r14d, %r10d
100000f35:	45 85 f6 	testl	%r14d, %r14d
100000f38:	74 10 	je	16 <_main+0x49A>
100000f3a:	83 7c 24 48 00 	cmpl	$0, 72(%rsp)
100000f3f:	0f 85 1c 04 00 00 	jne	1052 <_main+0x8B1>
100000f45:	44 8b 54 24 28 	movl	40(%rsp), %r10d
100000f4a:	44 89 d2 	movl	%r10d, %edx
100000f4d:	48 8d 7a 10 	leaq	16(%rdx), %rdi
100000f51:	48 3b f7 	cmpq	%rdi, %rsi
100000f54:	0f 8c 07 04 00 00 	jl	1031 <_main+0x8B1>
100000f5a:	44 89 ef 	movl	%r13d, %edi
100000f5d:	33 c0 	xorl	%eax, %eax
100000f5f:	41 2b fa 	subl	%r10d, %edi
100000f62:	83 e7 0f 	andl	$15, %edi
100000f65:	f7 df 	negl	%edi
100000f67:	41 03 fd 	addl	%r13d, %edi
100000f6a:	48 63 ff 	movslq	%edi, %rdi
100000f6d:	45 85 d2 	testl	%r10d, %r10d
100000f70:	76 3b 	jbe	59 <_main+0x4FD>
100000f72:	4c 89 4c 24 58 	movq	%r9, 88(%rsp)
100000f77:	89 5c 24 50 	movl	%ebx, 80(%rsp)
100000f7b:	4c 8b 4c 24 40 	movq	64(%rsp), %r9
100000f80:	4c 8b 54 24 30 	movq	48(%rsp), %r10
100000f85:	4c 8b 5c 24 38 	movq	56(%rsp), %r11
100000f8a:	41 0f b7 1c 43 	movzwl	(%r11,%rax,2), %ebx
100000f8f:	41 0f b7 0c 42 	movzwl	(%r10,%rax,2), %ecx
100000f94:	0f af d9 	imull	%ecx, %ebx
100000f97:	66 41 89 1c 41 	movw	%bx, (%r9,%rax,2)
100000f9c:	48 ff c0 	incq	%rax
100000f9f:	48 3b c2 	cmpq	%rdx, %rax
100000fa2:	72 e6 	jb	-26 <_main+0x4DA>
100000fa4:	4c 8b 4c 24 58 	movq	88(%rsp), %r9
100000fa9:	8b 5c 24 50 	movl	80(%rsp), %ebx
100000fad:	4c 8b 54 24 40 	movq	64(%rsp), %r10
100000fb2:	4c 8b 5c 24 30 	movq	48(%rsp), %r11
100000fb7:	48 8b 44 24 38 	movq	56(%rsp), %rax
100000fbc:	c5 fe 6f 04 50 	vmovdqu	(%rax,%rdx,2), %ymm0
100000fc1:	c4 c1 7d d5 0c 53 	vpmullw	(%r11,%rdx,2), %ymm0, %ymm1
100000fc7:	c4 c1 7e 7f 0c 52 	vmovdqu	%ymm1, (%r10,%rdx,2)
100000fcd:	48 83 c2 10 	addq	$16, %rdx
100000fd1:	48 3b d7 	cmpq	%rdi, %rdx
100000fd4:	72 e6 	jb	-26 <_main+0x50C>
100000fd6:	48 3b fe 	cmpq	%rsi, %rdi
100000fd9:	73 2a 	jae	42 <_main+0x555>
100000fdb:	48 8b 44 24 40 	movq	64(%rsp), %rax
100000fe0:	48 8b 54 24 30 	movq	48(%rsp), %rdx
100000fe5:	48 8b 4c 24 38 	movq	56(%rsp), %rcx
100000fea:	44 0f b7 1c 79 	movzwl	(%rcx,%rdi,2), %r11d
100000fef:	44 0f b7 14 7a 	movzwl	(%rdx,%rdi,2), %r10d
100000ff4:	45 0f af da 	imull	%r10d, %r11d
100000ff8:	66 44 89 1c 78 	movw	%r11w, (%rax,%rdi,2)
100000ffd:	48 ff c7 	incq	%rdi
100001000:	48 3b fe 	cmpq	%rsi, %rdi
100001003:	72 e5 	jb	-27 <_main+0x53A>
100001005:	c5 f8 77 	vzeroupper
100001008:	48 8d 7c 24 64 	leaq	100(%rsp), %rdi
10000100d:	0f 01 f9 	rdtscp
100001010:	48 c1 e2 20 	shlq	$32, %rdx
100001014:	48 0b c2 	orq	%rdx, %rax
100001017:	89 0f 	movl	%ecx, (%rdi)
100001019:	49 2b c4 	subq	%r12, %rax
10000101c:	49 3b c7 	cmpq	%r15, %rax
10000101f:	4c 0f 4f f8 	cmovgq	%rax, %r15
100001023:	4c 03 c8 	addq	%rax, %r9
100001026:	41 81 f8 a0 86 01 00 	cmpl	$100000, %r8d
10000102d:	0f 82 c6 fe ff ff 	jb	-314 <_main+0x449>
100001033:	4c 89 c9 	movq	%r9, %rcx
100001036:	48 8d 3d 23 55 00 00 	leaq	21795(%rip), %rdi
10000103d:	48 89 c8 	movq	%rcx, %rax
100001040:	89 de 	movl	%ebx, %esi
100001042:	48 99 	cqto
100001044:	49 f7 f8 	idivq	%r8
100001047:	48 89 ca 	movq	%rcx, %rdx
10000104a:	41 89 c1 	movl	%eax, %r9d
10000104d:	33 c0 	xorl	%eax, %eax
10000104f:	4c 89 f9 	movq	%r15, %rcx
100001052:	4c 8b 74 24 08 	movq	8(%rsp), %r14
100001057:	4c 8b 64 24 10 	movq	16(%rsp), %r12
10000105c:	4c 8b 6c 24 38 	movq	56(%rsp), %r13
100001061:	e8 26 54 00 00 	callq	21542
100001066:	44 8b 14 24 	movl	(%rsp), %r10d
10000106a:	41 8d 42 07 	leal	7(%r10), %eax
10000106e:	c1 e8 03 	shrl	$3, %eax
100001071:	45 33 c9 	xorl	%r9d, %r9d
100001074:	48 8b 74 24 30 	movq	48(%rsp), %rsi
100001079:	45 33 ff 	xorl	%r15d, %r15d
10000107c:	4c 89 74 24 08 	movq	%r14, 8(%rsp)
100001081:	45 33 c0 	xorl	%r8d, %r8d
100001084:	4c 89 6c 24 38 	movq	%r13, 56(%rsp)
100001089:	41 89 c6 	movl	%eax, %r14d
10000108c:	89 5c 24 50 	movl	%ebx, 80(%rsp)
100001090:	4d 89 e5 	movq	%r12, %r13
100001093:	45 89 d4 	movl	%r10d, %r12d
100001096:	48 8d 7c 24 10 	leaq	16(%rsp), %rdi
10000109b:	41 ff c0 	incl	%r8d
10000109e:	0f 01 f9 	rdtscp
1000010a1:	48 c1 e2 20 	shlq	$32, %rdx
1000010a5:	48 0b c2 	orq	%rdx, %rax
1000010a8:	89 0f 	movl	%ecx, (%rdi)
1000010aa:	48 89 c3 	movq	%rax, %rbx
1000010ad:	45 85 e4 	testl	%r12d, %r12d
1000010b0:	0f 86 be 00 00 00 	jbe	190 <_main+0x6C4>
1000010b6:	4c 8b 5c 24 38 	movq	56(%rsp), %r11
1000010bb:	33 d2 	xorl	%edx, %edx
1000010bd:	8d 3c d5 00 00 00 00 	leal	(,%rdx,8), %edi
1000010c4:	ff c2 	incl	%edx
1000010c6:	48 63 ff 	movslq	%edi, %rdi
1000010c9:	48 c1 e7 04 	shlq	$4, %rdi
1000010cd:	c4 c1 7a 6f 04 3b 	vmovdqu	(%r11,%rdi), %xmm0
1000010d3:	c4 c1 7a 6f 54 3b 10 	vmovdqu	16(%r11,%rdi), %xmm2
1000010da:	c4 c1 7a 6f 64 3b 20 	vmovdqu	32(%r11,%rdi), %xmm4
1000010e1:	c4 c1 7a 6f 74 3b 30 	vmovdqu	48(%r11,%rdi), %xmm6
1000010e8:	c4 41 7a 6f 44 3b 40 	vmovdqu	64(%r11,%rdi), %xmm8
1000010ef:	c4 41 7a 6f 54 3b 50 	vmovdqu	80(%r11,%rdi), %xmm10
1000010f6:	c4 41 7a 6f 64 3b 60 	vmovdqu	96(%r11,%rdi), %xmm12
1000010fd:	c4 41 7a 6f 74 3b 70 	vmovdqu	112(%r11,%rdi), %xmm14
100001104:	c5 f9 d5 0c 3e 	vpmullw	(%rsi,%rdi), %xmm0, %xmm1
100001109:	c5 e9 d5 5c 3e 10 	vpmullw	16(%rsi,%rdi), %xmm2, %xmm3
10000110f:	c5 d9 d5 6c 3e 20 	vpmullw	32(%rsi,%rdi), %xmm4, %xmm5
100001115:	c5 c9 d5 7c 3e 30 	vpmullw	48(%rsi,%rdi), %xmm6, %xmm7
10000111b:	c5 39 d5 4c 3e 40 	vpmullw	64(%rsi,%rdi), %xmm8, %xmm9
100001121:	c5 29 d5 5c 3e 50 	vpmullw	80(%rsi,%rdi), %xmm10, %xmm11
100001127:	c5 19 d5 6c 3e 60 	vpmullw	96(%rsi,%rdi), %xmm12, %xmm13
10000112d:	c5 09 d5 7c 3e 70 	vpmullw	112(%rsi,%rdi), %xmm14, %xmm15
100001133:	c4 c1 7a 7f 4c 3d 00 	vmovdqu	%xmm1, (%r13,%rdi)
10000113a:	c4 c1 7a 7f 5c 3d 10 	vmovdqu	%xmm3, 16(%r13,%rdi)
100001141:	c4 c1 7a 7f 6c 3d 20 	vmovdqu	%xmm5, 32(%r13,%rdi)
100001148:	c4 c1 7a 7f 7c 3d 30 	vmovdqu	%xmm7, 48(%r13,%rdi)
10000114f:	c4 41 7a 7f 4c 3d 40 	vmovdqu	%xmm9, 64(%r13,%rdi)
100001156:	c4 41 7a 7f 5c 3d 50 	vmovdqu	%xmm11, 80(%r13,%rdi)
10000115d:	c4 41 7a 7f 6c 3d 60 	vmovdqu	%xmm13, 96(%r13,%rdi)
100001164:	c4 41 7a 7f 7c 3d 70 	vmovdqu	%xmm15, 112(%r13,%rdi)
10000116b:	41 3b d6 	cmpl	%r14d, %edx
10000116e:	0f 8c 49 ff ff ff 	jl	-183 <_main+0x60D>
100001174:	48 8d 7c 24 14 	leaq	20(%rsp), %rdi
100001179:	0f 01 f9 	rdtscp
10000117c:	48 c1 e2 20 	shlq	$32, %rdx
100001180:	48 0b c2 	orq	%rdx, %rax
100001183:	89 0f 	movl	%ecx, (%rdi)
100001185:	48 2b c3 	subq	%rbx, %rax
100001188:	49 3b c7 	cmpq	%r15, %rax
10000118b:	4c 0f 4f f8 	cmovgq	%rax, %r15
10000118f:	4c 03 c8 	addq	%rax, %r9
100001192:	41 81 f8 a0 86 01 00 	cmpl	$100000, %r8d
100001199:	0f 82 f7 fe ff ff 	jb	-265 <_main+0x5E6>
10000119f:	4c 89 c8 	movq	%r9, %rax
1000011a2:	48 8d 3d d7 53 00 00 	leaq	21463(%rip), %rdi
1000011a9:	4c 89 f9 	movq	%r15, %rcx
1000011ac:	48 99 	cqto
1000011ae:	49 f7 f8 	idivq	%r8
1000011b1:	8b 5c 24 50 	movl	80(%rsp), %ebx
1000011b5:	89 de 	movl	%ebx, %esi
1000011b7:	4c 89 ca 	movq	%r9, %rdx
1000011ba:	41 89 c1 	movl	%eax, %r9d
1000011bd:	33 c0 	xorl	%eax, %eax
1000011bf:	4c 8b 74 24 08 	movq	8(%rsp), %r14
1000011c4:	4c 8b 6c 24 38 	movq	56(%rsp), %r13
1000011c9:	e8 be 52 00 00 	callq	21182
1000011ce:	8b 44 24 18 	movl	24(%rsp), %eax
1000011d2:	45 33 ff 	xorl	%r15d, %r15d
1000011d5:	48 8b 74 24 30 	movq	48(%rsp), %rsi
1000011da:	45 33 e4 	xorl	%r12d, %r12d
1000011dd:	4c 89 6c 24 38 	movq	%r13, 56(%rsp)
1000011e2:	45 33 c0 	xorl	%r8d, %r8d
1000011e5:	89 5c 24 50 	movl	%ebx, 80(%rsp)
1000011e9:	44 8d 48 07 	leal	7(%rax), %r9d
1000011ed:	41 c1 e9 03 	shrl	$3, %r9d
1000011f1:	41 89 c5 	movl	%eax, %r13d
1000011f4:	48 8d 3c 24 	leaq	(%rsp), %rdi
1000011f8:	41 ff c0 	incl	%r8d
1000011fb:	0f 01 f9 	rdtscp
1000011fe:	48 c1 e2 20 	shlq	$32, %rdx
100001202:	48 0b c2 	orq	%rdx, %rax
100001205:	89 0f 	movl	%ecx, (%rdi)
100001207:	48 89 c3 	movq	%rax, %rbx
10000120a:	45 85 ed 	testl	%r13d, %r13d
10000120d:	0f 86 e1 00 00 00 	jbe	225 <_main+0x844>
100001213:	4c 8b 54 24 38 	movq	56(%rsp), %r10
100001218:	33 c0 	xorl	%eax, %eax
10000121a:	8d 3c c5 00 00 00 00 	leal	(,%rax,8), %edi
100001221:	ff c0 	incl	%eax
100001223:	48 63 ff 	movslq	%edi, %rdi
100001226:	48 c1 e7 05 	shlq	$5, %rdi
10000122a:	c4 c1 7e 6f 04 3a 	vmovdqu	(%r10,%rdi), %ymm0
100001230:	c4 c1 7e 6f 54 3a 20 	vmovdqu	32(%r10,%rdi), %ymm2
100001237:	c4 c1 7e 6f 64 3a 40 	vmovdqu	64(%r10,%rdi), %ymm4
10000123e:	c4 c1 7e 6f 74 3a 60 	vmovdqu	96(%r10,%rdi), %ymm6
100001245:	c4 41 7e 6f 84 3a 80 00 00 00 	vmovdqu	128(%r10,%rdi), %ymm8
10000124f:	c4 41 7e 6f 94 3a a0 00 00 00 	vmovdqu	160(%r10,%rdi), %ymm10
100001259:	c4 41 7e 6f a4 3a c0 00 00 00 	vmovdqu	192(%r10,%rdi), %ymm12
100001263:	c4 41 7e 6f b4 3a e0 00 00 00 	vmovdqu	224(%r10,%rdi), %ymm14
10000126d:	c5 fd d5 0c 3e 	vpmullw	(%rsi,%rdi), %ymm0, %ymm1
100001272:	c5 ed d5 5c 3e 20 	vpmullw	32(%rsi,%rdi), %ymm2, %ymm3
100001278:	c5 dd d5 6c 3e 40 	vpmullw	64(%rsi,%rdi), %ymm4, %ymm5
10000127e:	c5 cd d5 7c 3e 60 	vpmullw	96(%rsi,%rdi), %ymm6, %ymm7
100001284:	c5 3d d5 8c 3e 80 00 00 00 	vpmullw	128(%rsi,%rdi), %ymm8, %ymm9
10000128d:	c5 2d d5 9c 3e a0 00 00 00 	vpmullw	160(%rsi,%rdi), %ymm10, %ymm11
100001296:	c5 1d d5 ac 3e c0 00 00 00 	vpmullw	192(%rsi,%rdi), %ymm12, %ymm13
10000129f:	c5 0d d5 bc 3e e0 00 00 00 	vpmullw	224(%rsi,%rdi), %ymm14, %ymm15
1000012a8:	c4 c1 7e 7f 0c 3e 	vmovdqu	%ymm1, (%r14,%rdi)
1000012ae:	c4 c1 7e 7f 5c 3e 20 	vmovdqu	%ymm3, 32(%r14,%rdi)
1000012b5:	c4 c1 7e 7f 6c 3e 40 	vmovdqu	%ymm5, 64(%r14,%rdi)
1000012bc:	c4 c1 7e 7f 7c 3e 60 	vmovdqu	%ymm7, 96(%r14,%rdi)
1000012c3:	c4 41 7e 7f 8c 3e 80 00 00 00 	vmovdqu	%ymm9, 128(%r14,%rdi)
1000012cd:	c4 41 7e 7f 9c 3e a0 00 00 00 	vmovdqu	%ymm11, 160(%r14,%rdi)
1000012d7:	c4 41 7e 7f ac 3e c0 00 00 00 	vmovdqu	%ymm13, 192(%r14,%rdi)
1000012e1:	c4 41 7e 7f bc 3e e0 00 00 00 	vmovdqu	%ymm15, 224(%r14,%rdi)
1000012eb:	41 3b c1 	cmpl	%r9d, %eax
1000012ee:	0f 8c 26 ff ff ff 	jl	-218 <_main+0x76A>
1000012f4:	c5 f8 77 	vzeroupper
1000012f7:	48 8d 7c 24 04 	leaq	4(%rsp), %rdi
1000012fc:	0f 01 f9 	rdtscp
1000012ff:	48 c1 e2 20 	shlq	$32, %rdx
100001303:	48 0b c2 	orq	%rdx, %rax
100001306:	89 0f 	movl	%ecx, (%rdi)
100001308:	48 2b c3 	subq	%rbx, %rax
10000130b:	49 3b c4 	cmpq	%r12, %rax
10000130e:	4c 0f 4f e0 	cmovgq	%rax, %r12
100001312:	4c 03 f8 	addq	%rax, %r15
100001315:	41 81 f8 a0 86 01 00 	cmpl	$100000, %r8d
10000131c:	0f 82 d2 fe ff ff 	jb	-302 <_main+0x744>
100001322:	4c 89 f8 	movq	%r15, %rax
100001325:	48 8d 3d 74 52 00 00 	leaq	21108(%rip), %rdi
10000132c:	4c 89 e1 	movq	%r12, %rcx
10000132f:	48 99 	cqto
100001331:	49 f7 f8 	idivq	%r8
100001334:	8b 5c 24 50 	movl	80(%rsp), %ebx
100001338:	89 de 	movl	%ebx, %esi
10000133a:	4c 89 fa 	movq	%r15, %rdx
10000133d:	41 89 c1 	movl	%eax, %r9d
100001340:	33 c0 	xorl	%eax, %eax
100001342:	e8 45 51 00 00 	callq	20805
100001347:	c5 f8 77 	vzeroupper
10000134a:	33 c0 	xorl	%eax, %eax
10000134c:	48 81 c4 d8 00 00 00 	addq	$216, %rsp
100001353:	5b 	popq	%rbx
100001354:	41 5f 	popq	%r15
100001356:	41 5e 	popq	%r14
100001358:	41 5d 	popq	%r13
10000135a:	41 5c 	popq	%r12
10000135c:	48 89 ec 	movq	%rbp, %rsp
10000135f:	5d 	popq	%rbp
100001360:	c3 	retq
100001361:	33 ff 	xorl	%edi, %edi
100001363:	e9 6e fc ff ff 	jmp	-914 <_main+0x526>
100001368:	48 8b 7c 24 20 	movq	32(%rsp), %rdi
10000136d:	33 d2 	xorl	%edx, %edx
10000136f:	e9 39 fc ff ff 	jmp	-967 <_main+0x4FD>
100001374:	33 d2 	xorl	%edx, %edx
100001376:	e9 ff f8 ff ff 	jmp	-1793 <_main+0x1CA>
10000137b:	89 ca 	movl	%ecx, %edx
10000137d:	33 c0 	xorl	%eax, %eax
10000137f:	83 e2 f0 	andl	$-16, %edx
100001382:	48 63 d2 	movslq	%edx, %rdx
100001385:	e9 d0 f8 ff ff 	jmp	-1840 <_main+0x1AA>
10000138a:	66 0f 1f 44 00 00 	nopw	(%rax,%rax)
100001390:	48 83 ec 18 	subq	$24, %rsp
100001394:	48 8d 3d 25 52 00 00 	leaq	21029(%rip), %rdi
10000139b:	c5 fa 7f 04 24 	vmovdqu	%xmm0, (%rsp)
1000013a0:	48 83 c4 e0 	addq	$-32, %rsp
1000013a4:	0f bf 44 24 2a 	movswl	42(%rsp), %eax
1000013a9:	44 0f bf 54 24 2c 	movswl	44(%rsp), %r10d
1000013af:	44 0f bf 5c 24 2e 	movswl	46(%rsp), %r11d
1000013b5:	89 04 24 	movl	%eax, (%rsp)
1000013b8:	33 c0 	xorl	%eax, %eax
1000013ba:	0f bf 74 24 20 	movswl	32(%rsp), %esi
1000013bf:	0f bf 54 24 22 	movswl	34(%rsp), %edx
1000013c4:	0f bf 4c 24 24 	movswl	36(%rsp), %ecx
1000013c9:	44 0f bf 44 24 26 	movswl	38(%rsp), %r8d
1000013cf:	44 0f bf 4c 24 28 	movswl	40(%rsp), %r9d
1000013d5:	44 89 54 24 08 	movl	%r10d, 8(%rsp)
1000013da:	44 89 5c 24 10 	movl	%r11d, 16(%rsp)
1000013df:	e8 a8 50 00 00 	callq	20648
1000013e4:	48 83 c4 20 	addq	$32, %rsp
1000013e8:	48 83 c4 18 	addq	$24, %rsp
1000013ec:	c3 	retq
1000013ed:	0f 1f 00 	nopl	(%rax)
1000013f0:	49 89 d1 	movq	%rdx, %r9
1000013f3:	49 89 f0 	movq	%rsi, %r8
1000013f6:	33 f6 	xorl	%esi, %esi
1000013f8:	85 c9 	testl	%ecx, %ecx
1000013fa:	0f 86 2e 01 00 00 	jbe	302 <_componentwise_multiply_real_scalar+0x13E>
100001400:	8d 41 07 	leal	7(%rcx), %eax
100001403:	c1 f8 02 	sarl	$2, %eax
100001406:	c1 e8 1d 	shrl	$29, %eax
100001409:	8d 4c 01 07 	leal	7(%rcx,%rax), %ecx
10000140d:	c1 f9 03 	sarl	$3, %ecx
100001410:	8d 14 f5 00 00 00 00 	leal	(,%rsi,8), %edx
100001417:	48 63 d2 	movslq	%edx, %rdx
10000141a:	48 8d 04 57 	leaq	(%rdi,%rdx,2), %rax
10000141e:	4d 8d 14 51 	leaq	(%r9,%rdx,2), %r10
100001422:	4c 3b d0 	cmpq	%rax, %r10
100001425:	76 0e 	jbe	14 <_componentwise_multiply_real_scalar+0x45>
100001427:	48 f7 d8 	negq	%rax
10000142a:	49 03 c2 	addq	%r10, %rax
10000142d:	48 83 f8 10 	cmpq	$16, %rax
100001431:	7d 10 	jge	16 <_componentwise_multiply_real_scalar+0x53>
100001433:	eb 46 	jmp	70 <_componentwise_multiply_real_scalar+0x8B>
100001435:	49 3b c2 	cmpq	%r10, %rax
100001438:	76 41 	jbe	65 <_componentwise_multiply_real_scalar+0x8B>
10000143a:	49 2b c2 	subq	%r10, %rax
10000143d:	48 83 f8 10 	cmpq	$16, %rax
100001441:	7c 38 	jl	56 <_componentwise_multiply_real_scalar+0x8B>
100001443:	49 8d 04 50 	leaq	(%r8,%rdx,2), %rax
100001447:	4c 3b d0 	cmpq	%rax, %r10
10000144a:	76 0b 	jbe	11 <_componentwise_multiply_real_scalar+0x67>
10000144c:	4c 2b d0 	subq	%rax, %r10
10000144f:	49 83 fa 10 	cmpq	$16, %r10
100001453:	7d 10 	jge	16 <_componentwise_multiply_real_scalar+0x75>
100001455:	eb 24 	jmp	36 <_componentwise_multiply_real_scalar+0x8B>
100001457:	49 3b c2 	cmpq	%r10, %rax
10000145a:	76 1f 	jbe	31 <_componentwise_multiply_real_scalar+0x8B>
10000145c:	49 2b c2 	subq	%r10, %rax
10000145f:	48 83 f8 10 	cmpq	$16, %rax
100001463:	7c 16 	jl	22 <_componentwise_multiply_real_scalar+0x8B>
100001465:	c5 fa 6f 04 57 	vmovdqu	(%rdi,%rdx,2), %xmm0
10000146a:	c4 c1 79 d5 0c 50 	vpmullw	(%r8,%rdx,2), %xmm0, %xmm1
100001470:	c4 c1 7a 7f 0c 51 	vmovdqu	%xmm1, (%r9,%rdx,2)
100001476:	e9 a9 00 00 00 	jmp	169 <_componentwise_multiply_real_scalar+0x134>
10000147b:	44 0f b7 1c 57 	movzwl	(%rdi,%rdx,2), %r11d
100001480:	49 8d 04 51 	leaq	(%r9,%rdx,2), %rax
100001484:	45 0f b7 14 50 	movzwl	(%r8,%rdx,2), %r10d
100001489:	45 0f af da 	imull	%r10d, %r11d
10000148d:	66 44 89 18 	movw	%r11w, (%rax)
100001491:	44 0f b7 5c 57 02 	movzwl	2(%rdi,%rdx,2), %r11d
100001497:	45 0f b7 54 50 02 	movzwl	2(%r8,%rdx,2), %r10d
10000149d:	45 0f af da 	imull	%r10d, %r11d
1000014a1:	66 44 89 58 02 	movw	%r11w, 2(%rax)
1000014a6:	44 0f b7 5c 57 04 	movzwl	4(%rdi,%rdx,2), %r11d
1000014ac:	45 0f b7 54 50 04 	movzwl	4(%r8,%rdx,2), %r10d
1000014b2:	45 0f af da 	imull	%r10d, %r11d
1000014b6:	66 44 89 58 04 	movw	%r11w, 4(%rax)
1000014bb:	44 0f b7 5c 57 06 	movzwl	6(%rdi,%rdx,2), %r11d
1000014c1:	45 0f b7 54 50 06 	movzwl	6(%r8,%rdx,2), %r10d
1000014c7:	45 0f af da 	imull	%r10d, %r11d
1000014cb:	66 44 89 58 06 	movw	%r11w, 6(%rax)
1000014d0:	44 0f b7 5c 57 08 	movzwl	8(%rdi,%rdx,2), %r11d
1000014d6:	45 0f b7 54 50 08 	movzwl	8(%r8,%rdx,2), %r10d
1000014dc:	45 0f af da 	imull	%r10d, %r11d
1000014e0:	66 44 89 58 08 	movw	%r11w, 8(%rax)
1000014e5:	44 0f b7 5c 57 0a 	movzwl	10(%rdi,%rdx,2), %r11d
1000014eb:	45 0f b7 54 50 0a 	movzwl	10(%r8,%rdx,2), %r10d
1000014f1:	45 0f af da 	imull	%r10d, %r11d
1000014f5:	66 44 89 58 0a 	movw	%r11w, 10(%rax)
1000014fa:	44 0f b7 5c 57 0c 	movzwl	12(%rdi,%rdx,2), %r11d
100001500:	45 0f b7 54 50 0c 	movzwl	12(%r8,%rdx,2), %r10d
100001506:	45 0f af da 	imull	%r10d, %r11d
10000150a:	66 44 89 58 0c 	movw	%r11w, 12(%rax)
10000150f:	44 0f b7 54 57 0e 	movzwl	14(%rdi,%rdx,2), %r10d
100001515:	41 0f b7 54 50 0e 	movzwl	14(%r8,%rdx,2), %edx
10000151b:	44 0f af d2 	imull	%edx, %r10d
10000151f:	66 44 89 50 0e 	movw	%r10w, 14(%rax)
100001524:	ff c6 	incl	%esi
100001526:	3b f1 	cmpl	%ecx, %esi
100001528:	0f 82 e2 fe ff ff 	jb	-286 <_componentwise_multiply_real_scalar+0x20>
10000152e:	c3 	retq
10000152f:	90 	nop
100001530:	49 89 f0 	movq	%rsi, %r8
100001533:	c1 e9 03 	shrl	$3, %ecx
100001536:	33 f6 	xorl	%esi, %esi
100001538:	33 c0 	xorl	%eax, %eax
10000153a:	85 c9 	testl	%ecx, %ecx
10000153c:	0f 86 ac 00 00 00 	jbe	172 <_componentwise_multiply_real_sse4+0xBE>
100001542:	c5 fa 6f 04 38 	vmovdqu	(%rax,%rdi), %xmm0
100001547:	4c 8d 0c 10 	leaq	(%rax,%rdx), %r9
10000154b:	c4 a1 79 d5 0c 00 	vpmullw	(%rax,%r8), %xmm0, %xmm1
100001551:	48 83 c6 08 	addq	$8, %rsi
100001555:	c4 c1 7a 7f 09 	vmovdqu	%xmm1, (%r9)
10000155a:	c5 fa 6f 54 38 10 	vmovdqu	16(%rax,%rdi), %xmm2
100001560:	c4 a1 69 d5 5c 00 10 	vpmullw	16(%rax,%r8), %xmm2, %xmm3
100001567:	c4 c1 7a 7f 59 10 	vmovdqu	%xmm3, 16(%r9)
10000156d:	c5 fa 6f 64 38 20 	vmovdqu	32(%rax,%rdi), %xmm4
100001573:	c4 a1 59 d5 6c 00 20 	vpmullw	32(%rax,%r8), %xmm4, %xmm5
10000157a:	c4 c1 7a 7f 69 20 	vmovdqu	%xmm5, 32(%r9)
100001580:	c5 fa 6f 74 38 30 	vmovdqu	48(%rax,%rdi), %xmm6
100001586:	c4 a1 49 d5 7c 00 30 	vpmullw	48(%rax,%r8), %xmm6, %xmm7
10000158d:	c4 c1 7a 7f 79 30 	vmovdqu	%xmm7, 48(%r9)
100001593:	c5 7a 6f 44 38 40 	vmovdqu	64(%rax,%rdi), %xmm8
100001599:	c4 21 39 d5 4c 00 40 	vpmullw	64(%rax,%r8), %xmm8, %xmm9
1000015a0:	c4 41 7a 7f 49 40 	vmovdqu	%xmm9, 64(%r9)
1000015a6:	c5 7a 6f 54 38 50 	vmovdqu	80(%rax,%rdi), %xmm10
1000015ac:	c4 21 29 d5 5c 00 50 	vpmullw	80(%rax,%r8), %xmm10, %xmm11
1000015b3:	c4 41 7a 7f 59 50 	vmovdqu	%xmm11, 80(%r9)
1000015b9:	c5 7a 6f 64 38 60 	vmovdqu	96(%rax,%rdi), %xmm12
1000015bf:	c4 21 19 d5 6c 00 60 	vpmullw	96(%rax,%r8), %xmm12, %xmm13
1000015c6:	c4 41 7a 7f 69 60 	vmovdqu	%xmm13, 96(%r9)
1000015cc:	c5 7a 6f 74 38 70 	vmovdqu	112(%rax,%rdi), %xmm14
1000015d2:	c4 21 09 d5 7c 00 70 	vpmullw	112(%rax,%r8), %xmm14, %xmm15
1000015d9:	48 05 80 00 00 00 	addq	$128, %rax
1000015df:	c4 41 7a 7f 79 70 	vmovdqu	%xmm15, 112(%r9)
1000015e5:	48 3b f1 	cmpq	%rcx, %rsi
1000015e8:	0f 82 54 ff ff ff 	jb	-172 <_componentwise_multiply_real_sse4+0x12>
1000015ee:	c3 	retq
1000015ef:	90 	nop
1000015f0:	49 89 f0 	movq	%rsi, %r8
1000015f3:	c1 e9 04 	shrl	$4, %ecx
1000015f6:	33 f6 	xorl	%esi, %esi
1000015f8:	33 c0 	xorl	%eax, %eax
1000015fa:	85 c9 	testl	%ecx, %ecx
1000015fc:	0f 86 d0 00 00 00 	jbe	208 <_componentwise_multiply_real_avx2+0xE2>
100001602:	c5 fe 6f 04 38 	vmovdqu	(%rax,%rdi), %ymm0
100001607:	4c 8d 0c 10 	leaq	(%rax,%rdx), %r9
10000160b:	c4 a1 7d d5 0c 00 	vpmullw	(%rax,%r8), %ymm0, %ymm1
100001611:	48 83 c6 08 	addq	$8, %rsi
100001615:	c4 c1 7e 7f 09 	vmovdqu	%ymm1, (%r9)
10000161a:	c5 fe 6f 54 38 20 	vmovdqu	32(%rax,%rdi), %ymm2
100001620:	c4 a1 6d d5 5c 00 20 	vpmullw	32(%rax,%r8), %ymm2, %ymm3
100001627:	c4 c1 7e 7f 59 20 	vmovdqu	%ymm3, 32(%r9)
10000162d:	c5 fe 6f 64 38 40 	vmovdqu	64(%rax,%rdi), %ymm4
100001633:	c4 a1 5d d5 6c 00 40 	vpmullw	64(%rax,%r8), %ymm4, %ymm5
10000163a:	c4 c1 7e 7f 69 40 	vmovdqu	%ymm5, 64(%r9)
100001640:	c5 fe 6f 74 38 60 	vmovdqu	96(%rax,%rdi), %ymm6
100001646:	c4 a1 4d d5 7c 00 60 	vpmullw	96(%rax,%r8), %ymm6, %ymm7
10000164d:	c4 c1 7e 7f 79 60 	vmovdqu	%ymm7, 96(%r9)
100001653:	c5 7e 6f 84 38 80 00 00 00 	vmovdqu	128(%rax,%rdi), %ymm8
10000165c:	c4 21 3d d5 8c 00 80 00 00 00 	vpmullw	128(%rax,%r8), %ymm8, %ymm9
100001666:	c4 41 7e 7f 89 80 00 00 00 	vmovdqu	%ymm9, 128(%r9)
10000166f:	c5 7e 6f 94 38 a0 00 00 00 	vmovdqu	160(%rax,%rdi), %ymm10
100001678:	c4 21 2d d5 9c 00 a0 00 00 00 	vpmullw	160(%rax,%r8), %ymm10, %ymm11
100001682:	c4 41 7e 7f 99 a0 00 00 00 	vmovdqu	%ymm11, 160(%r9)
10000168b:	c5 7e 6f a4 38 c0 00 00 00 	vmovdqu	192(%rax,%rdi), %ymm12
100001694:	c4 21 1d d5 ac 00 c0 00 00 00 	vpmullw	192(%rax,%r8), %ymm12, %ymm13
10000169e:	c4 41 7e 7f a9 c0 00 00 00 	vmovdqu	%ymm13, 192(%r9)
1000016a7:	c5 7e 6f b4 38 e0 00 00 00 	vmovdqu	224(%rax,%rdi), %ymm14
1000016b0:	c4 21 0d d5 bc 00 e0 00 00 00 	vpmullw	224(%rax,%r8), %ymm14, %ymm15
1000016ba:	48 05 00 01 00 00 	addq	$256, %rax
1000016c0:	c4 41 7e 7f b9 e0 00 00 00 	vmovdqu	%ymm15, 224(%r9)
1000016c9:	48 3b f1 	cmpq	%rcx, %rsi
1000016cc:	0f 82 30 ff ff ff 	jb	-208 <_componentwise_multiply_real_avx2+0x12>
1000016d2:	c5 f8 77 	vzeroupper
1000016d5:	c3 	retq
1000016d6:	0f 1f 00 	nopl	(%rax)
1000016d9:	0f 1f 80 00 00 00 00 	nopl	(%rax)
1000016e0:	55 	pushq	%rbp
1000016e1:	48 89 e5 	movq	%rsp, %rbp
1000016e4:	48 83 e4 e0 	andq	$-32, %rsp
1000016e8:	41 54 	pushq	%r12
1000016ea:	41 55 	pushq	%r13
1000016ec:	41 56 	pushq	%r14
1000016ee:	41 57 	pushq	%r15
1000016f0:	53 	pushq	%rbx
1000016f1:	48 83 ec 58 	subq	$88, %rsp
1000016f5:	41 89 fe 	movl	%edi, %r14d
1000016f8:	89 f7 	movl	%esi, %edi
1000016fa:	e8 a5 4d 00 00 	callq	19877
1000016ff:	45 89 f7 	movl	%r14d, %r15d
100001702:	4d 03 ff 	addq	%r15, %r15
100001705:	4c 89 ff 	movq	%r15, %rdi
100001708:	e8 79 4d 00 00 	callq	19833
10000170d:	49 89 c5 	movq	%rax, %r13
100001710:	4c 89 ff 	movq	%r15, %rdi
100001713:	e8 6e 4d 00 00 	callq	19822
100001718:	48 89 c3 	movq	%rax, %rbx
10000171b:	4c 89 ff 	movq	%r15, %rdi
10000171e:	e8 63 4d 00 00 	callq	19811
100001723:	49 89 c4 	movq	%rax, %r12
100001726:	4c 89 ff 	movq	%r15, %rdi
100001729:	e8 58 4d 00 00 	callq	19800
10000172e:	48 89 44 24 20 	movq	%rax, 32(%rsp)
100001733:	4c 89 ff 	movq	%r15, %rdi
100001736:	e8 4b 4d 00 00 	callq	19787
10000173b:	48 89 44 24 18 	movq	%rax, 24(%rsp)
100001740:	4d 85 ed 	testq	%r13, %r13
100001743:	0f 84 47 08 00 00 	je	2119 <_test_routines+0x8B0>
100001749:	48 85 db 	testq	%rbx, %rbx
10000174c:	0f 84 3e 08 00 00 	je	2110 <_test_routines+0x8B0>
100001752:	4d 85 e4 	testq	%r12, %r12
100001755:	0f 84 35 08 00 00 	je	2101 <_test_routines+0x8B0>
10000175b:	48 83 7c 24 20 00 	cmpq	$0, 32(%rsp)
100001761:	0f 84 29 08 00 00 	je	2089 <_test_routines+0x8B0>
100001767:	48 83 7c 24 18 00 	cmpq	$0, 24(%rsp)
10000176d:	0f 84 1d 08 00 00 	je	2077 <_test_routines+0x8B0>
100001773:	33 d2 	xorl	%edx, %edx
100001775:	45 85 f6 	testl	%r14d, %r14d
100001778:	0f 86 d0 07 00 00 	jbe	2000 <_test_routines+0x86E>
10000177e:	b8 01 00 00 00 	movl	$1, %eax
100001783:	4d 63 fe 	movslq	%r14d, %r15
100001786:	4c 89 24 24 	movq	%r12, (%rsp)
10000178a:	49 89 d4 	movq	%rdx, %r12
10000178d:	44 89 74 24 08 	movl	%r14d, 8(%rsp)
100001792:	41 89 c6 	movl	%eax, %r14d
100001795:	66 47 89 74 65 00 	movw	%r14w, (%r13,%r12,2)
10000179b:	e8 f8 4c 00 00 	callq	19704
1000017a0:	66 42 89 04 63 	movw	%ax, (%rbx,%r12,2)
1000017a5:	49 ff c4 	incq	%r12
1000017a8:	4d 3b e7 	cmpq	%r15, %r12
1000017ab:	72 e8 	jb	-24 <_test_routines+0xB5>
1000017ad:	44 8b 74 24 08 	movl	8(%rsp), %r14d
1000017b2:	41 8d 46 07 	leal	7(%r14), %eax
1000017b6:	c1 f8 02 	sarl	$2, %eax
1000017b9:	c1 e8 1d 	shrl	$29, %eax
1000017bc:	4c 8b 24 24 	movq	(%rsp), %r12
1000017c0:	42 8d 54 30 07 	leal	7(%rax,%r14), %edx
1000017c5:	48 63 d2 	movslq	%edx, %rdx
1000017c8:	48 83 e2 f8 	andq	$-8, %rdx
1000017cc:	48 83 fa 10 	cmpq	$16, %rdx
1000017d0:	0f 8c 62 07 00 00 	jl	1890 <_test_routines+0x858>
1000017d6:	48 81 fa b9 04 00 00 	cmpq	$1209, %rdx
1000017dd:	0f 8c 5c 07 00 00 	jl	1884 <_test_routines+0x85F>
1000017e3:	4c 89 e1 	movq	%r12, %rcx
1000017e6:	48 83 e1 1f 	andq	$31, %rcx
1000017ea:	85 c9 	testl	%ecx, %ecx
1000017ec:	74 10 	je	16 <_test_routines+0x11E>
1000017ee:	f6 c1 01 	testb	$1, %cl
1000017f1:	0f 85 41 07 00 00 	jne	1857 <_test_routines+0x858>
1000017f7:	f7 d9 	negl	%ecx
1000017f9:	83 c1 20 	addl	$32, %ecx
1000017fc:	d1 e9 	shrl	%ecx
1000017fe:	89 c8 	movl	%ecx, %eax
100001800:	48 8d 78 10 	leaq	16(%rax), %rdi
100001804:	48 3b d7 	cmpq	%rdi, %rdx
100001807:	0f 8c 2b 07 00 00 	jl	1835 <_test_routines+0x858>
10000180d:	89 d7 	movl	%edx, %edi
10000180f:	41 89 f8 	movl	%edi, %r8d
100001812:	44 2b c1 	subl	%ecx, %r8d
100001815:	41 83 e0 0f 	andl	$15, %r8d
100001819:	41 2b f8 	subl	%r8d, %edi
10000181c:	48 63 ff 	movslq	%edi, %rdi
10000181f:	85 c9 	testl	%ecx, %ecx
100001821:	b9 00 00 00 00 	movl	$0, %ecx
100001826:	76 1c 	jbe	28 <_test_routines+0x164>
100001828:	45 0f b7 4c 4d 00 	movzwl	(%r13,%rcx,2), %r9d
10000182e:	44 0f b7 04 4b 	movzwl	(%rbx,%rcx,2), %r8d
100001833:	45 0f af c8 	imull	%r8d, %r9d
100001837:	66 45 89 0c 4c 	movw	%r9w, (%r12,%rcx,2)
10000183c:	48 ff c1 	incq	%rcx
10000183f:	48 3b c8 	cmpq	%rax, %rcx
100001842:	72 e4 	jb	-28 <_test_routines+0x148>
100001844:	c4 c1 7e 6f 44 45 00 	vmovdqu	(%r13,%rax,2), %ymm0
10000184b:	c5 fd d5 0c 43 	vpmullw	(%rbx,%rax,2), %ymm0, %ymm1
100001850:	c4 c1 7e 7f 0c 44 	vmovdqu	%ymm1, (%r12,%rax,2)
100001856:	48 83 c0 10 	addq	$16, %rax
10000185a:	48 3b c7 	cmpq	%rdi, %rax
10000185d:	72 e5 	jb	-27 <_test_routines+0x164>
10000185f:	48 3b fa 	cmpq	%rdx, %rdi
100001862:	73 1a 	jae	26 <_test_routines+0x19E>
100001864:	41 0f b7 4c 7d 00 	movzwl	(%r13,%rdi,2), %ecx
10000186a:	0f b7 04 7b 	movzwl	(%rbx,%rdi,2), %eax
10000186e:	0f af c8 	imull	%eax, %ecx
100001871:	66 41 89 0c 7c 	movw	%cx, (%r12,%rdi,2)
100001876:	48 ff c7 	incq	%rdi
100001879:	48 3b fa 	cmpq	%rdx, %rdi
10000187c:	72 e6 	jb	-26 <_test_routines+0x184>
10000187e:	44 89 f0 	movl	%r14d, %eax
100001881:	c1 e8 03 	shrl	$3, %eax
100001884:	89 44 24 10 	movl	%eax, 16(%rsp)
100001888:	85 c0 	testl	%eax, %eax
10000188a:	0f 86 92 06 00 00 	jbe	1682 <_test_routines+0x842>
100001890:	33 c9 	xorl	%ecx, %ecx
100001892:	8b 54 24 10 	movl	16(%rsp), %edx
100001896:	33 c0 	xorl	%eax, %eax
100001898:	4c 8b 44 24 20 	movq	32(%rsp), %r8
10000189d:	c4 a1 7a 6f 04 28 	vmovdqu	(%rax,%r13), %xmm0
1000018a3:	48 83 c1 08 	addq	$8, %rcx
1000018a7:	c4 a1 7a 6f 4c 28 10 	vmovdqu	16(%rax,%r13), %xmm1
1000018ae:	4a 8d 3c 00 	leaq	(%rax,%r8), %rdi
1000018b2:	c4 a1 7a 6f 54 28 20 	vmovdqu	32(%rax,%r13), %xmm2
1000018b9:	c4 a1 7a 6f 5c 28 30 	vmovdqu	48(%rax,%r13), %xmm3
1000018c0:	c4 a1 7a 6f 64 28 40 	vmovdqu	64(%rax,%r13), %xmm4
1000018c7:	c4 a1 7a 6f 6c 28 50 	vmovdqu	80(%rax,%r13), %xmm5
1000018ce:	c4 a1 7a 6f 74 28 60 	vmovdqu	96(%rax,%r13), %xmm6
1000018d5:	c4 a1 7a 6f 7c 28 70 	vmovdqu	112(%rax,%r13), %xmm7
1000018dc:	c5 79 d5 04 18 	vpmullw	(%rax,%rbx), %xmm0, %xmm8
1000018e1:	c5 71 d5 4c 18 10 	vpmullw	16(%rax,%rbx), %xmm1, %xmm9
1000018e7:	c5 69 d5 54 18 20 	vpmullw	32(%rax,%rbx), %xmm2, %xmm10
1000018ed:	c5 61 d5 5c 18 30 	vpmullw	48(%rax,%rbx), %xmm3, %xmm11
1000018f3:	c5 59 d5 64 18 40 	vpmullw	64(%rax,%rbx), %xmm4, %xmm12
1000018f9:	c5 51 d5 6c 18 50 	vpmullw	80(%rax,%rbx), %xmm5, %xmm13
1000018ff:	c5 49 d5 74 18 60 	vpmullw	96(%rax,%rbx), %xmm6, %xmm14
100001905:	c5 41 d5 7c 18 70 	vpmullw	112(%rax,%rbx), %xmm7, %xmm15
10000190b:	48 05 80 00 00 00 	addq	$128, %rax
100001911:	c5 7a 7f 07 	vmovdqu	%xmm8, (%rdi)
100001915:	c5 7a 7f 4f 10 	vmovdqu	%xmm9, 16(%rdi)
10000191a:	c5 7a 7f 57 20 	vmovdqu	%xmm10, 32(%rdi)
10000191f:	c5 7a 7f 5f 30 	vmovdqu	%xmm11, 48(%rdi)
100001924:	c5 7a 7f 67 40 	vmovdqu	%xmm12, 64(%rdi)
100001929:	c5 7a 7f 6f 50 	vmovdqu	%xmm13, 80(%rdi)
10000192e:	c5 7a 7f 77 60 	vmovdqu	%xmm14, 96(%rdi)
100001933:	c5 7a 7f 7f 70 	vmovdqu	%xmm15, 112(%rdi)
100001938:	48 3b ca 	cmpq	%rdx, %rcx
10000193b:	0f 82 5c ff ff ff 	jb	-164 <_test_routines+0x1BD>
100001941:	44 89 f0 	movl	%r14d, %eax
100001944:	c1 e8 04 	shrl	$4, %eax
100001947:	89 04 24 	movl	%eax, (%rsp)
10000194a:	85 c0 	testl	%eax, %eax
10000194c:	0f 86 d8 00 00 00 	jbe	216 <_test_routines+0x34A>
100001952:	33 c9 	xorl	%ecx, %ecx
100001954:	8b 14 24 	movl	(%rsp), %edx
100001957:	33 c0 	xorl	%eax, %eax
100001959:	48 8b 7c 24 18 	movq	24(%rsp), %rdi
10000195e:	c4 a1 7e 6f 04 28 	vmovdqu	(%rax,%r13), %ymm0
100001964:	48 83 c1 08 	addq	$8, %rcx
100001968:	c4 a1 7e 6f 54 28 20 	vmovdqu	32(%rax,%r13), %ymm2
10000196f:	c4 a1 7e 6f 64 28 40 	vmovdqu	64(%rax,%r13), %ymm4
100001976:	c4 a1 7e 6f 74 28 60 	vmovdqu	96(%rax,%r13), %ymm6
10000197d:	c4 21 7e 6f 84 28 80 00 00 00 	vmovdqu	128(%rax,%r13), %ymm8
100001987:	c4 21 7e 6f 94 28 a0 00 00 00 	vmovdqu	160(%rax,%r13), %ymm10
100001991:	c4 21 7e 6f a4 28 c0 00 00 00 	vmovdqu	192(%rax,%r13), %ymm12
10000199b:	c4 21 7e 6f b4 28 e0 00 00 00 	vmovdqu	224(%rax,%r13), %ymm14
1000019a5:	c5 fd d5 0c 18 	vpmullw	(%rax,%rbx), %ymm0, %ymm1
1000019aa:	c5 ed d5 5c 18 20 	vpmullw	32(%rax,%rbx), %ymm2, %ymm3
1000019b0:	c5 dd d5 6c 18 40 	vpmullw	64(%rax,%rbx), %ymm4, %ymm5
1000019b6:	c5 cd d5 7c 18 60 	vpmullw	96(%rax,%rbx), %ymm6, %ymm7
1000019bc:	c5 3d d5 8c 18 80 00 00 00 	vpmullw	128(%rax,%rbx), %ymm8, %ymm9
1000019c5:	c5 2d d5 9c 18 a0 00 00 00 	vpmullw	160(%rax,%rbx), %ymm10, %ymm11
1000019ce:	c5 1d d5 ac 18 c0 00 00 00 	vpmullw	192(%rax,%rbx), %ymm12, %ymm13
1000019d7:	c5 0d d5 bc 18 e0 00 00 00 	vpmullw	224(%rax,%rbx), %ymm14, %ymm15
1000019e0:	c5 fe 7f 0c 38 	vmovdqu	%ymm1, (%rax,%rdi)
1000019e5:	c5 fe 7f 5c 38 20 	vmovdqu	%ymm3, 32(%rax,%rdi)
1000019eb:	c5 fe 7f 6c 38 40 	vmovdqu	%ymm5, 64(%rax,%rdi)
1000019f1:	c5 fe 7f 7c 38 60 	vmovdqu	%ymm7, 96(%rax,%rdi)
1000019f7:	c5 7e 7f 8c 38 80 00 00 00 	vmovdqu	%ymm9, 128(%rax,%rdi)
100001a00:	c5 7e 7f 9c 38 a0 00 00 00 	vmovdqu	%ymm11, 160(%rax,%rdi)
100001a09:	c5 7e 7f ac 38 c0 00 00 00 	vmovdqu	%ymm13, 192(%rax,%rdi)
100001a12:	c5 7e 7f bc 38 e0 00 00 00 	vmovdqu	%ymm15, 224(%rax,%rdi)
100001a1b:	48 05 00 01 00 00 	addq	$256, %rax
100001a21:	48 3b ca 	cmpq	%rdx, %rcx
100001a24:	0f 82 34 ff ff ff 	jb	-204 <_test_routines+0x27E>
100001a2a:	45 85 f6 	testl	%r14d, %r14d
100001a2d:	0f 86 be 04 00 00 	jbe	1214 <_test_routines+0x811>
100001a33:	4d 63 fe 	movslq	%r14d, %r15
100001a36:	48 8b 7c 24 18 	movq	24(%rsp), %rdi
100001a3b:	33 c0 	xorl	%eax, %eax
100001a3d:	4c 8b 44 24 20 	movq	32(%rsp), %r8
100001a42:	41 0f bf 0c 44 	movswl	(%r12,%rax,2), %ecx
100001a47:	41 0f bf 14 40 	movswl	(%r8,%rax,2), %edx
100001a4c:	3b ca 	cmpl	%edx, %ecx
100001a4e:	0f 85 22 05 00 00 	jne	1314 <_test_routines+0x896>
100001a54:	0f bf 14 47 	movswl	(%rdi,%rax,2), %edx
100001a58:	3b ca 	cmpl	%edx, %ecx
100001a5a:	0f 85 16 05 00 00 	jne	1302 <_test_routines+0x896>
100001a60:	48 ff c0 	incq	%rax
100001a63:	49 3b c7 	cmpq	%r15, %rax
100001a66:	72 da 	jb	-38 <_test_routines+0x362>
100001a68:	45 33 ff 	xorl	%r15d, %r15d
100001a6b:	be 01 00 00 00 	movl	$1, %esi
100001a70:	45 33 c0 	xorl	%r8d, %r8d
100001a73:	48 8d 7c 24 38 	leaq	56(%rsp), %rdi
100001a78:	41 89 f1 	movl	%esi, %r9d
100001a7b:	c5 f8 77 	vzeroupper
100001a7e:	0f 01 f9 	rdtscp
100001a81:	48 c1 e2 20 	shlq	$32, %rdx
100001a85:	48 0b c2 	orq	%rdx, %rax
100001a88:	89 0f 	movl	%ecx, (%rdi)
100001a8a:	89 74 24 28 	movl	%esi, 40(%rsp)
100001a8e:	48 89 c6 	movq	%rax, %rsi
100001a91:	41 8d 7e 07 	leal	7(%r14), %edi
100001a95:	c1 ff 02 	sarl	$2, %edi
100001a98:	c1 ef 1d 	shrl	$29, %edi
100001a9b:	46 8d 54 37 07 	leal	7(%rdi,%r14), %r10d
100001aa0:	4d 63 d2 	movslq	%r10d, %r10
100001aa3:	49 83 e2 f8 	andq	$-8, %r10
100001aa7:	49 83 fa 10 	cmpq	$16, %r10
100001aab:	0f 8c 29 04 00 00 	jl	1065 <_test_routines+0x7FA>
100001ab1:	49 81 fa b9 04 00 00 	cmpq	$1209, %r10
100001ab8:	0f 8c 23 04 00 00 	jl	1059 <_test_routines+0x801>
100001abe:	4c 89 e7 	movq	%r12, %rdi
100001ac1:	48 83 e7 1f 	andq	$31, %rdi
100001ac5:	85 ff 	testl	%edi, %edi
100001ac7:	74 13 	je	19 <_test_routines+0x3FC>
100001ac9:	f7 c7 01 00 00 00 	testl	$1, %edi
100001acf:	0f 85 05 04 00 00 	jne	1029 <_test_routines+0x7FA>
100001ad5:	f7 df 	negl	%edi
100001ad7:	83 c7 20 	addl	$32, %edi
100001ada:	d1 ef 	shrl	%edi
100001adc:	89 f8 	movl	%edi, %eax
100001ade:	4c 8d 58 10 	leaq	16(%rax), %r11
100001ae2:	4d 3b d3 	cmpq	%r11, %r10
100001ae5:	0f 8c ef 03 00 00 	jl	1007 <_test_routines+0x7FA>
100001aeb:	44 89 d2 	movl	%r10d, %edx
100001aee:	41 89 d3 	movl	%edx, %r11d
100001af1:	44 2b df 	subl	%edi, %r11d
100001af4:	41 83 e3 0f 	andl	$15, %r11d
100001af8:	41 2b d3 	subl	%r11d, %edx
100001afb:	45 33 db 	xorl	%r11d, %r11d
100001afe:	85 ff 	testl	%edi, %edi
100001b00:	48 63 fa 	movslq	%edx, %rdi
100001b03:	76 1b 	jbe	27 <_test_routines+0x440>
100001b05:	43 0f b7 4c 5d 00 	movzwl	(%r13,%r11,2), %ecx
100001b0b:	42 0f b7 14 5b 	movzwl	(%rbx,%r11,2), %edx
100001b10:	0f af ca 	imull	%edx, %ecx
100001b13:	66 43 89 0c 5c 	movw	%cx, (%r12,%r11,2)
100001b18:	49 ff c3 	incq	%r11
100001b1b:	4c 3b d8 	cmpq	%rax, %r11
100001b1e:	72 e5 	jb	-27 <_test_routines+0x425>
100001b20:	c4 c1 7e 6f 44 45 00 	vmovdqu	(%r13,%rax,2), %ymm0
100001b27:	c5 fd d5 0c 43 	vpmullw	(%rbx,%rax,2), %ymm0, %ymm1
100001b2c:	c4 c1 7e 7f 0c 44 	vmovdqu	%ymm1, (%r12,%rax,2)
100001b32:	48 83 c0 10 	addq	$16, %rax
100001b36:	48 3b c7 	cmpq	%rdi, %rax
100001b39:	72 e5 	jb	-27 <_test_routines+0x440>
100001b3b:	49 3b fa 	cmpq	%r10, %rdi
100001b3e:	73 1c 	jae	28 <_test_routines+0x47C>
100001b40:	41 0f b7 44 7d 00 	movzwl	(%r13,%rdi,2), %eax
100001b46:	44 0f b7 1c 7b 	movzwl	(%rbx,%rdi,2), %r11d
100001b4b:	41 0f af c3 	imull	%r11d, %eax
100001b4f:	66 41 89 04 7c 	movw	%ax, (%r12,%rdi,2)
100001b54:	48 ff c7 	incq	%rdi
100001b57:	49 3b fa 	cmpq	%r10, %rdi
100001b5a:	72 e4 	jb	-28 <_test_routines+0x460>
100001b5c:	4c 89 6c 24 30 	movq	%r13, 48(%rsp)
100001b61:	44 8b 6c 24 28 	movl	40(%rsp), %r13d
100001b66:	c5 f8 77 	vzeroupper
100001b69:	48 8d 7c 24 3c 	leaq	60(%rsp), %rdi
100001b6e:	0f 01 f9 	rdtscp
100001b71:	48 c1 e2 20 	shlq	$32, %rdx
100001b75:	48 0b c2 	orq	%rdx, %rax
100001b78:	89 0f 	movl	%ecx, (%rdi)
100001b7a:	48 2b c6 	subq	%rsi, %rax
100001b7d:	49 3b c0 	cmpq	%r8, %rax
100001b80:	4c 0f 4f c0 	cmovgq	%rax, %r8
100001b84:	4c 03 f8 	addq	%rax, %r15
100001b87:	41 81 fd a0 86 01 00 	cmpl	$100000, %r13d
100001b8e:	73 32 	jae	50 <_test_routines+0x4E2>
100001b90:	41 ff c5 	incl	%r13d
100001b93:	48 8d 7c 24 38 	leaq	56(%rsp), %rdi
100001b98:	45 89 e9 	movl	%r13d, %r9d
100001b9b:	0f 01 f9 	rdtscp
100001b9e:	48 c1 e2 20 	shlq	$32, %rdx
100001ba2:	48 0b c2 	orq	%rdx, %rax
100001ba5:	89 0f 	movl	%ecx, (%rdi)
100001ba7:	48 89 c6 	movq	%rax, %rsi
100001baa:	45 85 f6 	testl	%r14d, %r14d
100001bad:	76 b7 	jbe	-73 <_test_routines+0x486>
100001baf:	0f 1f 40 00 	nopl	(%rax)
100001bb3:	44 89 6c 24 28 	movl	%r13d, 40(%rsp)
100001bb8:	4c 8b 6c 24 30 	movq	48(%rsp), %r13
100001bbd:	e9 cf fe ff ff 	jmp	-305 <_test_routines+0x3B1>
100001bc2:	4c 89 f8 	movq	%r15, %rax
100001bc5:	48 8d 3d 94 49 00 00 	leaq	18836(%rip), %rdi
100001bcc:	4d 63 c9 	movslq	%r9d, %r9
100001bcf:	44 89 f6 	movl	%r14d, %esi
100001bd2:	48 99 	cqto
100001bd4:	4c 89 c1 	movq	%r8, %rcx
100001bd7:	49 f7 f9 	idivq	%r9
100001bda:	4c 89 fa 	movq	%r15, %rdx
100001bdd:	45 89 c8 	movl	%r9d, %r8d
100001be0:	41 89 c1 	movl	%eax, %r9d
100001be3:	33 c0 	xorl	%eax, %eax
100001be5:	4c 8b 6c 24 30 	movq	48(%rsp), %r13
100001bea:	e8 9d 48 00 00 	callq	18589
100001bef:	8b 44 24 10 	movl	16(%rsp), %eax
100001bf3:	45 33 e4 	xorl	%r12d, %r12d
100001bf6:	44 89 74 24 08 	movl	%r14d, 8(%rsp)
100001bfb:	45 33 ff 	xorl	%r15d, %r15d
100001bfe:	4c 89 6c 24 30 	movq	%r13, 48(%rsp)
100001c03:	45 33 c0 	xorl	%r8d, %r8d
100001c06:	4c 8b 74 24 20 	movq	32(%rsp), %r14
100001c0b:	44 8d 48 07 	leal	7(%rax), %r9d
100001c0f:	41 c1 e9 03 	shrl	$3, %r9d
100001c13:	41 89 c5 	movl	%eax, %r13d
100001c16:	48 8d 7c 24 28 	leaq	40(%rsp), %rdi
100001c1b:	41 ff c0 	incl	%r8d
100001c1e:	0f 01 f9 	rdtscp
100001c21:	48 c1 e2 20 	shlq	$32, %rdx
100001c25:	48 0b c2 	orq	%rdx, %rax
100001c28:	89 0f 	movl	%ecx, (%rdi)
100001c2a:	48 89 c6 	movq	%rax, %rsi
100001c2d:	45 85 ed 	testl	%r13d, %r13d
100001c30:	0f 86 bd 00 00 00 	jbe	189 <_test_routines+0x613>
100001c36:	4c 8b 54 24 30 	movq	48(%rsp), %r10
100001c3b:	33 c0 	xorl	%eax, %eax
100001c3d:	8d 3c c5 00 00 00 00 	leal	(,%rax,8), %edi
100001c44:	ff c0 	incl	%eax
100001c46:	48 63 ff 	movslq	%edi, %rdi
100001c49:	48 c1 e7 04 	shlq	$4, %rdi
100001c4d:	c4 c1 7a 6f 04 3a 	vmovdqu	(%r10,%rdi), %xmm0
100001c53:	c4 c1 7a 6f 54 3a 10 	vmovdqu	16(%r10,%rdi), %xmm2
100001c5a:	c4 c1 7a 6f 64 3a 20 	vmovdqu	32(%r10,%rdi), %xmm4
100001c61:	c4 c1 7a 6f 74 3a 30 	vmovdqu	48(%r10,%rdi), %xmm6
100001c68:	c4 41 7a 6f 44 3a 40 	vmovdqu	64(%r10,%rdi), %xmm8
100001c6f:	c4 41 7a 6f 54 3a 50 	vmovdqu	80(%r10,%rdi), %xmm10
100001c76:	c4 41 7a 6f 64 3a 60 	vmovdqu	96(%r10,%rdi), %xmm12
100001c7d:	c4 41 7a 6f 74 3a 70 	vmovdqu	112(%r10,%rdi), %xmm14
100001c84:	c5 f9 d5 0c 3b 	vpmullw	(%rbx,%rdi), %xmm0, %xmm1
100001c89:	c5 e9 d5 5c 3b 10 	vpmullw	16(%rbx,%rdi), %xmm2, %xmm3
100001c8f:	c5 d9 d5 6c 3b 20 	vpmullw	32(%rbx,%rdi), %xmm4, %xmm5
100001c95:	c5 c9 d5 7c 3b 30 	vpmullw	48(%rbx,%rdi), %xmm6, %xmm7
100001c9b:	c5 39 d5 4c 3b 40 	vpmullw	64(%rbx,%rdi), %xmm8, %xmm9
100001ca1:	c5 29 d5 5c 3b 50 	vpmullw	80(%rbx,%rdi), %xmm10, %xmm11
100001ca7:	c5 19 d5 6c 3b 60 	vpmullw	96(%rbx,%rdi), %xmm12, %xmm13
100001cad:	c5 09 d5 7c 3b 70 	vpmullw	112(%rbx,%rdi), %xmm14, %xmm15
100001cb3:	c4 c1 7a 7f 0c 3e 	vmovdqu	%xmm1, (%r14,%rdi)
100001cb9:	c4 c1 7a 7f 5c 3e 10 	vmovdqu	%xmm3, 16(%r14,%rdi)
100001cc0:	c4 c1 7a 7f 6c 3e 20 	vmovdqu	%xmm5, 32(%r14,%rdi)
100001cc7:	c4 c1 7a 7f 7c 3e 30 	vmovdqu	%xmm7, 48(%r14,%rdi)
100001cce:	c4 41 7a 7f 4c 3e 40 	vmovdqu	%xmm9, 64(%r14,%rdi)
100001cd5:	c4 41 7a 7f 5c 3e 50 	vmovdqu	%xmm11, 80(%r14,%rdi)
100001cdc:	c4 41 7a 7f 6c 3e 60 	vmovdqu	%xmm13, 96(%r14,%rdi)
100001ce3:	c4 41 7a 7f 7c 3e 70 	vmovdqu	%xmm15, 112(%r14,%rdi)
100001cea:	41 3b c1 	cmpl	%r9d, %eax
100001ced:	0f 8c 4a ff ff ff 	jl	-182 <_test_routines+0x55D>
100001cf3:	48 8d 7c 24 2c 	leaq	44(%rsp), %rdi
100001cf8:	0f 01 f9 	rdtscp
100001cfb:	48 c1 e2 20 	shlq	$32, %rdx
100001cff:	48 0b c2 	orq	%rdx, %rax
100001d02:	89 0f 	movl	%ecx, (%rdi)
100001d04:	48 2b c6 	subq	%rsi, %rax
100001d07:	49 3b c7 	cmpq	%r15, %rax
100001d0a:	4c 0f 4f f8 	cmovgq	%rax, %r15
100001d0e:	4c 03 e0 	addq	%rax, %r12
100001d11:	41 81 f8 a0 86 01 00 	cmpl	$100000, %r8d
100001d18:	0f 82 f8 fe ff ff 	jb	-264 <_test_routines+0x536>
100001d1e:	4c 89 e0 	movq	%r12, %rax
100001d21:	48 8d 3d 58 48 00 00 	leaq	18520(%rip), %rdi
100001d28:	4c 89 f9 	movq	%r15, %rcx
100001d2b:	48 99 	cqto
100001d2d:	49 f7 f8 	idivq	%r8
100001d30:	44 8b 74 24 08 	movl	8(%rsp), %r14d
100001d35:	44 89 f6 	movl	%r14d, %esi
100001d38:	4c 89 e2 	movq	%r12, %rdx
100001d3b:	41 89 c1 	movl	%eax, %r9d
100001d3e:	33 c0 	xorl	%eax, %eax
100001d40:	4c 8b 6c 24 30 	movq	48(%rsp), %r13
100001d45:	e8 42 47 00 00 	callq	18242
100001d4a:	8b 04 24 	movl	(%rsp), %eax
100001d4d:	45 33 ff 	xorl	%r15d, %r15d
100001d50:	44 89 74 24 08 	movl	%r14d, 8(%rsp)
100001d55:	45 33 e4 	xorl	%r12d, %r12d
100001d58:	4c 89 6c 24 30 	movq	%r13, 48(%rsp)
100001d5d:	45 33 c0 	xorl	%r8d, %r8d
100001d60:	4c 8b 74 24 18 	movq	24(%rsp), %r14
100001d65:	44 8d 48 07 	leal	7(%rax), %r9d
100001d69:	41 c1 e9 03 	shrl	$3, %r9d
100001d6d:	41 89 c5 	movl	%eax, %r13d
100001d70:	48 8d 7c 24 10 	leaq	16(%rsp), %rdi
100001d75:	41 ff c0 	incl	%r8d
100001d78:	0f 01 f9 	rdtscp
100001d7b:	48 c1 e2 20 	shlq	$32, %rdx
100001d7f:	48 0b c2 	orq	%rdx, %rax
100001d82:	89 0f 	movl	%ecx, (%rdi)
100001d84:	48 89 c6 	movq	%rax, %rsi
100001d87:	45 85 ed 	testl	%r13d, %r13d
100001d8a:	0f 86 e1 00 00 00 	jbe	225 <_test_routines+0x791>
100001d90:	4c 8b 54 24 30 	movq	48(%rsp), %r10
100001d95:	33 c0 	xorl	%eax, %eax
100001d97:	8d 3c c5 00 00 00 00 	leal	(,%rax,8), %edi
100001d9e:	ff c0 	incl	%eax
100001da0:	48 63 ff 	movslq	%edi, %rdi
100001da3:	48 c1 e7 05 	shlq	$5, %rdi
100001da7:	c4 c1 7e 6f 04 3a 	vmovdqu	(%r10,%rdi), %ymm0
100001dad:	c4 c1 7e 6f 54 3a 20 	vmovdqu	32(%r10,%rdi), %ymm2
100001db4:	c4 c1 7e 6f 64 3a 40 	vmovdqu	64(%r10,%rdi), %ymm4
100001dbb:	c4 c1 7e 6f 74 3a 60 	vmovdqu	96(%r10,%rdi), %ymm6
100001dc2:	c4 41 7e 6f 84 3a 80 00 00 00 	vmovdqu	128(%r10,%rdi), %ymm8
100001dcc:	c4 41 7e 6f 94 3a a0 00 00 00 	vmovdqu	160(%r10,%rdi), %ymm10
100001dd6:	c4 41 7e 6f a4 3a c0 00 00 00 	vmovdqu	192(%r10,%rdi), %ymm12
100001de0:	c4 41 7e 6f b4 3a e0 00 00 00 	vmovdqu	224(%r10,%rdi), %ymm14
100001dea:	c5 fd d5 0c 3b 	vpmullw	(%rbx,%rdi), %ymm0, %ymm1
100001def:	c5 ed d5 5c 3b 20 	vpmullw	32(%rbx,%rdi), %ymm2, %ymm3
100001df5:	c5 dd d5 6c 3b 40 	vpmullw	64(%rbx,%rdi), %ymm4, %ymm5
100001dfb:	c5 cd d5 7c 3b 60 	vpmullw	96(%rbx,%rdi), %ymm6, %ymm7
100001e01:	c5 3d d5 8c 3b 80 00 00 00 	vpmullw	128(%rbx,%rdi), %ymm8, %ymm9
100001e0a:	c5 2d d5 9c 3b a0 00 00 00 	vpmullw	160(%rbx,%rdi), %ymm10, %ymm11
100001e13:	c5 1d d5 ac 3b c0 00 00 00 	vpmullw	192(%rbx,%rdi), %ymm12, %ymm13
100001e1c:	c5 0d d5 bc 3b e0 00 00 00 	vpmullw	224(%rbx,%rdi), %ymm14, %ymm15
100001e25:	c4 c1 7e 7f 0c 3e 	vmovdqu	%ymm1, (%r14,%rdi)
100001e2b:	c4 c1 7e 7f 5c 3e 20 	vmovdqu	%ymm3, 32(%r14,%rdi)
100001e32:	c4 c1 7e 7f 6c 3e 40 	vmovdqu	%ymm5, 64(%r14,%rdi)
100001e39:	c4 c1 7e 7f 7c 3e 60 	vmovdqu	%ymm7, 96(%r14,%rdi)
100001e40:	c4 41 7e 7f 8c 3e 80 00 00 00 	vmovdqu	%ymm9, 128(%r14,%rdi)
100001e4a:	c4 41 7e 7f 9c 3e a0 00 00 00 	vmovdqu	%ymm11, 160(%r14,%rdi)
100001e54:	c4 41 7e 7f ac 3e c0 00 00 00 	vmovdqu	%ymm13, 192(%r14,%rdi)
100001e5e:	c4 41 7e 7f bc 3e e0 00 00 00 	vmovdqu	%ymm15, 224(%r14,%rdi)
100001e68:	41 3b c1 	cmpl	%r9d, %eax
100001e6b:	0f 8c 26 ff ff ff 	jl	-218 <_test_routines+0x6B7>
100001e71:	c5 f8 77 	vzeroupper
100001e74:	48 8d 7c 24 14 	leaq	20(%rsp), %rdi
100001e79:	0f 01 f9 	rdtscp
100001e7c:	48 c1 e2 20 	shlq	$32, %rdx
100001e80:	48 0b c2 	orq	%rdx, %rax
100001e83:	89 0f 	movl	%ecx, (%rdi)
100001e85:	48 2b c6 	subq	%rsi, %rax
100001e88:	49 3b c4 	cmpq	%r12, %rax
100001e8b:	4c 0f 4f e0 	cmovgq	%rax, %r12
100001e8f:	4c 03 f8 	addq	%rax, %r15
100001e92:	41 81 f8 a0 86 01 00 	cmpl	$100000, %r8d
100001e99:	0f 82 d1 fe ff ff 	jb	-303 <_test_routines+0x690>
100001e9f:	4c 89 f8 	movq	%r15, %rax
100001ea2:	48 8d 3d f7 46 00 00 	leaq	18167(%rip), %rdi
100001ea9:	4c 89 e1 	movq	%r12, %rcx
100001eac:	48 99 	cqto
100001eae:	49 f7 f8 	idivq	%r8
100001eb1:	44 8b 74 24 08 	movl	8(%rsp), %r14d
100001eb6:	44 89 f6 	movl	%r14d, %esi
100001eb9:	4c 89 fa 	movq	%r15, %rdx
100001ebc:	41 89 c1 	movl	%eax, %r9d
100001ebf:	33 c0 	xorl	%eax, %eax
100001ec1:	e8 c6 45 00 00 	callq	17862
100001ec6:	33 c0 	xorl	%eax, %eax
100001ec8:	48 83 c4 58 	addq	$88, %rsp
100001ecc:	5b 	popq	%rbx
100001ecd:	41 5f 	popq	%r15
100001ecf:	41 5e 	popq	%r14
100001ed1:	41 5d 	popq	%r13
100001ed3:	41 5c 	popq	%r12
100001ed5:	48 89 ec 	movq	%rbp, %rsp
100001ed8:	5d 	popq	%rbp
100001ed9:	c3 	retq
100001eda:	33 ff 	xorl	%edi, %edi
100001edc:	e9 5a fc ff ff 	jmp	-934 <_test_routines+0x45B>
100001ee1:	44 89 d7 	movl	%r10d, %edi
100001ee4:	33 c0 	xorl	%eax, %eax
100001ee6:	83 e7 f0 	andl	$-16, %edi
100001ee9:	48 63 ff 	movslq	%edi, %rdi
100001eec:	e9 2f fc ff ff 	jmp	-977 <_test_routines+0x440>
100001ef1:	45 33 ff 	xorl	%r15d, %r15d
100001ef4:	48 8d 7c 24 38 	leaq	56(%rsp), %rdi
100001ef9:	45 33 c0 	xorl	%r8d, %r8d
100001efc:	41 b9 01 00 00 00 	movl	$1, %r9d
100001f02:	c5 f8 77 	vzeroupper
100001f05:	0f 01 f9 	rdtscp
100001f08:	48 c1 e2 20 	shlq	$32, %rdx
100001f0c:	48 0b c2 	orq	%rdx, %rax
100001f0f:	89 0f 	movl	%ecx, (%rdi)
100001f11:	be 01 00 00 00 	movl	$1, %esi
100001f16:	89 74 24 28 	movl	%esi, 40(%rsp)
100001f1a:	48 89 c6 	movq	%rax, %rsi
100001f1d:	e9 3a fc ff ff 	jmp	-966 <_test_routines+0x47C>
100001f22:	44 89 f0 	movl	%r14d, %eax
100001f25:	c1 e8 04 	shrl	$4, %eax
100001f28:	89 04 24 	movl	%eax, (%rsp)
100001f2b:	85 c0 	testl	%eax, %eax
100001f2d:	0f 87 1f fa ff ff 	ja	-1505 <_test_routines+0x272>
100001f33:	e9 fe fa ff ff 	jmp	-1282 <_test_routines+0x356>
100001f38:	33 ff 	xorl	%edi, %edi
100001f3a:	e9 20 f9 ff ff 	jmp	-1760 <_test_routines+0x17F>
100001f3f:	89 d7 	movl	%edx, %edi
100001f41:	33 c0 	xorl	%eax, %eax
100001f43:	83 e7 f0 	andl	$-16, %edi
100001f46:	48 63 ff 	movslq	%edi, %rdi
100001f49:	e9 f6 f8 ff ff 	jmp	-1802 <_test_routines+0x164>
100001f4e:	44 89 f0 	movl	%r14d, %eax
100001f51:	c1 e8 03 	shrl	$3, %eax
100001f54:	89 44 24 10 	movl	%eax, 16(%rsp)
100001f58:	85 c0 	testl	%eax, %eax
100001f5a:	0f 87 30 f9 ff ff 	ja	-1744 <_test_routines+0x1B0>
100001f60:	44 89 f0 	movl	%r14d, %eax
100001f63:	c1 e8 04 	shrl	$4, %eax
100001f66:	89 04 24 	movl	%eax, (%rsp)
100001f69:	85 c0 	testl	%eax, %eax
100001f6b:	0f 87 e1 f9 ff ff 	ja	-1567 <_test_routines+0x272>
100001f71:	e9 7b ff ff ff 	jmp	-133 <_test_routines+0x811>
100001f76:	c5 f8 77 	vzeroupper
100001f79:	b8 ff ff ff ff 	movl	$4294967295, %eax
100001f7e:	48 83 c4 58 	addq	$88, %rsp
100001f82:	5b 	popq	%rbx
100001f83:	41 5f 	popq	%r15
100001f85:	41 5e 	popq	%r14
100001f87:	41 5d 	popq	%r13
100001f89:	41 5c 	popq	%r12
100001f8b:	48 89 ec 	movq	%rbp, %rsp
100001f8e:	5d 	popq	%rbp
100001f8f:	c3 	retq
100001f90:	b8 ff ff ff ff 	movl	$4294967295, %eax
100001f95:	48 83 c4 58 	addq	$88, %rsp
100001f99:	5b 	popq	%rbx
100001f9a:	41 5f 	popq	%r15
100001f9c:	41 5e 	popq	%r14
100001f9e:	41 5d 	popq	%r13
100001fa0:	41 5c 	popq	%r12
100001fa2:	48 89 ec 	movq	%rbp, %rsp
100001fa5:	5d 	popq	%rbp
100001fa6:	c3 	retq
100001fa7:	66 0f 1f 84 00 00 00 00 00 	nopw	(%rax,%rax)
100001fb0:	90 	nop
100001fb1:	90 	nop
100001fb2:	90 	nop
100001fb3:	90 	nop
100001fb4:	90 	nop
100001fb5:	90 	nop
100001fb6:	90 	nop
100001fb7:	90 	nop
100001fb8:	90 	nop
100001fb9:	90 	nop
100001fba:	90 	nop
100001fbb:	90 	nop
100001fbc:	90 	nop
100001fbd:	90 	nop
100001fbe:	90 	nop
100001fbf:	90 	nop
100001fc0:	41 54 	pushq	%r12
100001fc2:	41 55 	pushq	%r13
100001fc4:	41 56 	pushq	%r14
100001fc6:	48 81 ec 50 01 00 00 	subq	$336, %rsp
100001fcd:	48 89 94 24 90 00 00 00 	movq	%rdx, 144(%rsp)
100001fd5:	48 89 8c 24 98 00 00 00 	movq	%rcx, 152(%rsp)
100001fdd:	4c 89 84 24 a0 00 00 00 	movq	%r8, 160(%rsp)
100001fe5:	4c 89 8c 24 a8 00 00 00 	movq	%r9, 168(%rsp)
100001fed:	44 0f b6 d8 	movzbl	%al, %r11d
100001ff1:	4a 8d 04 9d 00 00 00 00 	leaq	(,%r11,4), %rax
100001ff9:	4c 8d 1d 2e 00 00 00 	leaq	46(%rip), %r11
100002000:	4c 2b d8 	subq	%rax, %r11
100002003:	48 8d 84 24 2f 01 00 00 	leaq	303(%rsp), %rax
10000200b:	41 ff e3 	jmpq	*%r11
10000200e:	0f 29 78 f1 	movaps	%xmm7, -15(%rax)
100002012:	0f 29 70 e1 	movaps	%xmm6, -31(%rax)
100002016:	0f 29 68 d1 	movaps	%xmm5, -47(%rax)
10000201a:	0f 29 60 c1 	movaps	%xmm4, -63(%rax)
10000201e:	0f 29 58 b1 	movaps	%xmm3, -79(%rax)
100002022:	0f 29 50 a1 	movaps	%xmm2, -95(%rax)
100002026:	0f 29 48 91 	movaps	%xmm1, -111(%rax)
10000202a:	0f 29 40 81 	movaps	%xmm0, -127(%rax)
10000202e:	41 89 fd 	movl	%edi, %r13d
100002031:	41 89 f6 	movl	%esi, %r14d
100002034:	45 85 ed 	testl	%r13d, %r13d
100002037:	0f 84 87 00 00 00 	je	135 <___libirc_get_msg+0x104>
10000203d:	83 3d 2c 69 00 00 00 	cmpl	$0, 26924(%rip)
100002044:	74 5b 	je	91 <___libirc_get_msg+0xE1>
100002046:	48 8d 3d eb 4b 00 00 	leaq	19435(%rip), %rdi
10000204d:	33 f6 	xorl	%esi, %esi
10000204f:	c7 05 17 69 00 00 00 00 00 00 	movl	$0, 26903(%rip)
100002059:	e8 0a 44 00 00 	callq	17418
10000205e:	48 89 05 bb 6e 00 00 	movq	%rax, 28347(%rip)
100002065:	48 83 f8 ff 	cmpq	$-1, %rax
100002069:	0f 84 d6 00 00 00 	je	214 <___libirc_get_msg+0x185>
10000206f:	48 8b 3d aa 6e 00 00 	movq	28330(%rip), %rdi
100002076:	c7 05 f4 68 00 00 00 00 00 00 	movl	$0, 26868(%rip)
100002080:	49 63 c5 	movslq	%r13d, %rax
100002083:	4c 8d 05 1e 65 00 00 	leaq	25886(%rip), %r8
10000208a:	48 c1 e0 04 	shlq	$4, %rax
10000208e:	be 01 00 00 00 	movl	$1, %esi
100002093:	44 89 ea 	movl	%r13d, %edx
100002096:	4a 8b 0c 00 	movq	(%rax,%r8), %rcx
10000209a:	e8 c3 43 00 00 	callq	17347
10000209f:	eb 2a 	jmp	42 <___libirc_get_msg+0x10B>
1000020a1:	8b 05 cd 68 00 00 	movl	26829(%rip), %eax
1000020a7:	85 c0 	testl	%eax, %eax
1000020a9:	0f 84 8e 01 00 00 	je	398 <___libirc_get_msg+0x27D>
1000020af:	4d 63 ed 	movslq	%r13d, %r13
1000020b2:	48 8d 05 ef 64 00 00 	leaq	25839(%rip), %rax
1000020b9:	49 c1 e5 04 	shlq	$4, %r13
1000020bd:	49 8b 44 05 00 	movq	(%r13,%rax), %rax
1000020c2:	eb 07 	jmp	7 <___libirc_get_msg+0x10B>
1000020c4:	48 8d 05 65 45 00 00 	leaq	17765(%rip), %rax
1000020cb:	45 85 f6 	testl	%r14d, %r14d
1000020ce:	7e 67 	jle	103 <___libirc_get_msg+0x177>
1000020d0:	c7 84 24 30 01 00 00 10 00 00 00 	movl	$16, 304(%rsp)
1000020db:	48 8d 94 24 70 01 00 00 	leaq	368(%rsp), %rdx
1000020e3:	c7 84 24 34 01 00 00 30 00 00 00 	movl	$48, 308(%rsp)
1000020ee:	48 8d b4 24 80 00 00 00 	leaq	128(%rsp), %rsi
1000020f6:	48 89 96 b8 00 00 00 	movq	%rdx, 184(%rsi)
1000020fd:	48 89 b6 c0 00 00 00 	movq	%rsi, 192(%rsi)
100002104:	48 8d 3d 15 6a 00 00 	leaq	27157(%rip), %rdi
10000210b:	33 f6 	xorl	%esi, %esi
10000210d:	ba 00 02 00 00 	movl	$512, %edx
100002112:	48 89 c1 	movq	%rax, %rcx
100002115:	4c 8d 84 24 30 01 00 00 	leaq	304(%rsp), %r8
10000211d:	e8 3a 43 00 00 	callq	17210
100002122:	48 8d 05 f7 69 00 00 	leaq	27127(%rip), %rax
100002129:	48 81 c4 50 01 00 00 	addq	$336, %rsp
100002130:	41 5e 	popq	%r14
100002132:	41 5d 	popq	%r13
100002134:	41 5c 	popq	%r12
100002136:	c3 	retq
100002137:	48 81 c4 50 01 00 00 	addq	$336, %rsp
10000213e:	41 5e 	popq	%r14
100002140:	41 5d 	popq	%r13
100002142:	41 5c 	popq	%r12
100002144:	c3 	retq
100002145:	48 8d 3d 94 50 00 00 	leaq	20628(%rip), %rdi
10000214c:	e8 2f 43 00 00 	callq	17199
100002151:	48 85 c0 	testq	%rax, %rax
100002154:	0f 84 47 ff ff ff 	je	-185 <___libirc_get_msg+0xE1>
10000215a:	48 89 c6 	movq	%rax, %rsi
10000215d:	48 8d 3c 24 	leaq	(%rsp), %rdi
100002161:	41 b8 80 00 00 00 	movl	$128, %r8d
100002167:	e8 84 0e 00 00 	callq	3716 <___intel_ssse3_strncpy>
10000216c:	41 bb 2e 00 00 00 	movl	$46, %r11d
100002172:	48 8d 04 24 	leaq	(%rsp), %rax
100002176:	48 89 c1 	movq	%rax, %rcx
100002179:	83 e1 0f 	andl	$15, %ecx
10000217c:	48 83 e0 f0 	andq	$-16, %rax
100002180:	66 0f ef d2 	pxor	%xmm2, %xmm2
100002184:	66 41 0f 6e cb 	movd	%r11d, %xmm1
100002189:	66 0f 38 00 ca 	pshufb	%xmm2, %xmm1
10000218e:	66 0f 6f 00 	movdqa	(%rax), %xmm0
100002192:	66 0f 74 d0 	pcmpeqb	%xmm0, %xmm2
100002196:	66 0f 74 c1 	pcmpeqb	%xmm1, %xmm0
10000219a:	66 44 0f d7 d8 	pmovmskb	%xmm0, %r11d
10000219f:	66 44 0f d7 d2 	pmovmskb	%xmm2, %r10d
1000021a4:	41 d3 eb 	shrl	%cl, %r11d
1000021a7:	41 d3 ea 	shrl	%cl, %r10d
1000021aa:	45 85 db 	testl	%r11d, %r11d
1000021ad:	75 07 	jne	7 <___libirc_get_msg+0x1F6>
1000021af:	45 85 d2 	testl	%r10d, %r10d
1000021b2:	74 1d 	je	29 <___libirc_get_msg+0x211>
1000021b4:	eb 17 	jmp	23 <___libirc_get_msg+0x20D>
1000021b6:	45 0f bc db 	bsfl	%r11d, %r11d
1000021ba:	45 0f bc d2 	bsfl	%r10d, %r10d
1000021be:	74 05 	je	5 <___libirc_get_msg+0x205>
1000021c0:	45 3b da 	cmpl	%r10d, %r11d
1000021c3:	7f 08 	jg	8 <___libirc_get_msg+0x20D>
1000021c5:	48 03 c1 	addq	%rcx, %rax
1000021c8:	49 03 c3 	addq	%r11, %rax
1000021cb:	eb 09 	jmp	9 <___libirc_get_msg+0x216>
1000021cd:	33 c0 	xorl	%eax, %eax
1000021cf:	eb 05 	jmp	5 <___libirc_get_msg+0x216>
1000021d1:	e8 ca 0d 00 00 	callq	3530 <___intel_sse2_strchr>
1000021d6:	49 89 c4 	movq	%rax, %r12
1000021d9:	4d 85 e4 	testq	%r12, %r12
1000021dc:	74 49 	je	73 <___libirc_get_msg+0x267>
1000021de:	48 8d 3d fb 4f 00 00 	leaq	20475(%rip), %rdi
1000021e5:	48 8d 34 24 	leaq	(%rsp), %rsi
1000021e9:	ba 01 00 00 00 	movl	$1, %edx
1000021ee:	41 c6 04 24 00 	movb	$0, (%r12)
1000021f3:	e8 a6 42 00 00 	callq	17062
1000021f8:	48 8d 3d 39 4a 00 00 	leaq	19001(%rip), %rdi
1000021ff:	33 f6 	xorl	%esi, %esi
100002201:	e8 62 42 00 00 	callq	16994
100002206:	48 8d 3d d3 4f 00 00 	leaq	20435(%rip), %rdi
10000220d:	48 8d 34 24 	leaq	(%rsp), %rsi
100002211:	ba 01 00 00 00 	movl	$1, %edx
100002216:	48 89 05 03 6d 00 00 	movq	%rax, 27907(%rip)
10000221d:	41 c6 04 24 2e 	movb	$46, (%r12)
100002222:	e8 77 42 00 00 	callq	17015
100002227:	48 8b 3d f2 6c 00 00 	movq	27890(%rip), %rdi
10000222e:	48 83 ff ff 	cmpq	$-1, %rdi
100002232:	0f 85 3e fe ff ff 	jne	-450 <___libirc_get_msg+0xB6>
100002238:	e9 64 fe ff ff 	jmp	-412 <___libirc_get_msg+0xE1>
10000223d:	48 8b 3d dc 6c 00 00 	movq	27868(%rip), %rdi
100002244:	e9 37 fe ff ff 	jmp	-457 <___libirc_get_msg+0xC0>
100002249:	0f 1f 80 00 00 00 00 	nopl	(%rax)
100002250:	41 54 	pushq	%r12
100002252:	41 55 	pushq	%r13
100002254:	53 	pushq	%rbx
100002255:	55 	pushq	%rbp
100002256:	48 81 ec 48 01 00 00 	subq	$328, %rsp
10000225d:	48 89 8c 24 98 00 00 00 	movq	%rcx, 152(%rsp)
100002265:	4c 89 84 24 a0 00 00 00 	movq	%r8, 160(%rsp)
10000226d:	4c 89 8c 24 a8 00 00 00 	movq	%r9, 168(%rsp)
100002275:	44 0f b6 d8 	movzbl	%al, %r11d
100002279:	4a 8d 04 9d 00 00 00 00 	leaq	(,%r11,4), %rax
100002281:	4c 8d 1d 2e 00 00 00 	leaq	46(%rip), %r11
100002288:	4c 2b d8 	subq	%rax, %r11
10000228b:	48 8d 84 24 2f 01 00 00 	leaq	303(%rsp), %rax
100002293:	41 ff e3 	jmpq	*%r11
100002296:	0f 29 78 f1 	movaps	%xmm7, -15(%rax)
10000229a:	0f 29 70 e1 	movaps	%xmm6, -31(%rax)
10000229e:	0f 29 68 d1 	movaps	%xmm5, -47(%rax)
1000022a2:	0f 29 60 c1 	movaps	%xmm4, -63(%rax)
1000022a6:	0f 29 58 b1 	movaps	%xmm3, -79(%rax)
1000022aa:	0f 29 50 a1 	movaps	%xmm2, -95(%rax)
1000022ae:	0f 29 48 91 	movaps	%xmm1, -111(%rax)
1000022b2:	0f 29 40 81 	movaps	%xmm0, -127(%rax)
1000022b6:	41 89 f4 	movl	%esi, %r12d
1000022b9:	41 89 d5 	movl	%edx, %r13d
1000022bc:	89 fd 	movl	%edi, %ebp
1000022be:	45 85 e4 	testl	%r12d, %r12d
1000022c1:	75 21 	jne	33 <___libirc_print+0x94>
1000022c3:	83 fd 01 	cmpl	$1, %ebp
1000022c6:	0f 84 27 01 00 00 	je	295 <___libirc_print+0x1A3>
1000022cc:	bf 0a 00 00 00 	movl	$10, %edi
1000022d1:	e8 bc 41 00 00 	callq	16828
1000022d6:	48 81 c4 48 01 00 00 	addq	$328, %rsp
1000022dd:	5d 	popq	%rbp
1000022de:	5b 	popq	%rbx
1000022df:	41 5d 	popq	%r13
1000022e1:	41 5c 	popq	%r12
1000022e3:	c3 	retq
1000022e4:	83 3d 85 66 00 00 00 	cmpl	$0, 26245(%rip)
1000022eb:	74 3c 	je	60 <___libirc_print+0xD9>
1000022ed:	48 8d 3d 44 49 00 00 	leaq	18756(%rip), %rdi
1000022f4:	33 f6 	xorl	%esi, %esi
1000022f6:	c7 05 70 66 00 00 00 00 00 00 	movl	$0, 26224(%rip)
100002300:	e8 63 41 00 00 	callq	16739
100002305:	48 89 05 14 6c 00 00 	movq	%rax, 27668(%rip)
10000230c:	48 83 f8 ff 	cmpq	$-1, %rax
100002310:	0f 84 ff 00 00 00 	je	255 <___libirc_print+0x1C5>
100002316:	48 8b 3d 03 6c 00 00 	movq	27651(%rip), %rdi
10000231d:	c7 05 4d 66 00 00 00 00 00 00 	movl	$0, 26189(%rip)
100002327:	eb 22 	jmp	34 <___libirc_print+0xFB>
100002329:	8b 05 45 66 00 00 	movl	26181(%rip), %eax
10000232f:	85 c0 	testl	%eax, %eax
100002331:	0f 84 01 02 00 00 	je	513 <___libirc_print+0x2E8>
100002337:	4d 63 e4 	movslq	%r12d, %r12
10000233a:	48 8d 05 67 62 00 00 	leaq	25191(%rip), %rax
100002341:	49 c1 e4 04 	shlq	$4, %r12
100002345:	49 8b 0c 04 	movq	(%r12,%rax), %rcx
100002349:	eb 22 	jmp	34 <___libirc_print+0x11D>
10000234b:	49 63 c4 	movslq	%r12d, %rax
10000234e:	48 8d 1d 53 62 00 00 	leaq	25171(%rip), %rbx
100002355:	48 c1 e0 04 	shlq	$4, %rax
100002359:	be 01 00 00 00 	movl	$1, %esi
10000235e:	44 89 e2 	movl	%r12d, %edx
100002361:	48 8b 0c 18 	movq	(%rax,%rbx), %rcx
100002365:	e8 f8 40 00 00 	callq	16632
10000236a:	48 89 c1 	movq	%rax, %rcx
10000236d:	45 85 ed 	testl	%r13d, %r13d
100002370:	7e 56 	jle	86 <___libirc_print+0x178>
100002372:	c7 84 24 30 01 00 00 18 00 00 00 	movl	$24, 304(%rsp)
10000237d:	48 8d 84 24 70 01 00 00 	leaq	368(%rsp), %rax
100002385:	c7 84 24 34 01 00 00 30 00 00 00 	movl	$48, 308(%rsp)
100002390:	48 8d 94 24 80 00 00 00 	leaq	128(%rsp), %rdx
100002398:	48 89 82 b8 00 00 00 	movq	%rax, 184(%rdx)
10000239f:	48 89 92 c0 00 00 00 	movq	%rdx, 192(%rdx)
1000023a6:	48 8d 3d 73 69 00 00 	leaq	26995(%rip), %rdi
1000023ad:	33 f6 	xorl	%esi, %esi
1000023af:	ba 00 02 00 00 	movl	$512, %edx
1000023b4:	4c 8d 84 24 30 01 00 00 	leaq	304(%rsp), %r8
1000023bc:	e8 9b 40 00 00 	callq	16539
1000023c1:	48 8d 0d 58 69 00 00 	leaq	26968(%rip), %rcx
1000023c8:	83 fd 01 	cmpl	$1, %ebp
1000023cb:	0f 84 38 01 00 00 	je	312 <___libirc_print+0x2B9>
1000023d1:	48 89 cf 	movq	%rcx, %rdi
1000023d4:	33 c0 	xorl	%eax, %eax
1000023d6:	e8 b1 40 00 00 	callq	16561
1000023db:	bf 0a 00 00 00 	movl	$10, %edi
1000023e0:	e8 ad 40 00 00 	callq	16557
1000023e5:	48 81 c4 48 01 00 00 	addq	$328, %rsp
1000023ec:	5d 	popq	%rbp
1000023ed:	5b 	popq	%rbx
1000023ee:	41 5d 	popq	%r13
1000023f0:	41 5c 	popq	%r12
1000023f2:	c3 	retq
1000023f3:	48 8b 05 06 5c 00 00 	movq	23558(%rip), %rax
1000023fa:	bf 0a 00 00 00 	movl	$10, %edi
1000023ff:	48 8b 30 	movq	(%rax), %rsi
100002402:	e8 73 40 00 00 	callq	16499
100002407:	48 81 c4 48 01 00 00 	addq	$328, %rsp
10000240e:	5d 	popq	%rbp
10000240f:	5b 	popq	%rbx
100002410:	41 5d 	popq	%r13
100002412:	41 5c 	popq	%r12
100002414:	c3 	retq
100002415:	48 8d 3d c4 4d 00 00 	leaq	19908(%rip), %rdi
10000241c:	e8 5f 40 00 00 	callq	16479
100002421:	48 85 c0 	testq	%rax, %rax
100002424:	0f 84 ff fe ff ff 	je	-257 <___libirc_print+0xD9>
10000242a:	48 89 c6 	movq	%rax, %rsi
10000242d:	48 8d 3c 24 	leaq	(%rsp), %rdi
100002431:	41 b8 80 00 00 00 	movl	$128, %r8d
100002437:	e8 b4 0b 00 00 	callq	2996 <___intel_ssse3_strncpy>
10000243c:	41 bb 2e 00 00 00 	movl	$46, %r11d
100002442:	48 8d 04 24 	leaq	(%rsp), %rax
100002446:	48 89 c1 	movq	%rax, %rcx
100002449:	83 e1 0f 	andl	$15, %ecx
10000244c:	48 83 e0 f0 	andq	$-16, %rax
100002450:	66 0f ef d2 	pxor	%xmm2, %xmm2
100002454:	66 41 0f 6e cb 	movd	%r11d, %xmm1
100002459:	66 0f 38 00 ca 	pshufb	%xmm2, %xmm1
10000245e:	66 0f 6f 00 	movdqa	(%rax), %xmm0
100002462:	66 0f 74 d0 	pcmpeqb	%xmm0, %xmm2
100002466:	66 0f 74 c1 	pcmpeqb	%xmm1, %xmm0
10000246a:	66 44 0f d7 d8 	pmovmskb	%xmm0, %r11d
10000246f:	66 44 0f d7 d2 	pmovmskb	%xmm2, %r10d
100002474:	41 d3 eb 	shrl	%cl, %r11d
100002477:	41 d3 ea 	shrl	%cl, %r10d
10000247a:	45 85 db 	testl	%r11d, %r11d
10000247d:	75 07 	jne	7 <___libirc_print+0x236>
10000247f:	45 85 d2 	testl	%r10d, %r10d
100002482:	74 1d 	je	29 <___libirc_print+0x251>
100002484:	eb 17 	jmp	23 <___libirc_print+0x24D>
100002486:	45 0f bc db 	bsfl	%r11d, %r11d
10000248a:	45 0f bc d2 	bsfl	%r10d, %r10d
10000248e:	74 05 	je	5 <___libirc_print+0x245>
100002490:	45 3b da 	cmpl	%r10d, %r11d
100002493:	7f 08 	jg	8 <___libirc_print+0x24D>
100002495:	48 03 c1 	addq	%rcx, %rax
100002498:	49 03 c3 	addq	%r11, %rax
10000249b:	eb 09 	jmp	9 <___libirc_print+0x256>
10000249d:	33 c0 	xorl	%eax, %eax
10000249f:	eb 05 	jmp	5 <___libirc_print+0x256>
1000024a1:	e8 fa 0a 00 00 	callq	2810 <___intel_sse2_strchr>
1000024a6:	48 89 c3 	movq	%rax, %rbx
1000024a9:	48 85 db 	testq	%rbx, %rbx
1000024ac:	74 45 	je	69 <___libirc_print+0x2A3>
1000024ae:	48 8d 3d 2b 4d 00 00 	leaq	19755(%rip), %rdi
1000024b5:	48 8d 34 24 	leaq	(%rsp), %rsi
1000024b9:	ba 01 00 00 00 	movl	$1, %edx
1000024be:	c6 03 00 	movb	$0, (%rbx)
1000024c1:	e8 d8 3f 00 00 	callq	16344
1000024c6:	48 8d 3d 6b 47 00 00 	leaq	18283(%rip), %rdi
1000024cd:	33 f6 	xorl	%esi, %esi
1000024cf:	e8 94 3f 00 00 	callq	16276
1000024d4:	48 8d 3d 05 4d 00 00 	leaq	19717(%rip), %rdi
1000024db:	48 8d 34 24 	leaq	(%rsp), %rsi
1000024df:	ba 01 00 00 00 	movl	$1, %edx
1000024e4:	48 89 05 35 6a 00 00 	movq	%rax, 27189(%rip)
1000024eb:	c6 03 2e 	movb	$46, (%rbx)
1000024ee:	e8 ab 3f 00 00 	callq	16299
1000024f3:	48 8b 3d 26 6a 00 00 	movq	27174(%rip), %rdi
1000024fa:	48 83 ff ff 	cmpq	$-1, %rdi
1000024fe:	0f 85 19 fe ff ff 	jne	-487 <___libirc_print+0xCD>
100002504:	e9 20 fe ff ff 	jmp	-480 <___libirc_print+0xD9>
100002509:	48 8b 1d f0 5a 00 00 	movq	23280(%rip), %rbx
100002510:	48 89 ce 	movq	%rcx, %rsi
100002513:	33 c0 	xorl	%eax, %eax
100002515:	48 8b 3b 	movq	(%rbx), %rdi
100002518:	e8 57 3f 00 00 	callq	16215
10000251d:	bf 0a 00 00 00 	movl	$10, %edi
100002522:	48 8b 33 	movq	(%rbx), %rsi
100002525:	e8 50 3f 00 00 	callq	16208
10000252a:	48 81 c4 48 01 00 00 	addq	$328, %rsp
100002531:	5d 	popq	%rbp
100002532:	5b 	popq	%rbx
100002533:	41 5d 	popq	%r13
100002535:	41 5c 	popq	%r12
100002537:	c3 	retq
100002538:	48 8b 3d e1 69 00 00 	movq	27105(%rip), %rdi
10000253f:	e9 07 fe ff ff 	jmp	-505 <___libirc_print+0xFB>
100002544:	0f 1f 44 00 00 	nopl	(%rax,%rax)
100002549:	0f 1f 80 00 00 00 00 	nopl	(%rax)
100002550:	90 	nop
100002551:	90 	nop
100002552:	90 	nop
100002553:	90 	nop
100002554:	90 	nop
100002555:	90 	nop
100002556:	90 	nop
100002557:	90 	nop
100002558:	90 	nop
100002559:	90 	nop
10000255a:	90 	nop
10000255b:	90 	nop
10000255c:	90 	nop
10000255d:	90 	nop
10000255e:	90 	nop
10000255f:	90 	nop
100002560:	50 	pushq	%rax
100002561:	33 c0 	xorl	%eax, %eax
100002563:	e8 18 00 00 00 	callq	24 <___intel_cpu_features_init_body>
100002568:	58 	popq	%rax
100002569:	c3 	retq
10000256a:	66 0f 1f 44 00 00 	nopw	(%rax,%rax)
100002570:	50 	pushq	%rax
100002571:	b8 01 00 00 00 	movl	$1, %eax
100002576:	e8 05 00 00 00 	callq	5 <___intel_cpu_features_init_body>
10000257b:	58 	popq	%rax
10000257c:	c3 	retq
10000257d:	0f 1f 00 	nopl	(%rax)
100002580:	52 	pushq	%rdx
100002581:	51 	pushq	%rcx
100002582:	53 	pushq	%rbx
100002583:	56 	pushq	%rsi
100002584:	41 51 	pushq	%r9
100002586:	41 54 	pushq	%r12
100002588:	41 56 	pushq	%r14
10000258a:	55 	pushq	%rbp
10000258b:	41 89 c6 	movl	%eax, %r14d
10000258e:	33 c0 	xorl	%eax, %eax
100002590:	0f a2 	cpuid
100002592:	89 44 24 e8 	movl	%eax, -24(%rsp)
100002596:	89 5c 24 ec 	movl	%ebx, -20(%rsp)
10000259a:	89 4c 24 f0 	movl	%ecx, -16(%rsp)
10000259e:	89 54 24 f4 	movl	%edx, -12(%rsp)
1000025a2:	83 7c 24 e8 00 	cmpl	$0, -24(%rsp)
1000025a7:	0f 84 21 04 00 00 	je	1057 <___intel_cpu_features_init_body+0x44E>
1000025ad:	41 83 fe 01 	cmpl	$1, %r14d
1000025b1:	0f 84 2e 04 00 00 	je	1070 <___intel_cpu_features_init_body+0x465>
1000025b7:	b8 01 00 00 00 	movl	$1, %eax
1000025bc:	0f a2 	cpuid
1000025be:	89 d6 	movl	%edx, %esi
1000025c0:	89 cd 	movl	%ecx, %ebp
1000025c2:	83 e6 01 	andl	$1, %esi
1000025c5:	f7 c2 00 80 00 00 	testl	$32768, %edx
1000025cb:	41 89 c4 	movl	%eax, %r12d
1000025ce:	48 8d 34 75 01 00 00 00 	leaq	1(,%rsi,2), %rsi
1000025d6:	4c 8d 4e 04 	leaq	4(%rsi), %r9
1000025da:	49 0f 45 f1 	cmovneq	%r9, %rsi
1000025de:	f7 c2 00 00 80 00 	testl	$8388608, %edx
1000025e4:	4c 8d 56 08 	leaq	8(%rsi), %r10
1000025e8:	49 0f 45 f2 	cmovneq	%r10, %rsi
1000025ec:	f7 c2 00 00 00 01 	testl	$16777216, %edx
1000025f2:	75 28 	jne	40 <___intel_cpu_features_init_body+0x9C>
1000025f4:	f7 c5 00 00 00 40 	testl	$1073741824, %ebp
1000025fa:	4c 8d 8e 00 00 02 00 	leaq	131072(%rsi), %r9
100002601:	49 0f 45 f1 	cmovneq	%r9, %rsi
100002605:	b8 07 00 00 00 	movl	$7, %eax
10000260a:	33 c9 	xorl	%ecx, %ecx
10000260c:	0f a2 	cpuid
10000260e:	41 89 d3 	movl	%edx, %r11d
100002611:	41 89 ca 	movl	%ecx, %r10d
100002614:	41 89 d9 	movl	%ebx, %r9d
100002617:	e9 03 01 00 00 	jmp	259 <___intel_cpu_features_init_body+0x19F>
10000261c:	48 83 c6 10 	addq	$16, %rsi
100002620:	49 89 f1 	movq	%rsi, %r9
100002623:	49 83 c9 20 	orq	$32, %r9
100002627:	f7 c2 00 00 00 02 	testl	$33554432, %edx
10000262d:	49 0f 45 f1 	cmovneq	%r9, %rsi
100002631:	49 89 f2 	movq	%rsi, %r10
100002634:	49 83 ca 40 	orq	$64, %r10
100002638:	f7 c2 00 00 00 04 	testl	$67108864, %edx
10000263e:	49 0f 45 f2 	cmovneq	%r10, %rsi
100002642:	49 89 f3 	movq	%rsi, %r11
100002645:	49 81 cb 80 00 00 00 	orq	$128, %r11
10000264c:	f7 c5 01 00 00 00 	testl	$1, %ebp
100002652:	49 0f 45 f3 	cmovneq	%r11, %rsi
100002656:	49 89 f1 	movq	%rsi, %r9
100002659:	49 81 c9 00 01 00 00 	orq	$256, %r9
100002660:	f7 c5 00 02 00 00 	testl	$512, %ebp
100002666:	49 0f 45 f1 	cmovneq	%r9, %rsi
10000266a:	49 89 f2 	movq	%rsi, %r10
10000266d:	49 81 ca 00 08 00 00 	orq	$2048, %r10
100002674:	f7 c5 00 00 40 00 	testl	$4194304, %ebp
10000267a:	49 0f 45 f2 	cmovneq	%r10, %rsi
10000267e:	48 89 f0 	movq	%rsi, %rax
100002681:	48 0d 00 02 00 00 	orq	$512, %rax
100002687:	f7 c5 00 00 08 00 	testl	$524288, %ebp
10000268d:	48 0f 45 f0 	cmovneq	%rax, %rsi
100002691:	48 89 f2 	movq	%rsi, %rdx
100002694:	48 81 ca 00 04 00 00 	orq	$1024, %rdx
10000269b:	f7 c5 00 00 10 00 	testl	$1048576, %ebp
1000026a1:	48 0f 45 f2 	cmovneq	%rdx, %rsi
1000026a5:	48 89 f1 	movq	%rsi, %rcx
1000026a8:	48 81 c9 00 10 00 00 	orq	$4096, %rcx
1000026af:	f7 c5 00 00 80 00 	testl	$8388608, %ebp
1000026b5:	48 0f 45 f1 	cmovneq	%rcx, %rsi
1000026b9:	48 89 f3 	movq	%rsi, %rbx
1000026bc:	48 81 cb 00 20 00 00 	orq	$8192, %rbx
1000026c3:	f7 c5 02 00 00 00 	testl	$2, %ebp
1000026c9:	48 0f 45 f3 	cmovneq	%rbx, %rsi
1000026cd:	49 89 f1 	movq	%rsi, %r9
1000026d0:	49 81 c9 00 40 00 00 	orq	$16384, %r9
1000026d7:	f7 c5 00 00 00 02 	testl	$33554432, %ebp
1000026dd:	49 0f 45 f1 	cmovneq	%r9, %rsi
1000026e1:	b8 07 00 00 00 	movl	$7, %eax
1000026e6:	33 c9 	xorl	%ecx, %ecx
1000026e8:	0f a2 	cpuid
1000026ea:	41 89 d3 	movl	%edx, %r11d
1000026ed:	41 89 d9 	movl	%ebx, %r9d
1000026f0:	48 ba 00 00 00 00 08 00 00 00 	movabsq	$34359738368, %rdx
1000026fa:	41 89 ca 	movl	%ecx, %r10d
1000026fd:	48 0b d6 	orq	%rsi, %rdx
100002700:	41 f7 c1 00 00 00 20 	testl	$536870912, %r9d
100002707:	48 0f 45 f2 	cmovneq	%rdx, %rsi
10000270b:	48 89 f1 	movq	%rsi, %rcx
10000270e:	48 81 c9 00 00 02 00 	orq	$131072, %rcx
100002715:	f7 c5 00 00 00 40 	testl	$1073741824, %ebp
10000271b:	48 0f 45 f1 	cmovneq	%rcx, %rsi
10000271f:	44 89 c8 	movl	%r9d, %eax
100002722:	48 89 f3 	movq	%rsi, %rbx
100002725:	25 08 01 00 00 	andl	$264, %eax
10000272a:	48 81 cb 00 00 08 00 	orq	$524288, %rbx
100002731:	3d 08 01 00 00 	cmpl	$264, %eax
100002736:	48 0f 44 f3 	cmoveq	%rbx, %rsi
10000273a:	b8 01 00 00 80 	movl	$2147483649, %eax
10000273f:	0f a2 	cpuid
100002741:	48 89 f2 	movq	%rsi, %rdx
100002744:	48 81 ca 00 00 10 00 	orq	$1048576, %rdx
10000274b:	f6 c1 20 	testb	$32, %cl
10000274e:	48 0f 45 f2 	cmovneq	%rdx, %rsi
100002752:	48 89 f1 	movq	%rsi, %rcx
100002755:	48 81 c9 00 00 20 00 	orq	$2097152, %rcx
10000275c:	41 f7 c1 10 00 00 00 	testl	$16, %r9d
100002763:	48 0f 45 f1 	cmovneq	%rcx, %rsi
100002767:	48 89 f0 	movq	%rsi, %rax
10000276a:	48 0d 00 00 40 00 	orq	$4194304, %rax
100002770:	41 f7 c1 00 08 00 00 	testl	$2048, %r9d
100002777:	48 0f 45 f0 	cmovneq	%rax, %rsi
10000277b:	48 89 f2 	movq	%rsi, %rdx
10000277e:	48 81 ca 00 00 00 10 	orq	$268435456, %rdx
100002785:	41 f7 c1 00 00 08 00 	testl	$524288, %r9d
10000278c:	48 0f 45 f2 	cmovneq	%rdx, %rsi
100002790:	48 89 f3 	movq	%rsi, %rbx
100002793:	48 81 cb 00 00 00 20 	orq	$536870912, %rbx
10000279a:	41 f7 c1 00 00 04 00 	testl	$262144, %r9d
1000027a1:	48 0f 45 f3 	cmovneq	%rbx, %rsi
1000027a5:	f7 c5 00 00 00 08 	testl	$134217728, %ebp
1000027ab:	0f 84 c0 01 00 00 	je	448 <___intel_cpu_features_init_body+0x3F1>
1000027b1:	33 c9 	xorl	%ecx, %ecx
1000027b3:	0f 01 d0 	xgetbv
1000027b6:	48 83 ce 01 	orq	$1, %rsi
1000027ba:	89 c2 	movl	%eax, %edx
1000027bc:	83 e2 06 	andl	$6, %edx
1000027bf:	83 fa 06 	cmpl	$6, %edx
1000027c2:	0f 85 a9 01 00 00 	jne	425 <___intel_cpu_features_init_body+0x3F1>
1000027c8:	48 89 f2 	movq	%rsi, %rdx
1000027cb:	48 81 ca 00 00 01 00 	orq	$65536, %rdx
1000027d2:	f7 c5 00 00 00 10 	testl	$268435456, %ebp
1000027d8:	48 0f 45 f2 	cmovneq	%rdx, %rsi
1000027dc:	48 89 f1 	movq	%rsi, %rcx
1000027df:	48 81 c9 00 80 00 00 	orq	$32768, %rcx
1000027e6:	f7 c5 00 00 00 20 	testl	$536870912, %ebp
1000027ec:	48 0f 45 f1 	cmovneq	%rcx, %rsi
1000027f0:	48 89 f3 	movq	%rsi, %rbx
1000027f3:	48 81 cb 00 00 80 00 	orq	$8388608, %rbx
1000027fa:	41 f7 c1 20 00 00 00 	testl	$32, %r9d
100002801:	48 0f 45 f3 	cmovneq	%rbx, %rsi
100002805:	48 89 f2 	movq	%rsi, %rdx
100002808:	48 81 ca 00 00 04 00 	orq	$262144, %rdx
10000280f:	f7 c5 00 10 00 00 	testl	$4096, %ebp
100002815:	89 c5 	movl	%eax, %ebp
100002817:	48 0f 45 f2 	cmovneq	%rdx, %rsi
10000281b:	83 e5 18 	andl	$24, %ebp
10000281e:	83 fd 18 	cmpl	$24, %ebp
100002821:	75 1c 	jne	28 <___intel_cpu_features_init_body+0x2BF>
100002823:	48 83 ce 01 	orq	$1, %rsi
100002827:	48 ba 00 00 00 00 10 00 00 00 	movabsq	$68719476736, %rdx
100002831:	48 0b d6 	orq	%rsi, %rdx
100002834:	41 f7 c1 00 40 00 00 	testl	$16384, %r9d
10000283b:	48 0f 45 f2 	cmovneq	%rdx, %rsi
10000283f:	25 e0 00 00 00 	andl	$224, %eax
100002844:	3d e0 00 00 00 	cmpl	$224, %eax
100002849:	0f 85 22 01 00 00 	jne	290 <___intel_cpu_features_init_body+0x3F1>
10000284f:	48 83 ce 01 	orq	$1, %rsi
100002853:	48 ba 00 00 00 00 04 00 00 00 	movabsq	$17179869184, %rdx
10000285d:	48 89 f0 	movq	%rsi, %rax
100002860:	48 b9 00 00 00 00 01 00 00 00 	movabsq	$4294967296, %rcx
10000286a:	48 0d 00 00 00 08 	orq	$134217728, %rax
100002870:	41 f7 c1 00 00 01 00 	testl	$65536, %r9d
100002877:	48 bb 00 00 00 00 02 00 00 00 	movabsq	$8589934592, %rbx
100002881:	48 0f 45 f0 	cmovneq	%rax, %rsi
100002885:	48 b8 00 00 00 00 20 00 00 00 	movabsq	$137438953472, %rax
10000288f:	48 0b d6 	orq	%rsi, %rdx
100002892:	41 f7 c1 00 00 00 10 	testl	$268435456, %r9d
100002899:	48 0f 45 f2 	cmovneq	%rdx, %rsi
10000289d:	44 89 ca 	movl	%r9d, %edx
1000028a0:	48 0b ce 	orq	%rsi, %rcx
1000028a3:	41 f7 c1 00 00 00 08 	testl	$134217728, %r9d
1000028aa:	48 0f 45 f1 	cmovneq	%rcx, %rsi
1000028ae:	48 b9 00 00 00 00 40 00 00 00 	movabsq	$274877906944, %rcx
1000028b8:	48 0b de 	orq	%rsi, %rbx
1000028bb:	41 f7 c1 00 00 00 04 	testl	$67108864, %r9d
1000028c2:	48 0f 45 f3 	cmovneq	%rbx, %rsi
1000028c6:	81 e2 00 00 00 80 	andl	$2147483648, %edx
1000028cc:	48 89 f5 	movq	%rsi, %rbp
1000028cf:	48 81 cd 00 00 00 01 	orq	$16777216, %rbp
1000028d6:	41 f7 c1 00 00 02 00 	testl	$131072, %r9d
1000028dd:	48 0f 45 f5 	cmovneq	%rbp, %rsi
1000028e1:	48 0b c6 	orq	%rsi, %rax
1000028e4:	41 f7 c1 00 00 00 40 	testl	$1073741824, %r9d
1000028eb:	48 0f 45 f0 	cmovneq	%rax, %rsi
1000028ef:	48 b8 00 00 00 00 00 04 00 00 	movabsq	$4398046511104, %rax
1000028f9:	48 0b ce 	orq	%rsi, %rcx
1000028fc:	81 fa 00 00 00 80 	cmpl	$2147483648, %edx
100002902:	48 0f 44 f1 	cmoveq	%rcx, %rsi
100002906:	48 89 f3 	movq	%rsi, %rbx
100002909:	48 81 cb 00 00 00 40 	orq	$1073741824, %rbx
100002910:	41 f7 c1 00 00 20 00 	testl	$2097152, %r9d
100002917:	49 b9 00 00 00 00 80 00 00 00 	movabsq	$549755813888, %r9
100002921:	48 0f 45 f3 	cmovneq	%rbx, %rsi
100002925:	4c 0b ce 	orq	%rsi, %r9
100002928:	41 f7 c2 02 00 00 00 	testl	$2, %r10d
10000292f:	49 0f 45 f1 	cmovneq	%r9, %rsi
100002933:	48 0b c6 	orq	%rsi, %rax
100002936:	41 f7 c2 00 40 00 00 	testl	$16384, %r10d
10000293d:	49 ba 00 00 00 00 00 02 00 00 	movabsq	$2199023255552, %r10
100002947:	48 0f 45 f0 	cmovneq	%rax, %rsi
10000294b:	48 b8 00 00 00 00 00 01 00 00 	movabsq	$1099511627776, %rax
100002955:	4c 0b d6 	orq	%rsi, %r10
100002958:	41 f7 c3 04 00 00 00 	testl	$4, %r11d
10000295f:	49 0f 45 f2 	cmovneq	%r10, %rsi
100002963:	48 0b c6 	orq	%rsi, %rax
100002966:	41 f7 c3 08 00 00 00 	testl	$8, %r11d
10000296d:	48 0f 45 f0 	cmovneq	%rax, %rsi
100002971:	44 89 e0 	movl	%r12d, %eax
100002974:	c1 e8 0c 	shrl	$12, %eax
100002977:	41 c1 ec 04 	shrl	$4, %r12d
10000297b:	25 f0 00 00 00 	andl	$240, %eax
100002980:	41 83 e4 0f 	andl	$15, %r12d
100002984:	41 03 c4 	addl	%r12d, %eax
100002987:	83 f8 1c 	cmpl	$28, %eax
10000298a:	74 0a 	je	10 <___intel_cpu_features_init_body+0x416>
10000298c:	83 f8 26 	cmpl	$38, %eax
10000298f:	74 05 	je	5 <___intel_cpu_features_init_body+0x416>
100002991:	83 f8 27 	cmpl	$39, %eax
100002994:	75 05 	jne	5 <___intel_cpu_features_init_body+0x41B>
100002996:	48 0f ba ee 1f 	btsq	$31, %rsi
10000299b:	41 83 fe 01 	cmpl	$1, %r14d
10000299f:	74 13 	je	19 <___intel_cpu_features_init_body+0x434>
1000029a1:	48 89 35 a0 65 00 00 	movq	%rsi, 26016(%rip)
1000029a8:	5d 	popq	%rbp
1000029a9:	41 5e 	popq	%r14
1000029ab:	41 5c 	popq	%r12
1000029ad:	41 59 	popq	%r9
1000029af:	5e 	popq	%rsi
1000029b0:	5b 	popq	%rbx
1000029b1:	59 	popq	%rcx
1000029b2:	5a 	popq	%rdx
1000029b3:	c3 	retq
1000029b4:	48 89 35 85 65 00 00 	movq	%rsi, 25989(%rip)
1000029bb:	48 89 35 86 65 00 00 	movq	%rsi, 25990(%rip)
1000029c2:	5d 	popq	%rbp
1000029c3:	41 5e 	popq	%r14
1000029c5:	41 5c 	popq	%r12
1000029c7:	41 59 	popq	%r9
1000029c9:	5e 	popq	%rsi
1000029ca:	5b 	popq	%rbx
1000029cb:	59 	popq	%rcx
1000029cc:	5a 	popq	%rdx
1000029cd:	c3 	retq
1000029ce:	48 c7 05 67 65 00 00 01 00 00 00 	movq	$1, 25959(%rip)
1000029d9:	5d 	popq	%rbp
1000029da:	41 5e 	popq	%r14
1000029dc:	41 5c 	popq	%r12
1000029de:	41 59 	popq	%r9
1000029e0:	5e 	popq	%rsi
1000029e1:	5b 	popq	%rbx
1000029e2:	59 	popq	%rcx
1000029e3:	5a 	popq	%rdx
1000029e4:	c3 	retq
1000029e5:	81 7c 24 ec 47 65 6e 75 	cmpl	$1970169159, -20(%rsp)
1000029ed:	75 df 	jne	-33 <___intel_cpu_features_init_body+0x44E>
1000029ef:	81 7c 24 f4 69 6e 65 49 	cmpl	$1231384169, -12(%rsp)
1000029f7:	75 d5 	jne	-43 <___intel_cpu_features_init_body+0x44E>
1000029f9:	81 7c 24 f0 6e 74 65 6c 	cmpl	$1818588270, -16(%rsp)
100002a01:	75 cb 	jne	-53 <___intel_cpu_features_init_body+0x44E>
100002a03:	e9 af fb ff ff 	jmp	-1105 <___intel_cpu_features_init_body+0x37>
100002a08:	0f 1f 84 00 00 00 00 00 	nopl	(%rax,%rax)
100002a10:	90 	nop
100002a11:	90 	nop
100002a12:	90 	nop
100002a13:	90 	nop
100002a14:	90 	nop
100002a15:	90 	nop
100002a16:	90 	nop
100002a17:	90 	nop
100002a18:	90 	nop
100002a19:	90 	nop
100002a1a:	90 	nop
100002a1b:	90 	nop
100002a1c:	90 	nop
100002a1d:	90 	nop
100002a1e:	90 	nop
100002a1f:	90 	nop
100002a20:	48 81 ec 08 02 00 00 	subq	$520, %rsp
100002a27:	89 f2 	movl	%esi, %edx
100002a29:	89 f1 	movl	%esi, %ecx
100002a2b:	83 e2 04 	andl	$4, %edx
100002a2e:	83 e1 02 	andl	$2, %ecx
100002a31:	74 22 	je	34 <___intel_proc_init_ftzdazule+0x35>
100002a33:	f7 c7 02 00 00 00 	testl	$2, %edi
100002a39:	74 38 	je	56 <___intel_proc_init_ftzdazule+0x53>
100002a3b:	85 d2 	testl	%edx, %edx
100002a3d:	74 08 	je	8 <___intel_proc_init_ftzdazule+0x27>
100002a3f:	f7 c7 04 00 00 00 	testl	$4, %edi
100002a45:	74 2c 	je	44 <___intel_proc_init_ftzdazule+0x53>
100002a47:	f7 c6 01 00 00 00 	testl	$1, %esi
100002a4d:	0f 85 a6 00 00 00 	jne	166 <___intel_proc_init_ftzdazule+0xD9>
100002a53:	eb 64 	jmp	100 <___intel_proc_init_ftzdazule+0x99>
100002a55:	85 d2 	testl	%edx, %edx
100002a57:	0f 84 8c 00 00 00 	je	140 <___intel_proc_init_ftzdazule+0xC9>
100002a5d:	f7 c7 04 00 00 00 	testl	$4, %edi
100002a63:	74 0e 	je	14 <___intel_proc_init_ftzdazule+0x53>
100002a65:	f7 c6 01 00 00 00 	testl	$1, %esi
100002a6b:	0f 85 88 00 00 00 	jne	136 <___intel_proc_init_ftzdazule+0xD9>
100002a71:	eb 5b 	jmp	91 <___intel_proc_init_ftzdazule+0xAE>
100002a73:	b8 00 02 00 00 	movl	$512, %eax
100002a78:	66 0f ef c0 	pxor	%xmm0, %xmm0
100002a7c:	0f 29 44 04 f0 	movaps	%xmm0, -16(%rsp,%rax)
100002a81:	0f 29 44 04 e0 	movaps	%xmm0, -32(%rsp,%rax)
100002a86:	0f 29 44 04 d0 	movaps	%xmm0, -48(%rsp,%rax)
100002a8b:	0f 29 44 04 c0 	movaps	%xmm0, -64(%rsp,%rax)
100002a90:	48 83 e8 40 	subq	$64, %rax
100002a94:	75 e6 	jne	-26 <___intel_proc_init_ftzdazule+0x5C>
100002a96:	0f ae 04 24 	fxsave	(%rsp)
100002a9a:	33 ff 	xorl	%edi, %edi
100002a9c:	8b 44 24 1c 	movl	28(%rsp), %eax
100002aa0:	a8 40 	testb	$64, %al
100002aa2:	0f 44 cf 	cmovel	%edi, %ecx
100002aa5:	a9 00 00 02 00 	testl	$131072, %eax
100002aaa:	0f 44 d7 	cmovel	%edi, %edx
100002aad:	f7 c6 01 00 00 00 	testl	$1, %esi
100002ab3:	75 44 	jne	68 <___intel_proc_init_ftzdazule+0xD9>
100002ab5:	85 c9 	testl	%ecx, %ecx
100002ab7:	74 11 	je	17 <___intel_proc_init_ftzdazule+0xAA>
100002ab9:	0f ae 1c 24 	stmxcsr	(%rsp)
100002abd:	8b 04 24 	movl	(%rsp), %eax
100002ac0:	83 c8 40 	orl	$64, %eax
100002ac3:	89 04 24 	movl	%eax, (%rsp)
100002ac6:	0f ae 14 24 	ldmxcsr	(%rsp)
100002aca:	85 d2 	testl	%edx, %edx
100002acc:	74 23 	je	35 <___intel_proc_init_ftzdazule+0xD1>
100002ace:	0f ae 1c 24 	stmxcsr	(%rsp)
100002ad2:	8b 04 24 	movl	(%rsp), %eax
100002ad5:	0d 00 00 02 00 	orl	$131072, %eax
100002ada:	89 04 24 	movl	%eax, (%rsp)
100002add:	0f ae 14 24 	ldmxcsr	(%rsp)
100002ae1:	48 81 c4 08 02 00 00 	addq	$520, %rsp
100002ae8:	c3 	retq
100002ae9:	f7 c6 01 00 00 00 	testl	$1, %esi
100002aef:	75 08 	jne	8 <___intel_proc_init_ftzdazule+0xD9>
100002af1:	48 81 c4 08 02 00 00 	addq	$520, %rsp
100002af8:	c3 	retq
100002af9:	0f ae 1c 24 	stmxcsr	(%rsp)
100002afd:	8b 04 24 	movl	(%rsp), %eax
100002b00:	0d 00 80 00 00 	orl	$32768, %eax
100002b05:	89 04 24 	movl	%eax, (%rsp)
100002b08:	0f ae 14 24 	ldmxcsr	(%rsp)
100002b0c:	eb a7 	jmp	-89 <___intel_proc_init_ftzdazule+0x95>
100002b0e:	66 90 	nop
100002b10:	90 	nop
100002b11:	90 	nop
100002b12:	90 	nop
100002b13:	90 	nop
100002b14:	90 	nop
100002b15:	90 	nop
100002b16:	90 	nop
100002b17:	90 	nop
100002b18:	90 	nop
100002b19:	90 	nop
100002b1a:	90 	nop
100002b1b:	90 	nop
100002b1c:	90 	nop
100002b1d:	90 	nop
100002b1e:	90 	nop
100002b1f:	90 	nop
100002b20:	41 54 	pushq	%r12
100002b22:	41 55 	pushq	%r13
100002b24:	41 56 	pushq	%r14
100002b26:	41 57 	pushq	%r15
100002b28:	48 81 ec 18 04 00 00 	subq	$1048, %rsp
100002b2f:	49 89 f4 	movq	%rsi, %r12
100002b32:	4c 8d 3d 07 64 00 00 	leaq	25607(%rip), %r15
100002b39:	41 89 fe 	movl	%edi, %r14d
100002b3c:	4d 8b 2f 	movq	(%r15), %r13
100002b3f:	4d 85 ed 	testq	%r13, %r13
100002b42:	0f 84 c9 03 00 00 	je	969 <___intel_new_feature_proc_init+0x3F1>
100002b48:	4c 89 e8 	movq	%r13, %rax
100002b4b:	49 23 c4 	andq	%r12, %rax
100002b4e:	49 3b c4 	cmpq	%r12, %rax
100002b51:	0f 84 35 03 00 00 	je	821 <___intel_new_feature_proc_init+0x36C>
100002b57:	49 f7 c4 01 00 00 00 	testq	$1, %r12
100002b5e:	0f 85 8c 03 00 00 	jne	908 <___intel_new_feature_proc_init+0x3D0>
100002b64:	45 33 f6 	xorl	%r14d, %r14d
100002b67:	49 f7 d5 	notq	%r13
100002b6a:	bf 39 00 00 00 	movl	$57, %edi
100002b6f:	33 f6 	xorl	%esi, %esi
100002b71:	33 c0 	xorl	%eax, %eax
100002b73:	4d 23 ec 	andq	%r12, %r13
100002b76:	45 33 ff 	xorl	%r15d, %r15d
100002b79:	e8 42 f4 ff ff 	callq	-3006 <___libirc_get_msg>
100002b7e:	4c 89 fa 	movq	%r15, %rdx
100002b81:	41 bc 01 00 00 00 	movl	$1, %r12d
100002b87:	c6 04 24 00 	movb	$0, (%rsp)
100002b8b:	49 89 d0 	movq	%rdx, %r8
100002b8e:	48 89 9c 24 08 04 00 00 	movq	%rbx, 1032(%rsp)
100002b96:	48 89 ac 24 00 04 00 00 	movq	%rbp, 1024(%rsp)
100002b9e:	4c 89 f5 	movq	%r14, %rbp
100002ba1:	49 89 c6 	movq	%rax, %r14
100002ba4:	bb 01 00 00 00 	movl	$1, %ebx
100002ba9:	41 8d 4c 24 3f 	leal	63(%r12), %ecx
100002bae:	48 d3 e3 	shlq	%cl, %rbx
100002bb1:	41 83 fc 2b 	cmpl	$43, %r12d
100002bb5:	49 0f 47 df 	cmovaq	%r15, %rbx
100002bb9:	4c 85 eb 	testq	%r13, %rbx
100002bbc:	0f 84 bc 01 00 00 	je	444 <___intel_new_feature_proc_init+0x25E>
100002bc2:	48 8d 0d b7 5d 00 00 	leaq	23991(%rip), %rcx
100002bc9:	4a 8b 1c e1 	movq	(%rcx,%r12,8), %rbx
100002bcd:	48 85 db 	testq	%rbx, %rbx
100002bd0:	0f 84 08 03 00 00 	je	776 <___intel_new_feature_proc_init+0x3BE>
100002bd6:	80 3b 00 	cmpb	$0, (%rbx)
100002bd9:	0f 84 ff 02 00 00 	je	767 <___intel_new_feature_proc_init+0x3BE>
100002bdf:	80 3c 24 00 	cmpb	$0, (%rsp)
100002be3:	0f 84 48 01 00 00 	je	328 <___intel_new_feature_proc_init+0x211>
100002be9:	48 85 ed 	testq	%rbp, %rbp
100002bec:	0f 84 3a 01 00 00 	je	314 <___intel_new_feature_proc_init+0x20C>
100002bf2:	48 89 ea 	movq	%rbp, %rdx
100002bf5:	48 89 d1 	movq	%rdx, %rcx
100002bf8:	48 83 e2 f0 	andq	$-16, %rdx
100002bfc:	66 0f ef c0 	pxor	%xmm0, %xmm0
100002c00:	66 0f 74 02 	pcmpeqb	(%rdx), %xmm0
100002c04:	66 0f d7 c0 	pmovmskb	%xmm0, %eax
100002c08:	83 e1 0f 	andl	$15, %ecx
100002c0b:	d3 e8 	shrl	%cl, %eax
100002c0d:	0f bc c0 	bsfl	%eax, %eax
100002c10:	75 0b 	jne	11 <___intel_new_feature_proc_init+0xFD>
100002c12:	48 89 d0 	movq	%rdx, %rax
100002c15:	48 03 d1 	addq	%rcx, %rdx
100002c18:	e8 43 03 00 00 	callq	835 <___intel_sse2_strlen>
100002c1d:	4c 89 f2 	movq	%r14, %rdx
100002c20:	49 89 c1 	movq	%rax, %r9
100002c23:	48 89 d1 	movq	%rdx, %rcx
100002c26:	48 83 e2 f0 	andq	$-16, %rdx
100002c2a:	66 0f ef c0 	pxor	%xmm0, %xmm0
100002c2e:	66 0f 74 02 	pcmpeqb	(%rdx), %xmm0
100002c32:	66 0f d7 c0 	pmovmskb	%xmm0, %eax
100002c36:	83 e1 0f 	andl	$15, %ecx
100002c39:	d3 e8 	shrl	%cl, %eax
100002c3b:	0f bc c0 	bsfl	%eax, %eax
100002c3e:	75 0b 	jne	11 <___intel_new_feature_proc_init+0x12B>
100002c40:	48 89 d0 	movq	%rdx, %rax
100002c43:	48 03 d1 	addq	%rcx, %rdx
100002c46:	e8 15 03 00 00 	callq	789 <___intel_sse2_strlen>
100002c4b:	48 89 da 	movq	%rbx, %rdx
100002c4e:	48 89 c7 	movq	%rax, %rdi
100002c51:	48 89 d1 	movq	%rdx, %rcx
100002c54:	48 83 e2 f0 	andq	$-16, %rdx
100002c58:	66 0f ef c0 	pxor	%xmm0, %xmm0
100002c5c:	66 0f 74 02 	pcmpeqb	(%rdx), %xmm0
100002c60:	66 0f d7 c0 	pmovmskb	%xmm0, %eax
100002c64:	83 e1 0f 	andl	$15, %ecx
100002c67:	d3 e8 	shrl	%cl, %eax
100002c69:	0f bc c0 	bsfl	%eax, %eax
100002c6c:	75 0b 	jne	11 <___intel_new_feature_proc_init+0x159>
100002c6e:	48 89 d0 	movq	%rdx, %rax
100002c71:	48 03 d1 	addq	%rcx, %rdx
100002c74:	e8 e7 02 00 00 	callq	743 <___intel_sse2_strlen>
100002c79:	4d 03 c8 	addq	%r8, %r9
100002c7c:	4c 03 cf 	addq	%rdi, %r9
100002c7f:	49 8d 4c 01 02 	leaq	2(%r9,%rax), %rcx
100002c84:	48 81 f9 00 04 00 00 	cmpq	$1024, %rcx
100002c8b:	0f 83 14 02 00 00 	jae	532 <___intel_new_feature_proc_init+0x385>
100002c91:	49 f7 d8 	negq	%r8
100002c94:	48 8d 3c 24 	leaq	(%rsp), %rdi
100002c98:	49 81 c0 ff 03 00 00 	addq	$1023, %r8
100002c9f:	48 8d 35 be 46 00 00 	leaq	18110(%rip), %rsi
100002ca6:	4c 89 c2 	movq	%r8, %rdx
100002ca9:	b9 00 04 00 00 	movl	$1024, %ecx
100002cae:	e8 a3 37 00 00 	callq	14243
100002cb3:	48 8d 14 24 	leaq	(%rsp), %rdx
100002cb7:	48 89 d1 	movq	%rdx, %rcx
100002cba:	48 83 e2 f0 	andq	$-16, %rdx
100002cbe:	66 0f ef c0 	pxor	%xmm0, %xmm0
100002cc2:	66 0f 74 02 	pcmpeqb	(%rdx), %xmm0
100002cc6:	66 0f d7 c0 	pmovmskb	%xmm0, %eax
100002cca:	83 e1 0f 	andl	$15, %ecx
100002ccd:	d3 e8 	shrl	%cl, %eax
100002ccf:	0f bc c0 	bsfl	%eax, %eax
100002cd2:	75 0b 	jne	11 <___intel_new_feature_proc_init+0x1BF>
100002cd4:	48 89 d0 	movq	%rdx, %rax
100002cd7:	48 03 d1 	addq	%rcx, %rdx
100002cda:	e8 81 02 00 00 	callq	641 <___intel_sse2_strlen>
100002cdf:	48 63 d0 	movslq	%eax, %rdx
100002ce2:	48 8d 3c 24 	leaq	(%rsp), %rdi
100002ce6:	48 f7 da 	negq	%rdx
100002ce9:	48 89 ee 	movq	%rbp, %rsi
100002cec:	48 81 c2 ff 03 00 00 	addq	$1023, %rdx
100002cf3:	b9 00 04 00 00 	movl	$1024, %ecx
100002cf8:	e8 59 37 00 00 	callq	14169
100002cfd:	48 8d 14 24 	leaq	(%rsp), %rdx
100002d01:	48 89 d1 	movq	%rdx, %rcx
100002d04:	48 83 e2 f0 	andq	$-16, %rdx
100002d08:	66 0f ef c0 	pxor	%xmm0, %xmm0
100002d0c:	66 0f 74 02 	pcmpeqb	(%rdx), %xmm0
100002d10:	66 0f d7 c0 	pmovmskb	%xmm0, %eax
100002d14:	83 e1 0f 	andl	$15, %ecx
100002d17:	d3 e8 	shrl	%cl, %eax
100002d19:	0f bc c0 	bsfl	%eax, %eax
100002d1c:	75 0b 	jne	11 <___intel_new_feature_proc_init+0x209>
100002d1e:	48 89 d0 	movq	%rdx, %rax
100002d21:	48 03 d1 	addq	%rcx, %rdx
100002d24:	e8 37 02 00 00 	callq	567 <___intel_sse2_strlen>
100002d29:	4c 63 c0 	movslq	%eax, %r8
100002d2c:	48 89 dd 	movq	%rbx, %rbp
100002d2f:	eb 4d 	jmp	77 <___intel_new_feature_proc_init+0x25E>
100002d31:	49 f7 d8 	negq	%r8
100002d34:	48 8d 3c 24 	leaq	(%rsp), %rdi
100002d38:	49 81 c0 ff 03 00 00 	addq	$1023, %r8
100002d3f:	48 89 de 	movq	%rbx, %rsi
100002d42:	4c 89 c2 	movq	%r8, %rdx
100002d45:	b9 00 04 00 00 	movl	$1024, %ecx
100002d4a:	e8 07 37 00 00 	callq	14087
100002d4f:	48 8d 14 24 	leaq	(%rsp), %rdx
100002d53:	48 89 d1 	movq	%rdx, %rcx
100002d56:	48 83 e2 f0 	andq	$-16, %rdx
100002d5a:	66 0f ef c0 	pxor	%xmm0, %xmm0
100002d5e:	66 0f 74 02 	pcmpeqb	(%rdx), %xmm0
100002d62:	66 0f d7 c0 	pmovmskb	%xmm0, %eax
100002d66:	83 e1 0f 	andl	$15, %ecx
100002d69:	d3 e8 	shrl	%cl, %eax
100002d6b:	0f bc c0 	bsfl	%eax, %eax
100002d6e:	75 0b 	jne	11 <___intel_new_feature_proc_init+0x25B>
100002d70:	48 89 d0 	movq	%rdx, %rax
100002d73:	48 03 d1 	addq	%rcx, %rdx
100002d76:	e8 e5 01 00 00 	callq	485 <___intel_sse2_strlen>
100002d7b:	4c 63 c0 	movslq	%eax, %r8
100002d7e:	41 ff c4 	incl	%r12d
100002d81:	41 83 fc 2b 	cmpl	$43, %r12d
100002d85:	0f 8e 19 fe ff ff 	jle	-487 <___intel_new_feature_proc_init+0x84>
100002d8b:	4c 89 f0 	movq	%r14, %rax
100002d8e:	49 89 ee 	movq	%rbp, %r14
100002d91:	48 8b 9c 24 08 04 00 00 	movq	1032(%rsp), %rbx
100002d99:	4c 89 c2 	movq	%r8, %rdx
100002d9c:	48 8b ac 24 00 04 00 00 	movq	1024(%rsp), %rbp
100002da4:	4d 85 f6 	testq	%r14, %r14
100002da7:	74 65 	je	101 <___intel_new_feature_proc_init+0x2EE>
100002da9:	48 f7 da 	negq	%rdx
100002dac:	48 8d 3c 24 	leaq	(%rsp), %rdi
100002db0:	48 81 c2 ff 03 00 00 	addq	$1023, %rdx
100002db7:	48 89 c6 	movq	%rax, %rsi
100002dba:	b9 00 04 00 00 	movl	$1024, %ecx
100002dbf:	e8 92 36 00 00 	callq	13970
100002dc4:	48 8d 14 24 	leaq	(%rsp), %rdx
100002dc8:	48 89 d1 	movq	%rdx, %rcx
100002dcb:	48 83 e2 f0 	andq	$-16, %rdx
100002dcf:	66 0f ef c0 	pxor	%xmm0, %xmm0
100002dd3:	66 0f 74 02 	pcmpeqb	(%rdx), %xmm0
100002dd7:	66 0f d7 c0 	pmovmskb	%xmm0, %eax
100002ddb:	83 e1 0f 	andl	$15, %ecx
100002dde:	d3 e8 	shrl	%cl, %eax
100002de0:	0f bc c0 	bsfl	%eax, %eax
100002de3:	75 0b 	jne	11 <___intel_new_feature_proc_init+0x2D0>
100002de5:	48 89 d0 	movq	%rdx, %rax
100002de8:	48 03 d1 	addq	%rcx, %rdx
100002deb:	e8 70 01 00 00 	callq	368 <___intel_sse2_strlen>
100002df0:	48 63 d0 	movslq	%eax, %rdx
100002df3:	48 8d 3c 24 	leaq	(%rsp), %rdi
100002df7:	48 f7 da 	negq	%rdx
100002dfa:	4c 89 f6 	movq	%r14, %rsi
100002dfd:	48 81 c2 ff 03 00 00 	addq	$1023, %rdx
100002e04:	b9 00 04 00 00 	movl	$1024, %ecx
100002e09:	e8 48 36 00 00 	callq	13896
100002e0e:	80 3c 24 00 	cmpb	$0, (%rsp)
100002e12:	75 3d 	jne	61 <___intel_new_feature_proc_init+0x331>
100002e14:	33 f6 	xorl	%esi, %esi
100002e16:	bf 01 00 00 00 	movl	$1, %edi
100002e1b:	33 d2 	xorl	%edx, %edx
100002e1d:	33 c0 	xorl	%eax, %eax
100002e1f:	e8 2c f4 ff ff 	callq	-3028 <___libirc_print>
100002e24:	bf 01 00 00 00 	movl	$1, %edi
100002e29:	be 3a 00 00 00 	movl	$58, %esi
100002e2e:	33 d2 	xorl	%edx, %edx
100002e30:	33 c0 	xorl	%eax, %eax
100002e32:	e8 19 f4 ff ff 	callq	-3047 <___libirc_print>
100002e37:	33 f6 	xorl	%esi, %esi
100002e39:	bf 01 00 00 00 	movl	$1, %edi
100002e3e:	33 d2 	xorl	%edx, %edx
100002e40:	33 c0 	xorl	%eax, %eax
100002e42:	e8 09 f4 ff ff 	callq	-3063 <___libirc_print>
100002e47:	bf 01 00 00 00 	movl	$1, %edi
100002e4c:	e8 1d 36 00 00 	callq	13853
100002e51:	33 f6 	xorl	%esi, %esi
100002e53:	bf 01 00 00 00 	movl	$1, %edi
100002e58:	33 d2 	xorl	%edx, %edx
100002e5a:	33 c0 	xorl	%eax, %eax
100002e5c:	e8 ef f3 ff ff 	callq	-3089 <___libirc_print>
100002e61:	bf 01 00 00 00 	movl	$1, %edi
100002e66:	be 38 00 00 00 	movl	$56, %esi
100002e6b:	89 fa 	movl	%edi, %edx
100002e6d:	48 8d 0c 24 	leaq	(%rsp), %rcx
100002e71:	33 c0 	xorl	%eax, %eax
100002e73:	e8 d8 f3 ff ff 	callq	-3112 <___libirc_print>
100002e78:	eb bd 	jmp	-67 <___intel_new_feature_proc_init+0x317>
100002e7a:	33 f6 	xorl	%esi, %esi
100002e7c:	bf 01 00 00 00 	movl	$1, %edi
100002e81:	33 d2 	xorl	%edx, %edx
100002e83:	33 c0 	xorl	%eax, %eax
100002e85:	e8 c6 f3 ff ff 	callq	-3130 <___libirc_print>
100002e8a:	eb 98 	jmp	-104 <___intel_new_feature_proc_init+0x304>
100002e8c:	49 f7 c5 20 00 00 00 	testq	$32, %r13
100002e93:	75 70 	jne	112 <___intel_new_feature_proc_init+0x3E5>
100002e95:	48 81 c4 18 04 00 00 	addq	$1048, %rsp
100002e9c:	41 5f 	popq	%r15
100002e9e:	41 5e 	popq	%r14
100002ea0:	41 5d 	popq	%r13
100002ea2:	41 5c 	popq	%r12
100002ea4:	c3 	retq
100002ea5:	4c 89 c2 	movq	%r8, %rdx
100002ea8:	4c 89 f0 	movq	%r14, %rax
100002eab:	48 f7 da 	negq	%rdx
100002eae:	48 8d 3c 24 	leaq	(%rsp), %rdi
100002eb2:	48 81 c2 ff 03 00 00 	addq	$1023, %rdx
100002eb9:	48 89 c6 	movq	%rax, %rsi
100002ebc:	b9 00 04 00 00 	movl	$1024, %ecx
100002ec1:	49 89 ee 	movq	%rbp, %r14
100002ec4:	48 8b 9c 24 08 04 00 00 	movq	1032(%rsp), %rbx
100002ecc:	48 8b ac 24 00 04 00 00 	movq	1024(%rsp), %rbp
100002ed4:	e8 7d 35 00 00 	callq	13693
100002ed9:	e9 e6 fe ff ff 	jmp	-282 <___intel_new_feature_proc_init+0x2A4>
100002ede:	48 8b 9c 24 08 04 00 00 	movq	1032(%rsp), %rbx
100002ee6:	48 8b ac 24 00 04 00 00 	movq	1024(%rsp), %rbp
100002eee:	eb 8a 	jmp	-118 <___intel_new_feature_proc_init+0x35A>
100002ef0:	33 f6 	xorl	%esi, %esi
100002ef2:	bf 01 00 00 00 	movl	$1, %edi
100002ef7:	33 d2 	xorl	%edx, %edx
100002ef9:	33 c0 	xorl	%eax, %eax
100002efb:	e8 50 f3 ff ff 	callq	-3248 <___libirc_print>
100002f00:	e9 1f ff ff ff 	jmp	-225 <___intel_new_feature_proc_init+0x304>
100002f05:	33 ff 	xorl	%edi, %edi
100002f07:	44 89 f6 	movl	%r14d, %esi
100002f0a:	e8 11 fb ff ff 	callq	-1263 <___intel_proc_init_ftzdazule>
100002f0f:	eb 84 	jmp	-124 <___intel_new_feature_proc_init+0x375>
100002f11:	33 c0 	xorl	%eax, %eax
100002f13:	e8 58 f6 ff ff 	callq	-2472 <___intel_cpu_features_init>
100002f18:	4d 8b 2f 	movq	(%r15), %r13
100002f1b:	4d 85 ed 	testq	%r13, %r13
100002f1e:	0f 85 24 fc ff ff 	jne	-988 <___intel_new_feature_proc_init+0x28>
100002f24:	33 f6 	xorl	%esi, %esi
100002f26:	bf 01 00 00 00 	movl	$1, %edi
100002f2b:	33 d2 	xorl	%edx, %edx
100002f2d:	33 c0 	xorl	%eax, %eax
100002f2f:	e8 1c f3 ff ff 	callq	-3300 <___libirc_print>
100002f34:	bf 01 00 00 00 	movl	$1, %edi
100002f39:	be 3b 00 00 00 	movl	$59, %esi
100002f3e:	33 d2 	xorl	%edx, %edx
100002f40:	33 c0 	xorl	%eax, %eax
100002f42:	e8 09 f3 ff ff 	callq	-3319 <___libirc_print>
100002f47:	e9 eb fe ff ff 	jmp	-277 <___intel_new_feature_proc_init+0x317>
100002f4c:	0f 1f 40 00 	nopl	(%rax)
100002f50:	90 	nop
100002f51:	90 	nop
100002f52:	90 	nop
100002f53:	90 	nop
100002f54:	90 	nop
100002f55:	90 	nop
100002f56:	90 	nop
100002f57:	90 	nop
100002f58:	90 	nop
100002f59:	90 	nop
100002f5a:	90 	nop
100002f5b:	90 	nop
100002f5c:	90 	nop
100002f5d:	90 	nop
100002f5e:	90 	nop
100002f5f:	90 	nop
100002f60:	66 0f ef c0 	pxor	%xmm0, %xmm0
100002f64:	48 83 c0 10 	addq	$16, %rax
100002f68:	66 0f 6f 08 	movdqa	(%rax), %xmm1
100002f6c:	66 0f 74 c8 	pcmpeqb	%xmm0, %xmm1
100002f70:	66 0f d7 c9 	pmovmskb	%xmm1, %ecx
100002f74:	85 c9 	testl	%ecx, %ecx
100002f76:	74 ec 	je	-20 <___intel_sse2_strlen+0x4>
100002f78:	0f bc c9 	bsfl	%ecx, %ecx
100002f7b:	48 2b ca 	subq	%rdx, %rcx
100002f7e:	48 03 c1 	addq	%rcx, %rax
100002f81:	c3 	retq
100002f82:	0f 1f 80 00 00 00 00 	nopl	(%rax)
100002f89:	0f 1f 80 00 00 00 00 	nopl	(%rax)
100002f90:	90 	nop
100002f91:	90 	nop
100002f92:	90 	nop
100002f93:	90 	nop
100002f94:	90 	nop
100002f95:	90 	nop
100002f96:	90 	nop
100002f97:	90 	nop
100002f98:	90 	nop
100002f99:	90 	nop
100002f9a:	90 	nop
100002f9b:	90 	nop
100002f9c:	90 	nop
100002f9d:	90 	nop
100002f9e:	90 	nop
100002f9f:	90 	nop
100002fa0:	48 83 c0 10 	addq	$16, %rax
100002fa4:	66 0f ef c0 	pxor	%xmm0, %xmm0
100002fa8:	66 0f 6f 10 	movdqa	(%rax), %xmm2
100002fac:	66 0f 74 c2 	pcmpeqb	%xmm2, %xmm0
100002fb0:	66 0f 74 d1 	pcmpeqb	%xmm1, %xmm2
100002fb4:	66 0f d7 ca 	pmovmskb	%xmm2, %ecx
100002fb8:	85 c9 	testl	%ecx, %ecx
100002fba:	75 0b 	jne	11 <___intel_sse2_strchr+0x27>
100002fbc:	66 0f d7 c8 	pmovmskb	%xmm0, %ecx
100002fc0:	85 c9 	testl	%ecx, %ecx
100002fc2:	74 dc 	je	-36 <___intel_sse2_strchr>
100002fc4:	33 c0 	xorl	%eax, %eax
100002fc6:	c3 	retq
100002fc7:	44 0f bc d1 	bsfl	%ecx, %r10d
100002fcb:	66 0f d7 c8 	pmovmskb	%xmm0, %ecx
100002fcf:	85 c9 	testl	%ecx, %ecx
100002fd1:	74 08 	je	8 <___intel_sse2_strchr+0x3B>
100002fd3:	0f bc c9 	bsfl	%ecx, %ecx
100002fd6:	41 3b ca 	cmpl	%r10d, %ecx
100002fd9:	72 e9 	jb	-23 <___intel_sse2_strchr+0x24>
100002fdb:	49 03 c2 	addq	%r10, %rax
100002fde:	c3 	retq
100002fdf:	90 	nop
100002fe0:	90 	nop
100002fe1:	90 	nop
100002fe2:	90 	nop
100002fe3:	90 	nop
100002fe4:	90 	nop
100002fe5:	90 	nop
100002fe6:	90 	nop
100002fe7:	90 	nop
100002fe8:	90 	nop
100002fe9:	90 	nop
100002fea:	90 	nop
100002feb:	90 	nop
100002fec:	90 	nop
100002fed:	90 	nop
100002fee:	90 	nop
100002fef:	90 	nop
100002ff0:	48 89 f1 	movq	%rsi, %rcx
100002ff3:	48 89 fa 	movq	%rdi, %rdx
100002ff6:	4d 85 c0 	testq	%r8, %r8
100002ff9:	0f 84 a1 21 00 00 	je	8609 <___intel_ssse3_strncpy+0x21B0>
100002fff:	49 83 f8 08 	cmpq	$8, %r8
100003003:	0f 86 37 22 00 00 	jbe	8759 <___intel_ssse3_strncpy+0x2250>
100003009:	80 39 00 	cmpb	$0, (%rcx)
10000300c:	0f 84 9e 1d 00 00 	je	7582 <___intel_ssse3_strncpy+0x1DC0>
100003012:	80 79 01 00 	cmpb	$0, 1(%rcx)
100003016:	0f 84 b4 1d 00 00 	je	7604 <___intel_ssse3_strncpy+0x1DE0>
10000301c:	80 79 02 00 	cmpb	$0, 2(%rcx)
100003020:	0f 84 ca 1d 00 00 	je	7626 <___intel_ssse3_strncpy+0x1E00>
100003026:	80 79 03 00 	cmpb	$0, 3(%rcx)
10000302a:	0f 84 e0 1d 00 00 	je	7648 <___intel_ssse3_strncpy+0x1E20>
100003030:	80 79 04 00 	cmpb	$0, 4(%rcx)
100003034:	0f 84 f6 1d 00 00 	je	7670 <___intel_ssse3_strncpy+0x1E40>
10000303a:	80 79 05 00 	cmpb	$0, 5(%rcx)
10000303e:	0f 84 0c 1e 00 00 	je	7692 <___intel_ssse3_strncpy+0x1E60>
100003044:	80 79 06 00 	cmpb	$0, 6(%rcx)
100003048:	0f 84 22 1e 00 00 	je	7714 <___intel_ssse3_strncpy+0x1E80>
10000304e:	80 79 07 00 	cmpb	$0, 7(%rcx)
100003052:	0f 84 f8 1a 00 00 	je	6904 <___intel_ssse3_strncpy+0x1B60>
100003058:	49 83 f8 10 	cmpq	$16, %r8
10000305c:	0f 82 4e 21 00 00 	jb	8526 <___intel_ssse3_strncpy+0x21C0>
100003062:	80 79 08 00 	cmpb	$0, 8(%rcx)
100003066:	0f 84 24 1e 00 00 	je	7716 <___intel_ssse3_strncpy+0x1EA0>
10000306c:	80 79 09 00 	cmpb	$0, 9(%rcx)
100003070:	0f 84 3a 1e 00 00 	je	7738 <___intel_ssse3_strncpy+0x1EC0>
100003076:	80 79 0a 00 	cmpb	$0, 10(%rcx)
10000307a:	0f 84 50 1e 00 00 	je	7760 <___intel_ssse3_strncpy+0x1EE0>
100003080:	80 79 0b 00 	cmpb	$0, 11(%rcx)
100003084:	0f 84 66 1e 00 00 	je	7782 <___intel_ssse3_strncpy+0x1F00>
10000308a:	80 79 0c 00 	cmpb	$0, 12(%rcx)
10000308e:	0f 84 7c 1e 00 00 	je	7804 <___intel_ssse3_strncpy+0x1F20>
100003094:	80 79 0d 00 	cmpb	$0, 13(%rcx)
100003098:	0f 84 92 1e 00 00 	je	7826 <___intel_ssse3_strncpy+0x1F40>
10000309e:	80 79 0e 00 	cmpb	$0, 14(%rcx)
1000030a2:	0f 84 a8 1e 00 00 	je	7848 <___intel_ssse3_strncpy+0x1F60>
1000030a8:	49 83 f8 10 	cmpq	$16, %r8
1000030ac:	0f 84 fe 1a 00 00 	je	6910 <___intel_ssse3_strncpy+0x1BC0>
1000030b2:	80 79 0f 00 	cmpb	$0, 15(%rcx)
1000030b6:	0f 84 f4 1a 00 00 	je	6900 <___intel_ssse3_strncpy+0x1BC0>
1000030bc:	48 89 ce 	movq	%rcx, %rsi
1000030bf:	48 83 e6 0f 	andq	$15, %rsi
1000030c3:	4c 03 c6 	addq	%rsi, %r8
1000030c6:	48 8d 71 10 	leaq	16(%rcx), %rsi
1000030ca:	48 83 e6 f0 	andq	$-16, %rsi
1000030ce:	66 0f ef c0 	pxor	%xmm0, %xmm0
1000030d2:	4c 8b 09 	movq	(%rcx), %r9
1000030d5:	4c 89 0a 	movq	%r9, (%rdx)
1000030d8:	66 0f 74 06 	pcmpeqb	(%rsi), %xmm0
1000030dc:	4c 8b 49 08 	movq	8(%rcx), %r9
1000030e0:	4c 89 4a 08 	movq	%r9, 8(%rdx)
1000030e4:	66 0f d7 c0 	pmovmskb	%xmm0, %eax
1000030e8:	48 2b f1 	subq	%rcx, %rsi
1000030eb:	49 83 e8 20 	subq	$32, %r8
1000030ef:	0f 86 15 1c 00 00 	jbe	7189 <___intel_ssse3_strncpy+0x1D1A>
1000030f5:	48 85 c0 	testq	%rax, %rax
1000030f8:	0f 85 02 1a 00 00 	jne	6658 <___intel_ssse3_strncpy+0x1B10>
1000030fe:	48 89 d0 	movq	%rdx, %rax
100003101:	48 8d 52 10 	leaq	16(%rdx), %rdx
100003105:	48 83 e2 f0 	andq	$-16, %rdx
100003109:	48 2b c2 	subq	%rdx, %rax
10000310c:	48 03 f0 	addq	%rax, %rsi
10000310f:	48 8d 76 ff 	leaq	-1(%rsi), %rsi
100003113:	81 e6 00 00 00 80 	andl	$2147483648, %esi
100003119:	48 85 f6 	testq	%rsi, %rsi
10000311c:	75 04 	jne	4 <___intel_ssse3_strncpy+0x132>
10000311e:	4d 8d 40 10 	leaq	16(%r8), %r8
100003122:	48 2b c8 	subq	%rax, %rcx
100003125:	48 89 c8 	movq	%rcx, %rax
100003128:	48 83 e0 0f 	andq	$15, %rax
10000312c:	48 c7 c6 00 00 00 00 	movq	$0, %rsi
100003133:	0f 84 8e 00 00 00 	je	142 <___intel_ssse3_strncpy+0x1D7>
100003139:	48 83 f8 08 	cmpq	$8, %rax
10000313d:	73 41 	jae	65 <___intel_ssse3_strncpy+0x190>
10000313f:	48 83 f8 01 	cmpq	$1, %rax
100003143:	0f 84 57 02 00 00 	je	599 <___intel_ssse3_strncpy+0x3B0>
100003149:	48 83 f8 02 	cmpq	$2, %rax
10000314d:	0f 84 dd 03 00 00 	je	989 <___intel_ssse3_strncpy+0x540>
100003153:	48 83 f8 03 	cmpq	$3, %rax
100003157:	0f 84 63 05 00 00 	je	1379 <___intel_ssse3_strncpy+0x6D0>
10000315d:	48 83 f8 04 	cmpq	$4, %rax
100003161:	0f 84 e9 06 00 00 	je	1769 <___intel_ssse3_strncpy+0x860>
100003167:	48 83 f8 05 	cmpq	$5, %rax
10000316b:	0f 84 6f 08 00 00 	je	2159 <___intel_ssse3_strncpy+0x9F0>
100003171:	48 83 f8 06 	cmpq	$6, %rax
100003175:	0f 84 f5 09 00 00 	je	2549 <___intel_ssse3_strncpy+0xB80>
10000317b:	e9 80 0b 00 00 	jmp	2944 <___intel_ssse3_strncpy+0xD10>
100003180:	0f 84 0a 0d 00 00 	je	3338 <___intel_ssse3_strncpy+0xEA0>
100003186:	48 83 f8 09 	cmpq	$9, %rax
10000318a:	0f 84 90 0e 00 00 	je	3728 <___intel_ssse3_strncpy+0x1030>
100003190:	48 83 f8 0a 	cmpq	$10, %rax
100003194:	0f 84 16 10 00 00 	je	4118 <___intel_ssse3_strncpy+0x11C0>
10000319a:	48 83 f8 0b 	cmpq	$11, %rax
10000319e:	0f 84 9c 11 00 00 	je	4508 <___intel_ssse3_strncpy+0x1350>
1000031a4:	48 83 f8 0c 	cmpq	$12, %rax
1000031a8:	0f 84 22 13 00 00 	je	4898 <___intel_ssse3_strncpy+0x14E0>
1000031ae:	48 83 f8 0d 	cmpq	$13, %rax
1000031b2:	0f 84 a8 14 00 00 	je	5288 <___intel_ssse3_strncpy+0x1670>
1000031b8:	48 83 f8 0e 	cmpq	$14, %rax
1000031bc:	0f 84 2e 16 00 00 	je	5678 <___intel_ssse3_strncpy+0x1800>
1000031c2:	e9 b9 17 00 00 	jmp	6073 <___intel_ssse3_strncpy+0x1990>
1000031c7:	0f 28 09 	movaps	(%rcx), %xmm1
1000031ca:	0f 28 51 10 	movaps	16(%rcx), %xmm2
1000031ce:	0f 29 0a 	movaps	%xmm1, (%rdx)
1000031d1:	66 0f 74 c2 	pcmpeqb	%xmm2, %xmm0
1000031d5:	66 0f d7 c0 	pmovmskb	%xmm0, %eax
1000031d9:	48 8d 76 10 	leaq	16(%rsi), %rsi
1000031dd:	49 83 e8 10 	subq	$16, %r8
1000031e1:	0f 86 23 1b 00 00 	jbe	6947 <___intel_ssse3_strncpy+0x1D1A>
1000031e7:	48 85 c0 	testq	%rax, %rax
1000031ea:	0f 85 10 19 00 00 	jne	6416 <___intel_ssse3_strncpy+0x1B10>
1000031f0:	0f 28 5c 31 10 	movaps	16(%rcx,%rsi), %xmm3
1000031f5:	0f 29 14 32 	movaps	%xmm2, (%rdx,%rsi)
1000031f9:	66 0f 74 c3 	pcmpeqb	%xmm3, %xmm0
1000031fd:	66 0f d7 c0 	pmovmskb	%xmm0, %eax
100003201:	48 8d 76 10 	leaq	16(%rsi), %rsi
100003205:	49 83 e8 10 	subq	$16, %r8
100003209:	0f 86 fb 1a 00 00 	jbe	6907 <___intel_ssse3_strncpy+0x1D1A>
10000320f:	48 85 c0 	testq	%rax, %rax
100003212:	0f 85 e8 18 00 00 	jne	6376 <___intel_ssse3_strncpy+0x1B10>
100003218:	0f 28 64 31 10 	movaps	16(%rcx,%rsi), %xmm4
10000321d:	0f 29 1c 32 	movaps	%xmm3, (%rdx,%rsi)
100003221:	66 0f 74 c4 	pcmpeqb	%xmm4, %xmm0
100003225:	66 0f d7 c0 	pmovmskb	%xmm0, %eax
100003229:	48 8d 76 10 	leaq	16(%rsi), %rsi
10000322d:	49 83 e8 10 	subq	$16, %r8
100003231:	0f 86 d3 1a 00 00 	jbe	6867 <___intel_ssse3_strncpy+0x1D1A>
100003237:	48 85 c0 	testq	%rax, %rax
10000323a:	0f 85 c0 18 00 00 	jne	6336 <___intel_ssse3_strncpy+0x1B10>
100003240:	0f 28 4c 31 10 	movaps	16(%rcx,%rsi), %xmm1
100003245:	0f 29 24 32 	movaps	%xmm4, (%rdx,%rsi)
100003249:	66 0f 74 c1 	pcmpeqb	%xmm1, %xmm0
10000324d:	66 0f d7 c0 	pmovmskb	%xmm0, %eax
100003251:	48 8d 76 10 	leaq	16(%rsi), %rsi
100003255:	49 83 e8 10 	subq	$16, %r8
100003259:	0f 86 ab 1a 00 00 	jbe	6827 <___intel_ssse3_strncpy+0x1D1A>
10000325f:	48 85 c0 	testq	%rax, %rax
100003262:	0f 85 98 18 00 00 	jne	6296 <___intel_ssse3_strncpy+0x1B10>
100003268:	0f 28 54 31 10 	movaps	16(%rcx,%rsi), %xmm2
10000326d:	0f 29 0c 32 	movaps	%xmm1, (%rdx,%rsi)
100003271:	66 0f 74 c2 	pcmpeqb	%xmm2, %xmm0
100003275:	66 0f d7 c0 	pmovmskb	%xmm0, %eax
100003279:	48 8d 76 10 	leaq	16(%rsi), %rsi
10000327d:	49 83 e8 10 	subq	$16, %r8
100003281:	0f 86 83 1a 00 00 	jbe	6787 <___intel_ssse3_strncpy+0x1D1A>
100003287:	48 85 c0 	testq	%rax, %rax
10000328a:	0f 85 70 18 00 00 	jne	6256 <___intel_ssse3_strncpy+0x1B10>
100003290:	0f 28 5c 31 10 	movaps	16(%rcx,%rsi), %xmm3
100003295:	0f 29 14 32 	movaps	%xmm2, (%rdx,%rsi)
100003299:	66 0f 74 c3 	pcmpeqb	%xmm3, %xmm0
10000329d:	66 0f d7 c0 	pmovmskb	%xmm0, %eax
1000032a1:	48 8d 76 10 	leaq	16(%rsi), %rsi
1000032a5:	49 83 e8 10 	subq	$16, %r8
1000032a9:	0f 86 5b 1a 00 00 	jbe	6747 <___intel_ssse3_strncpy+0x1D1A>
1000032af:	48 85 c0 	testq	%rax, %rax
1000032b2:	0f 85 48 18 00 00 	jne	6216 <___intel_ssse3_strncpy+0x1B10>
1000032b8:	0f 29 1c 32 	movaps	%xmm3, (%rdx,%rsi)
1000032bc:	48 89 c8 	movq	%rcx, %rax
1000032bf:	48 8d 4c 31 10 	leaq	16(%rcx,%rsi), %rcx
1000032c4:	48 83 e1 c0 	andq	$-64, %rcx
1000032c8:	48 2b c1 	subq	%rcx, %rax
1000032cb:	48 2b d0 	subq	%rax, %rdx
1000032ce:	4d 8d 44 00 70 	leaq	112(%r8,%rax), %r8
1000032d3:	48 be c0 ff ff ff ff ff ff ff 	movabsq	$-64, %rsi
1000032dd:	0f 28 11 	movaps	(%rcx), %xmm2
1000032e0:	0f 28 e2 	movaps	%xmm2, %xmm4
1000032e3:	0f 28 69 10 	movaps	16(%rcx), %xmm5
1000032e7:	0f 28 59 20 	movaps	32(%rcx), %xmm3
1000032eb:	0f 28 f3 	movaps	%xmm3, %xmm6
1000032ee:	0f 28 79 30 	movaps	48(%rcx), %xmm7
1000032f2:	66 0f da d5 	pminub	%xmm5, %xmm2
1000032f6:	66 0f da df 	pminub	%xmm7, %xmm3
1000032fa:	66 0f da da 	pminub	%xmm2, %xmm3
1000032fe:	66 0f 74 d8 	pcmpeqb	%xmm0, %xmm3
100003302:	66 0f d7 c3 	pmovmskb	%xmm3, %eax
100003306:	48 8d 52 40 	leaq	64(%rdx), %rdx
10000330a:	48 8d 49 40 	leaq	64(%rcx), %rcx
10000330e:	49 83 e8 40 	subq	$64, %r8
100003312:	0f 86 bd 1f 00 00 	jbe	8125 <___intel_ssse3_strncpy+0x22E5>
100003318:	48 85 c0 	testq	%rax, %rax
10000331b:	75 12 	jne	18 <___intel_ssse3_strncpy+0x33F>
10000331d:	0f 29 62 c0 	movaps	%xmm4, -64(%rdx)
100003321:	0f 29 6a d0 	movaps	%xmm5, -48(%rdx)
100003325:	0f 29 72 e0 	movaps	%xmm6, -32(%rdx)
100003329:	0f 29 7a f0 	movaps	%xmm7, -16(%rdx)
10000332d:	eb ae 	jmp	-82 <___intel_ssse3_strncpy+0x2ED>
10000332f:	4d 8d 40 30 	leaq	48(%r8), %r8
100003333:	66 0f 74 c4 	pcmpeqb	%xmm4, %xmm0
100003337:	66 0f d7 c0 	pmovmskb	%xmm0, %eax
10000333b:	48 85 c0 	testq	%rax, %rax
10000333e:	0f 85 bc 17 00 00 	jne	6076 <___intel_ssse3_strncpy+0x1B10>
100003344:	66 0f 74 c5 	pcmpeqb	%xmm5, %xmm0
100003348:	4d 8d 40 f0 	leaq	-16(%r8), %r8
10000334c:	66 0f d7 c0 	pmovmskb	%xmm0, %eax
100003350:	0f 29 62 c0 	movaps	%xmm4, -64(%rdx)
100003354:	48 85 c0 	testq	%rax, %rax
100003357:	48 8d 76 10 	leaq	16(%rsi), %rsi
10000335b:	0f 85 9f 17 00 00 	jne	6047 <___intel_ssse3_strncpy+0x1B10>
100003361:	66 0f 74 c6 	pcmpeqb	%xmm6, %xmm0
100003365:	4d 8d 40 f0 	leaq	-16(%r8), %r8
100003369:	66 0f d7 c0 	pmovmskb	%xmm0, %eax
10000336d:	0f 29 6a d0 	movaps	%xmm5, -48(%rdx)
100003371:	48 85 c0 	testq	%rax, %rax
100003374:	48 8d 76 10 	leaq	16(%rsi), %rsi
100003378:	0f 85 82 17 00 00 	jne	6018 <___intel_ssse3_strncpy+0x1B10>
10000337e:	0f 29 72 e0 	movaps	%xmm6, -32(%rdx)
100003382:	66 0f 74 c7 	pcmpeqb	%xmm7, %xmm0
100003386:	4d 8d 40 f0 	leaq	-16(%r8), %r8
10000338a:	66 0f d7 c0 	pmovmskb	%xmm0, %eax
10000338e:	48 8d 76 10 	leaq	16(%rsi), %rsi
100003392:	e9 69 17 00 00 	jmp	5993 <___intel_ssse3_strncpy+0x1B10>
100003397:	66 0f 1f 84 00 00 00 00 00 	nopw	(%rax,%rax)
1000033a0:	0f 28 49 ff 	movaps	-1(%rcx), %xmm1
1000033a4:	0f 28 51 0f 	movaps	15(%rcx), %xmm2
1000033a8:	66 0f 74 c2 	pcmpeqb	%xmm2, %xmm0
1000033ac:	66 0f d7 c0 	pmovmskb	%xmm0, %eax
1000033b0:	0f 28 da 	movaps	%xmm2, %xmm3
1000033b3:	49 83 e8 10 	subq	$16, %r8
1000033b7:	0f 86 da 1f 00 00 	jbe	8154 <___intel_ssse3_strncpy+0x23A7>
1000033bd:	48 85 c0 	testq	%rax, %rax
1000033c0:	0f 85 42 01 00 00 	jne	322 <___intel_ssse3_strncpy+0x518>
1000033c6:	66 0f 3a 0f d1 01 	palignr	$1, %xmm1, %xmm2
1000033cc:	0f 28 cb 	movaps	%xmm3, %xmm1
1000033cf:	0f 29 12 	movaps	%xmm2, (%rdx)
1000033d2:	0f 28 51 1f 	movaps	31(%rcx), %xmm2
1000033d6:	66 0f 74 c2 	pcmpeqb	%xmm2, %xmm0
1000033da:	48 8d 52 10 	leaq	16(%rdx), %rdx
1000033de:	66 0f d7 c0 	pmovmskb	%xmm0, %eax
1000033e2:	48 8d 49 10 	leaq	16(%rcx), %rcx
1000033e6:	0f 28 da 	movaps	%xmm2, %xmm3
1000033e9:	49 83 e8 10 	subq	$16, %r8
1000033ed:	0f 86 a4 1f 00 00 	jbe	8100 <___intel_ssse3_strncpy+0x23A7>
1000033f3:	48 85 c0 	testq	%rax, %rax
1000033f6:	0f 85 0c 01 00 00 	jne	268 <___intel_ssse3_strncpy+0x518>
1000033fc:	66 0f 3a 0f d1 01 	palignr	$1, %xmm1, %xmm2
100003402:	0f 29 12 	movaps	%xmm2, (%rdx)
100003405:	0f 28 51 1f 	movaps	31(%rcx), %xmm2
100003409:	0f 28 cb 	movaps	%xmm3, %xmm1
10000340c:	66 0f 74 c2 	pcmpeqb	%xmm2, %xmm0
100003410:	48 8d 52 10 	leaq	16(%rdx), %rdx
100003414:	66 0f d7 c0 	pmovmskb	%xmm0, %eax
100003418:	48 8d 49 10 	leaq	16(%rcx), %rcx
10000341c:	0f 28 da 	movaps	%xmm2, %xmm3
10000341f:	49 83 e8 10 	subq	$16, %r8
100003423:	0f 86 6e 1f 00 00 	jbe	8046 <___intel_ssse3_strncpy+0x23A7>
100003429:	48 85 c0 	testq	%rax, %rax
10000342c:	0f 85 d6 00 00 00 	jne	214 <___intel_ssse3_strncpy+0x518>
100003432:	66 0f 3a 0f d1 01 	palignr	$1, %xmm1, %xmm2
100003438:	0f 28 cb 	movaps	%xmm3, %xmm1
10000343b:	0f 29 12 	movaps	%xmm2, (%rdx)
10000343e:	0f 28 51 1f 	movaps	31(%rcx), %xmm2
100003442:	66 0f 74 c2 	pcmpeqb	%xmm2, %xmm0
100003446:	48 8d 52 10 	leaq	16(%rdx), %rdx
10000344a:	66 0f d7 c0 	pmovmskb	%xmm0, %eax
10000344e:	48 8d 49 10 	leaq	16(%rcx), %rcx
100003452:	0f 28 da 	movaps	%xmm2, %xmm3
100003455:	49 83 e8 10 	subq	$16, %r8
100003459:	0f 86 38 1f 00 00 	jbe	7992 <___intel_ssse3_strncpy+0x23A7>
10000345f:	48 85 c0 	testq	%rax, %rax
100003462:	0f 85 a0 00 00 00 	jne	160 <___intel_ssse3_strncpy+0x518>
100003468:	66 0f 3a 0f d1 01 	palignr	$1, %xmm1, %xmm2
10000346e:	0f 28 cb 	movaps	%xmm3, %xmm1
100003471:	0f 29 12 	movaps	%xmm2, (%rdx)
100003474:	48 8d 49 1f 	leaq	31(%rcx), %rcx
100003478:	48 8d 52 10 	leaq	16(%rdx), %rdx
10000347c:	48 89 c8 	movq	%rcx, %rax
10000347f:	48 83 e1 c0 	andq	$-64, %rcx
100003483:	48 2b c1 	subq	%rcx, %rax
100003486:	48 8d 49 f1 	leaq	-15(%rcx), %rcx
10000348a:	48 2b d0 	subq	%rax, %rdx
10000348d:	4c 03 c0 	addq	%rax, %r8
100003490:	0f 28 49 ff 	movaps	-1(%rcx), %xmm1
100003494:	0f 28 51 0f 	movaps	15(%rcx), %xmm2
100003498:	0f 28 59 1f 	movaps	31(%rcx), %xmm3
10000349c:	0f 28 f3 	movaps	%xmm3, %xmm6
10000349f:	0f 28 61 2f 	movaps	47(%rcx), %xmm4
1000034a3:	0f 28 fc 	movaps	%xmm4, %xmm7
1000034a6:	0f 28 69 3f 	movaps	63(%rcx), %xmm5
1000034aa:	66 0f da f2 	pminub	%xmm2, %xmm6
1000034ae:	66 0f da fd 	pminub	%xmm5, %xmm7
1000034b2:	66 0f da fe 	pminub	%xmm6, %xmm7
1000034b6:	66 0f 74 f8 	pcmpeqb	%xmm0, %xmm7
1000034ba:	66 0f d7 c7 	pmovmskb	%xmm7, %eax
1000034be:	0f 28 fd 	movaps	%xmm5, %xmm7
1000034c1:	66 0f 3a 0f ec 01 	palignr	$1, %xmm4, %xmm5
1000034c7:	48 85 c0 	testq	%rax, %rax
1000034ca:	66 0f 3a 0f e3 01 	palignr	$1, %xmm3, %xmm4
1000034d0:	0f 85 d2 fe ff ff 	jne	-302 <___intel_ssse3_strncpy+0x3B8>
1000034d6:	49 83 e8 40 	subq	$64, %r8
1000034da:	0f 86 f1 20 00 00 	jbe	8433 <___intel_ssse3_strncpy+0x25E1>
1000034e0:	66 0f 3a 0f da 01 	palignr	$1, %xmm2, %xmm3
1000034e6:	48 8d 49 40 	leaq	64(%rcx), %rcx
1000034ea:	66 0f 3a 0f d1 01 	palignr	$1, %xmm1, %xmm2
1000034f0:	0f 28 cf 	movaps	%xmm7, %xmm1
1000034f3:	0f 29 6a 30 	movaps	%xmm5, 48(%rdx)
1000034f7:	0f 29 62 20 	movaps	%xmm4, 32(%rdx)
1000034fb:	0f 29 5a 10 	movaps	%xmm3, 16(%rdx)
1000034ff:	0f 29 12 	movaps	%xmm2, (%rdx)
100003502:	48 8d 52 40 	leaq	64(%rdx), %rdx
100003506:	eb 8c 	jmp	-116 <___intel_ssse3_strncpy+0x4A4>
100003508:	0f 28 32 	movaps	(%rdx), %xmm6
10000350b:	66 0f 73 de 0f 	psrldq	$15, %xmm6
100003510:	48 c7 c6 0f 00 00 00 	movq	$15, %rsi
100003517:	66 0f 3a 0f f1 01 	palignr	$1, %xmm1, %xmm6
10000351d:	0f 29 32 	movaps	%xmm6, (%rdx)
100003520:	e9 db 15 00 00 	jmp	5595 <___intel_ssse3_strncpy+0x1B10>
100003525:	0f 1f 40 00 	nopl	(%rax)
100003529:	0f 1f 80 00 00 00 00 	nopl	(%rax)
100003530:	0f 28 49 fe 	movaps	-2(%rcx), %xmm1
100003534:	0f 28 51 0e 	movaps	14(%rcx), %xmm2
100003538:	66 0f 74 c2 	pcmpeqb	%xmm2, %xmm0
10000353c:	66 0f d7 c0 	pmovmskb	%xmm0, %eax
100003540:	0f 28 da 	movaps	%xmm2, %xmm3
100003543:	49 83 e8 10 	subq	$16, %r8
100003547:	0f 86 70 1e 00 00 	jbe	7792 <___intel_ssse3_strncpy+0x23CD>
10000354d:	48 85 c0 	testq	%rax, %rax
100003550:	0f 85 42 01 00 00 	jne	322 <___intel_ssse3_strncpy+0x6A8>
100003556:	66 0f 3a 0f d1 02 	palignr	$2, %xmm1, %xmm2
10000355c:	0f 28 cb 	movaps	%xmm3, %xmm1
10000355f:	0f 29 12 	movaps	%xmm2, (%rdx)
100003562:	0f 28 51 1e 	movaps	30(%rcx), %xmm2
100003566:	66 0f 74 c2 	pcmpeqb	%xmm2, %xmm0
10000356a:	48 8d 52 10 	leaq	16(%rdx), %rdx
10000356e:	66 0f d7 c0 	pmovmskb	%xmm0, %eax
100003572:	48 8d 49 10 	leaq	16(%rcx), %rcx
100003576:	0f 28 da 	movaps	%xmm2, %xmm3
100003579:	49 83 e8 10 	subq	$16, %r8
10000357d:	0f 86 3a 1e 00 00 	jbe	7738 <___intel_ssse3_strncpy+0x23CD>
100003583:	48 85 c0 	testq	%rax, %rax
100003586:	0f 85 0c 01 00 00 	jne	268 <___intel_ssse3_strncpy+0x6A8>
10000358c:	66 0f 3a 0f d1 02 	palignr	$2, %xmm1, %xmm2
100003592:	0f 29 12 	movaps	%xmm2, (%rdx)
100003595:	0f 28 51 1e 	movaps	30(%rcx), %xmm2
100003599:	0f 28 cb 	movaps	%xmm3, %xmm1
10000359c:	66 0f 74 c2 	pcmpeqb	%xmm2, %xmm0
1000035a0:	48 8d 52 10 	leaq	16(%rdx), %rdx
1000035a4:	66 0f d7 c0 	pmovmskb	%xmm0, %eax
1000035a8:	48 8d 49 10 	leaq	16(%rcx), %rcx
1000035ac:	0f 28 da 	movaps	%xmm2, %xmm3
1000035af:	49 83 e8 10 	subq	$16, %r8
1000035b3:	0f 86 04 1e 00 00 	jbe	7684 <___intel_ssse3_strncpy+0x23CD>
1000035b9:	48 85 c0 	testq	%rax, %rax
1000035bc:	0f 85 d6 00 00 00 	jne	214 <___intel_ssse3_strncpy+0x6A8>
1000035c2:	66 0f 3a 0f d1 02 	palignr	$2, %xmm1, %xmm2
1000035c8:	0f 28 cb 	movaps	%xmm3, %xmm1
1000035cb:	0f 29 12 	movaps	%xmm2, (%rdx)
1000035ce:	0f 28 51 1e 	movaps	30(%rcx), %xmm2
1000035d2:	66 0f 74 c2 	pcmpeqb	%xmm2, %xmm0
1000035d6:	48 8d 52 10 	leaq	16(%rdx), %rdx
1000035da:	66 0f d7 c0 	pmovmskb	%xmm0, %eax
1000035de:	48 8d 49 10 	leaq	16(%rcx), %rcx
1000035e2:	0f 28 da 	movaps	%xmm2, %xmm3
1000035e5:	49 83 e8 10 	subq	$16, %r8
1000035e9:	0f 86 ce 1d 00 00 	jbe	7630 <___intel_ssse3_strncpy+0x23CD>
1000035ef:	48 85 c0 	testq	%rax, %rax
1000035f2:	0f 85 a0 00 00 00 	jne	160 <___intel_ssse3_strncpy+0x6A8>
1000035f8:	66 0f 3a 0f d1 02 	palignr	$2, %xmm1, %xmm2
1000035fe:	0f 28 cb 	movaps	%xmm3, %xmm1
100003601:	0f 29 12 	movaps	%xmm2, (%rdx)
100003604:	48 8d 49 1e 	leaq	30(%rcx), %rcx
100003608:	48 8d 52 10 	leaq	16(%rdx), %rdx
10000360c:	48 89 c8 	movq	%rcx, %rax
10000360f:	48 83 e1 c0 	andq	$-64, %rcx
100003613:	48 2b c1 	subq	%rcx, %rax
100003616:	48 8d 49 f2 	leaq	-14(%rcx), %rcx
10000361a:	48 2b d0 	subq	%rax, %rdx
10000361d:	4c 03 c0 	addq	%rax, %r8
100003620:	0f 28 49 fe 	movaps	-2(%rcx), %xmm1
100003624:	0f 28 51 0e 	movaps	14(%rcx), %xmm2
100003628:	0f 28 59 1e 	movaps	30(%rcx), %xmm3
10000362c:	0f 28 f3 	movaps	%xmm3, %xmm6
10000362f:	0f 28 61 2e 	movaps	46(%rcx), %xmm4
100003633:	0f 28 fc 	movaps	%xmm4, %xmm7
100003636:	0f 28 69 3e 	movaps	62(%rcx), %xmm5
10000363a:	66 0f da f2 	pminub	%xmm2, %xmm6
10000363e:	66 0f da fd 	pminub	%xmm5, %xmm7
100003642:	66 0f da fe 	pminub	%xmm6, %xmm7
100003646:	66 0f 74 f8 	pcmpeqb	%xmm0, %xmm7
10000364a:	66 0f d7 c7 	pmovmskb	%xmm7, %eax
10000364e:	0f 28 fd 	movaps	%xmm5, %xmm7
100003651:	66 0f 3a 0f ec 02 	palignr	$2, %xmm4, %xmm5
100003657:	48 85 c0 	testq	%rax, %rax
10000365a:	66 0f 3a 0f e3 02 	palignr	$2, %xmm3, %xmm4
100003660:	0f 85 d2 fe ff ff 	jne	-302 <___intel_ssse3_strncpy+0x548>
100003666:	49 83 e8 40 	subq	$64, %r8
10000366a:	0f 86 de 1f 00 00 	jbe	8158 <___intel_ssse3_strncpy+0x265E>
100003670:	66 0f 3a 0f da 02 	palignr	$2, %xmm2, %xmm3
100003676:	48 8d 49 40 	leaq	64(%rcx), %rcx
10000367a:	66 0f 3a 0f d1 02 	palignr	$2, %xmm1, %xmm2
100003680:	0f 28 cf 	movaps	%xmm7, %xmm1
100003683:	0f 29 6a 30 	movaps	%xmm5, 48(%rdx)
100003687:	0f 29 62 20 	movaps	%xmm4, 32(%rdx)
10000368b:	0f 29 5a 10 	movaps	%xmm3, 16(%rdx)
10000368f:	0f 29 12 	movaps	%xmm2, (%rdx)
100003692:	48 8d 52 40 	leaq	64(%rdx), %rdx
100003696:	eb 8c 	jmp	-116 <___intel_ssse3_strncpy+0x634>
100003698:	0f 28 32 	movaps	(%rdx), %xmm6
10000369b:	66 0f 73 de 0e 	psrldq	$14, %xmm6
1000036a0:	48 c7 c6 0e 00 00 00 	movq	$14, %rsi
1000036a7:	66 0f 3a 0f f1 02 	palignr	$2, %xmm1, %xmm6
1000036ad:	0f 29 32 	movaps	%xmm6, (%rdx)
1000036b0:	e9 4b 14 00 00 	jmp	5195 <___intel_ssse3_strncpy+0x1B10>
1000036b5:	0f 1f 40 00 	nopl	(%rax)
1000036b9:	0f 1f 80 00 00 00 00 	nopl	(%rax)
1000036c0:	0f 28 49 fd 	movaps	-3(%rcx), %xmm1
1000036c4:	0f 28 51 0d 	movaps	13(%rcx), %xmm2
1000036c8:	66 0f 74 c2 	pcmpeqb	%xmm2, %xmm0
1000036cc:	66 0f d7 c0 	pmovmskb	%xmm0, %eax
1000036d0:	0f 28 da 	movaps	%xmm2, %xmm3
1000036d3:	49 83 e8 10 	subq	$16, %r8
1000036d7:	0f 86 06 1d 00 00 	jbe	7430 <___intel_ssse3_strncpy+0x23F3>
1000036dd:	48 85 c0 	testq	%rax, %rax
1000036e0:	0f 85 42 01 00 00 	jne	322 <___intel_ssse3_strncpy+0x838>
1000036e6:	66 0f 3a 0f d1 03 	palignr	$3, %xmm1, %xmm2
1000036ec:	0f 28 cb 	movaps	%xmm3, %xmm1
1000036ef:	0f 29 12 	movaps	%xmm2, (%rdx)
1000036f2:	0f 28 51 1d 	movaps	29(%rcx), %xmm2
1000036f6:	66 0f 74 c2 	pcmpeqb	%xmm2, %xmm0
1000036fa:	48 8d 52 10 	leaq	16(%rdx), %rdx
1000036fe:	66 0f d7 c0 	pmovmskb	%xmm0, %eax
100003702:	48 8d 49 10 	leaq	16(%rcx), %rcx
100003706:	0f 28 da 	movaps	%xmm2, %xmm3
100003709:	49 83 e8 10 	subq	$16, %r8
10000370d:	0f 86 d0 1c 00 00 	jbe	7376 <___intel_ssse3_strncpy+0x23F3>
100003713:	48 85 c0 	testq	%rax, %rax
100003716:	0f 85 0c 01 00 00 	jne	268 <___intel_ssse3_strncpy+0x838>
10000371c:	66 0f 3a 0f d1 03 	palignr	$3, %xmm1, %xmm2
100003722:	0f 29 12 	movaps	%xmm2, (%rdx)
100003725:	0f 28 51 1d 	movaps	29(%rcx), %xmm2
100003729:	0f 28 cb 	movaps	%xmm3, %xmm1
10000372c:	66 0f 74 c2 	pcmpeqb	%xmm2, %xmm0
100003730:	48 8d 52 10 	leaq	16(%rdx), %rdx
100003734:	66 0f d7 c0 	pmovmskb	%xmm0, %eax
100003738:	48 8d 49 10 	leaq	16(%rcx), %rcx
10000373c:	0f 28 da 	movaps	%xmm2, %xmm3
10000373f:	49 83 e8 10 	subq	$16, %r8
100003743:	0f 86 9a 1c 00 00 	jbe	7322 <___intel_ssse3_strncpy+0x23F3>
100003749:	48 85 c0 	testq	%rax, %rax
10000374c:	0f 85 d6 00 00 00 	jne	214 <___intel_ssse3_strncpy+0x838>
100003752:	66 0f 3a 0f d1 03 	palignr	$3, %xmm1, %xmm2
100003758:	0f 28 cb 	movaps	%xmm3, %xmm1
10000375b:	0f 29 12 	movaps	%xmm2, (%rdx)
10000375e:	0f 28 51 1d 	movaps	29(%rcx), %xmm2
100003762:	66 0f 74 c2 	pcmpeqb	%xmm2, %xmm0
100003766:	48 8d 52 10 	leaq	16(%rdx), %rdx
10000376a:	66 0f d7 c0 	pmovmskb	%xmm0, %eax
10000376e:	48 8d 49 10 	leaq	16(%rcx), %rcx
100003772:	0f 28 da 	movaps	%xmm2, %xmm3
100003775:	49 83 e8 10 	subq	$16, %r8
100003779:	0f 86 64 1c 00 00 	jbe	7268 <___intel_ssse3_strncpy+0x23F3>
10000377f:	48 85 c0 	testq	%rax, %rax
100003782:	0f 85 a0 00 00 00 	jne	160 <___intel_ssse3_strncpy+0x838>
100003788:	66 0f 3a 0f d1 03 	palignr	$3, %xmm1, %xmm2
10000378e:	0f 28 cb 	movaps	%xmm3, %xmm1
100003791:	0f 29 12 	movaps	%xmm2, (%rdx)
100003794:	48 8d 49 1d 	leaq	29(%rcx), %rcx
100003798:	48 8d 52 10 	leaq	16(%rdx), %rdx
10000379c:	48 89 c8 	movq	%rcx, %rax
10000379f:	48 83 e1 c0 	andq	$-64, %rcx
1000037a3:	48 2b c1 	subq	%rcx, %rax
1000037a6:	48 8d 49 f3 	leaq	-13(%rcx), %rcx
1000037aa:	48 2b d0 	subq	%rax, %rdx
1000037ad:	4c 03 c0 	addq	%rax, %r8
1000037b0:	0f 28 49 fd 	movaps	-3(%rcx), %xmm1
1000037b4:	0f 28 51 0d 	movaps	13(%rcx), %xmm2
1000037b8:	0f 28 59 1d 	movaps	29(%rcx), %xmm3
1000037bc:	0f 28 f3 	movaps	%xmm3, %xmm6
1000037bf:	0f 28 61 2d 	movaps	45(%rcx), %xmm4
1000037c3:	0f 28 fc 	movaps	%xmm4, %xmm7
1000037c6:	0f 28 69 3d 	movaps	61(%rcx), %xmm5
1000037ca:	66 0f da f2 	pminub	%xmm2, %xmm6
1000037ce:	66 0f da fd 	pminub	%xmm5, %xmm7
1000037d2:	66 0f da fe 	pminub	%xmm6, %xmm7
1000037d6:	66 0f 74 f8 	pcmpeqb	%xmm0, %xmm7
1000037da:	66 0f d7 c7 	pmovmskb	%xmm7, %eax
1000037de:	0f 28 fd 	movaps	%xmm5, %xmm7
1000037e1:	66 0f 3a 0f ec 03 	palignr	$3, %xmm4, %xmm5
1000037e7:	48 85 c0 	testq	%rax, %rax
1000037ea:	66 0f 3a 0f e3 03 	palignr	$3, %xmm3, %xmm4
1000037f0:	0f 85 d2 fe ff ff 	jne	-302 <___intel_ssse3_strncpy+0x6D8>
1000037f6:	49 83 e8 40 	subq	$64, %r8
1000037fa:	0f 86 cb 1e 00 00 	jbe	7883 <___intel_ssse3_strncpy+0x26DB>
100003800:	66 0f 3a 0f da 03 	palignr	$3, %xmm2, %xmm3
100003806:	48 8d 49 40 	leaq	64(%rcx), %rcx
10000380a:	66 0f 3a 0f d1 03 	palignr	$3, %xmm1, %xmm2
100003810:	0f 28 cf 	movaps	%xmm7, %xmm1
100003813:	0f 29 6a 30 	movaps	%xmm5, 48(%rdx)
100003817:	0f 29 62 20 	movaps	%xmm4, 32(%rdx)
10000381b:	0f 29 5a 10 	movaps	%xmm3, 16(%rdx)
10000381f:	0f 29 12 	movaps	%xmm2, (%rdx)
100003822:	48 8d 52 40 	leaq	64(%rdx), %rdx
100003826:	eb 8c 	jmp	-116 <___intel_ssse3_strncpy+0x7C4>
100003828:	0f 28 32 	movaps	(%rdx), %xmm6
10000382b:	66 0f 73 de 0d 	psrldq	$13, %xmm6
100003830:	48 c7 c6 0d 00 00 00 	movq	$13, %rsi
100003837:	66 0f 3a 0f f1 03 	palignr	$3, %xmm1, %xmm6
10000383d:	0f 29 32 	movaps	%xmm6, (%rdx)
100003840:	e9 bb 12 00 00 	jmp	4795 <___intel_ssse3_strncpy+0x1B10>
100003845:	0f 1f 40 00 	nopl	(%rax)
100003849:	0f 1f 80 00 00 00 00 	nopl	(%rax)
100003850:	0f 28 49 fc 	movaps	-4(%rcx), %xmm1
100003854:	0f 28 51 0c 	movaps	12(%rcx), %xmm2
100003858:	66 0f 74 c2 	pcmpeqb	%xmm2, %xmm0
10000385c:	66 0f d7 c0 	pmovmskb	%xmm0, %eax
100003860:	0f 28 da 	movaps	%xmm2, %xmm3
100003863:	49 83 e8 10 	subq	$16, %r8
100003867:	0f 86 9c 1b 00 00 	jbe	7068 <___intel_ssse3_strncpy+0x2419>
10000386d:	48 85 c0 	testq	%rax, %rax
100003870:	0f 85 42 01 00 00 	jne	322 <___intel_ssse3_strncpy+0x9C8>
100003876:	66 0f 3a 0f d1 04 	palignr	$4, %xmm1, %xmm2
10000387c:	0f 28 cb 	movaps	%xmm3, %xmm1
10000387f:	0f 29 12 	movaps	%xmm2, (%rdx)
100003882:	0f 28 51 1c 	movaps	28(%rcx), %xmm2
100003886:	66 0f 74 c2 	pcmpeqb	%xmm2, %xmm0
10000388a:	48 8d 52 10 	leaq	16(%rdx), %rdx
10000388e:	66 0f d7 c0 	pmovmskb	%xmm0, %eax
100003892:	48 8d 49 10 	leaq	16(%rcx), %rcx
100003896:	0f 28 da 	movaps	%xmm2, %xmm3
100003899:	49 83 e8 10 	subq	$16, %r8
10000389d:	0f 86 66 1b 00 00 	jbe	7014 <___intel_ssse3_strncpy+0x2419>
1000038a3:	48 85 c0 	testq	%rax, %rax
1000038a6:	0f 85 0c 01 00 00 	jne	268 <___intel_ssse3_strncpy+0x9C8>
1000038ac:	66 0f 3a 0f d1 04 	palignr	$4, %xmm1, %xmm2
1000038b2:	0f 29 12 	movaps	%xmm2, (%rdx)
1000038b5:	0f 28 51 1c 	movaps	28(%rcx), %xmm2
1000038b9:	0f 28 cb 	movaps	%xmm3, %xmm1
1000038bc:	66 0f 74 c2 	pcmpeqb	%xmm2, %xmm0
1000038c0:	48 8d 52 10 	leaq	16(%rdx), %rdx
1000038c4:	66 0f d7 c0 	pmovmskb	%xmm0, %eax
1000038c8:	48 8d 49 10 	leaq	16(%rcx), %rcx
1000038cc:	0f 28 da 	movaps	%xmm2, %xmm3
1000038cf:	49 83 e8 10 	subq	$16, %r8
1000038d3:	0f 86 30 1b 00 00 	jbe	6960 <___intel_ssse3_strncpy+0x2419>
1000038d9:	48 85 c0 	testq	%rax, %rax
1000038dc:	0f 85 d6 00 00 00 	jne	214 <___intel_ssse3_strncpy+0x9C8>
1000038e2:	66 0f 3a 0f d1 04 	palignr	$4, %xmm1, %xmm2
1000038e8:	0f 28 cb 	movaps	%xmm3, %xmm1
1000038eb:	0f 29 12 	movaps	%xmm2, (%rdx)
1000038ee:	0f 28 51 1c 	movaps	28(%rcx), %xmm2
1000038f2:	66 0f 74 c2 	pcmpeqb	%xmm2, %xmm0
1000038f6:	48 8d 52 10 	leaq	16(%rdx), %rdx
1000038fa:	66 0f d7 c0 	pmovmskb	%xmm0, %eax
1000038fe:	48 8d 49 10 	leaq	16(%rcx), %rcx
100003902:	0f 28 da 	movaps	%xmm2, %xmm3
100003905:	49 83 e8 10 	subq	$16, %r8
100003909:	0f 86 fa 1a 00 00 	jbe	6906 <___intel_ssse3_strncpy+0x2419>
10000390f:	48 85 c0 	testq	%rax, %rax
100003912:	0f 85 a0 00 00 00 	jne	160 <___intel_ssse3_strncpy+0x9C8>
100003918:	66 0f 3a 0f d1 04 	palignr	$4, %xmm1, %xmm2
10000391e:	0f 28 cb 	movaps	%xmm3, %xmm1
100003921:	0f 29 12 	movaps	%xmm2, (%rdx)
100003924:	48 8d 49 1c 	leaq	28(%rcx), %rcx
100003928:	48 8d 52 10 	leaq	16(%rdx), %rdx
10000392c:	48 89 c8 	movq	%rcx, %rax
10000392f:	48 83 e1 c0 	andq	$-64, %rcx
100003933:	48 2b c1 	subq	%rcx, %rax
100003936:	48 8d 49 f4 	leaq	-12(%rcx), %rcx
10000393a:	48 2b d0 	subq	%rax, %rdx
10000393d:	4c 03 c0 	addq	%rax, %r8
100003940:	0f 28 49 fc 	movaps	-4(%rcx), %xmm1
100003944:	0f 28 51 0c 	movaps	12(%rcx), %xmm2
100003948:	0f 28 59 1c 	movaps	28(%rcx), %xmm3
10000394c:	0f 28 f3 	movaps	%xmm3, %xmm6
10000394f:	0f 28 61 2c 	movaps	44(%rcx), %xmm4
100003953:	0f 28 fc 	movaps	%xmm4, %xmm7
100003956:	0f 28 69 3c 	movaps	60(%rcx), %xmm5
10000395a:	66 0f da f2 	pminub	%xmm2, %xmm6
10000395e:	66 0f da fd 	pminub	%xmm5, %xmm7
100003962:	66 0f da fe 	pminub	%xmm6, %xmm7
100003966:	66 0f 74 f8 	pcmpeqb	%xmm0, %xmm7
10000396a:	66 0f d7 c7 	pmovmskb	%xmm7, %eax
10000396e:	0f 28 fd 	movaps	%xmm5, %xmm7
100003971:	66 0f 3a 0f ec 04 	palignr	$4, %xmm4, %xmm5
100003977:	48 85 c0 	testq	%rax, %rax
10000397a:	66 0f 3a 0f e3 04 	palignr	$4, %xmm3, %xmm4
100003980:	0f 85 d2 fe ff ff 	jne	-302 <___intel_ssse3_strncpy+0x868>
100003986:	49 83 e8 40 	subq	$64, %r8
10000398a:	0f 86 b8 1d 00 00 	jbe	7608 <___intel_ssse3_strncpy+0x2758>
100003990:	66 0f 3a 0f da 04 	palignr	$4, %xmm2, %xmm3
100003996:	48 8d 49 40 	leaq	64(%rcx), %rcx
10000399a:	66 0f 3a 0f d1 04 	palignr	$4, %xmm1, %xmm2
1000039a0:	0f 28 cf 	movaps	%xmm7, %xmm1
1000039a3:	0f 29 6a 30 	movaps	%xmm5, 48(%rdx)
1000039a7:	0f 29 62 20 	movaps	%xmm4, 32(%rdx)
1000039ab:	0f 29 5a 10 	movaps	%xmm3, 16(%rdx)
1000039af:	0f 29 12 	movaps	%xmm2, (%rdx)
1000039b2:	48 8d 52 40 	leaq	64(%rdx), %rdx
1000039b6:	eb 8c 	jmp	-116 <___intel_ssse3_strncpy+0x954>
1000039b8:	0f 28 32 	movaps	(%rdx), %xmm6
1000039bb:	66 0f 73 de 0c 	psrldq	$12, %xmm6
1000039c0:	48 c7 c6 0c 00 00 00 	movq	$12, %rsi
1000039c7:	66 0f 3a 0f f1 04 	palignr	$4, %xmm1, %xmm6
1000039cd:	0f 29 32 	movaps	%xmm6, (%rdx)
1000039d0:	e9 2b 11 00 00 	jmp	4395 <___intel_ssse3_strncpy+0x1B10>
1000039d5:	0f 1f 40 00 	nopl	(%rax)
1000039d9:	0f 1f 80 00 00 00 00 	nopl	(%rax)
1000039e0:	0f 28 49 fb 	movaps	-5(%rcx), %xmm1
1000039e4:	0f 28 51 0b 	movaps	11(%rcx), %xmm2
1000039e8:	66 0f 74 c2 	pcmpeqb	%xmm2, %xmm0
1000039ec:	66 0f d7 c0 	pmovmskb	%xmm0, %eax
1000039f0:	0f 28 da 	movaps	%xmm2, %xmm3
1000039f3:	49 83 e8 10 	subq	$16, %r8
1000039f7:	0f 86 32 1a 00 00 	jbe	6706 <___intel_ssse3_strncpy+0x243F>
1000039fd:	48 85 c0 	testq	%rax, %rax
100003a00:	0f 85 42 01 00 00 	jne	322 <___intel_ssse3_strncpy+0xB58>
100003a06:	66 0f 3a 0f d1 05 	palignr	$5, %xmm1, %xmm2
100003a0c:	0f 28 cb 	movaps	%xmm3, %xmm1
100003a0f:	0f 29 12 	movaps	%xmm2, (%rdx)
100003a12:	0f 28 51 1b 	movaps	27(%rcx), %xmm2
100003a16:	66 0f 74 c2 	pcmpeqb	%xmm2, %xmm0
100003a1a:	48 8d 52 10 	leaq	16(%rdx), %rdx
100003a1e:	66 0f d7 c0 	pmovmskb	%xmm0, %eax
100003a22:	48 8d 49 10 	leaq	16(%rcx), %rcx
100003a26:	0f 28 da 	movaps	%xmm2, %xmm3
100003a29:	49 83 e8 10 	subq	$16, %r8
100003a2d:	0f 86 fc 19 00 00 	jbe	6652 <___intel_ssse3_strncpy+0x243F>
100003a33:	48 85 c0 	testq	%rax, %rax
100003a36:	0f 85 0c 01 00 00 	jne	268 <___intel_ssse3_strncpy+0xB58>
100003a3c:	66 0f 3a 0f d1 05 	palignr	$5, %xmm1, %xmm2
100003a42:	0f 29 12 	movaps	%xmm2, (%rdx)
100003a45:	0f 28 51 1b 	movaps	27(%rcx), %xmm2
100003a49:	0f 28 cb 	movaps	%xmm3, %xmm1
100003a4c:	66 0f 74 c2 	pcmpeqb	%xmm2, %xmm0
100003a50:	48 8d 52 10 	leaq	16(%rdx), %rdx
100003a54:	66 0f d7 c0 	pmovmskb	%xmm0, %eax
100003a58:	48 8d 49 10 	leaq	16(%rcx), %rcx
100003a5c:	0f 28 da 	movaps	%xmm2, %xmm3
100003a5f:	49 83 e8 10 	subq	$16, %r8
100003a63:	0f 86 c6 19 00 00 	jbe	6598 <___intel_ssse3_strncpy+0x243F>
100003a69:	48 85 c0 	testq	%rax, %rax
100003a6c:	0f 85 d6 00 00 00 	jne	214 <___intel_ssse3_strncpy+0xB58>
100003a72:	66 0f 3a 0f d1 05 	palignr	$5, %xmm1, %xmm2
100003a78:	0f 28 cb 	movaps	%xmm3, %xmm1
100003a7b:	0f 29 12 	movaps	%xmm2, (%rdx)
100003a7e:	0f 28 51 1b 	movaps	27(%rcx), %xmm2
100003a82:	66 0f 74 c2 	pcmpeqb	%xmm2, %xmm0
100003a86:	48 8d 52 10 	leaq	16(%rdx), %rdx
100003a8a:	66 0f d7 c0 	pmovmskb	%xmm0, %eax
100003a8e:	48 8d 49 10 	leaq	16(%rcx), %rcx
100003a92:	0f 28 da 	movaps	%xmm2, %xmm3
100003a95:	49 83 e8 10 	subq	$16, %r8
100003a99:	0f 86 90 19 00 00 	jbe	6544 <___intel_ssse3_strncpy+0x243F>
100003a9f:	48 85 c0 	testq	%rax, %rax
100003aa2:	0f 85 a0 00 00 00 	jne	160 <___intel_ssse3_strncpy+0xB58>
100003aa8:	66 0f 3a 0f d1 05 	palignr	$5, %xmm1, %xmm2
100003aae:	0f 28 cb 	movaps	%xmm3, %xmm1
100003ab1:	0f 29 12 	movaps	%xmm2, (%rdx)
100003ab4:	48 8d 49 1b 	leaq	27(%rcx), %rcx
100003ab8:	48 8d 52 10 	leaq	16(%rdx), %rdx
100003abc:	48 89 c8 	movq	%rcx, %rax
100003abf:	48 83 e1 c0 	andq	$-64, %rcx
100003ac3:	48 2b c1 	subq	%rcx, %rax
100003ac6:	48 8d 49 f5 	leaq	-11(%rcx), %rcx
100003aca:	48 2b d0 	subq	%rax, %rdx
100003acd:	4c 03 c0 	addq	%rax, %r8
100003ad0:	0f 28 49 fb 	movaps	-5(%rcx), %xmm1
100003ad4:	0f 28 51 0b 	movaps	11(%rcx), %xmm2
100003ad8:	0f 28 59 1b 	movaps	27(%rcx), %xmm3
100003adc:	0f 28 f3 	movaps	%xmm3, %xmm6
100003adf:	0f 28 61 2b 	movaps	43(%rcx), %xmm4
100003ae3:	0f 28 fc 	movaps	%xmm4, %xmm7
100003ae6:	0f 28 69 3b 	movaps	59(%rcx), %xmm5
100003aea:	66 0f da f2 	pminub	%xmm2, %xmm6
100003aee:	66 0f da fd 	pminub	%xmm5, %xmm7
100003af2:	66 0f da fe 	pminub	%xmm6, %xmm7
100003af6:	66 0f 74 f8 	pcmpeqb	%xmm0, %xmm7
100003afa:	66 0f d7 c7 	pmovmskb	%xmm7, %eax
100003afe:	0f 28 fd 	movaps	%xmm5, %xmm7
100003b01:	66 0f 3a 0f ec 05 	palignr	$5, %xmm4, %xmm5
100003b07:	48 85 c0 	testq	%rax, %rax
100003b0a:	66 0f 3a 0f e3 05 	palignr	$5, %xmm3, %xmm4
100003b10:	0f 85 d2 fe ff ff 	jne	-302 <___intel_ssse3_strncpy+0x9F8>
100003b16:	49 83 e8 40 	subq	$64, %r8
100003b1a:	0f 86 a5 1c 00 00 	jbe	7333 <___intel_ssse3_strncpy+0x27D5>
100003b20:	66 0f 3a 0f da 05 	palignr	$5, %xmm2, %xmm3
100003b26:	48 8d 49 40 	leaq	64(%rcx), %rcx
100003b2a:	66 0f 3a 0f d1 05 	palignr	$5, %xmm1, %xmm2
100003b30:	0f 28 cf 	movaps	%xmm7, %xmm1
100003b33:	0f 29 6a 30 	movaps	%xmm5, 48(%rdx)
100003b37:	0f 29 62 20 	movaps	%xmm4, 32(%rdx)
100003b3b:	0f 29 5a 10 	movaps	%xmm3, 16(%rdx)
100003b3f:	0f 29 12 	movaps	%xmm2, (%rdx)
100003b42:	48 8d 52 40 	leaq	64(%rdx), %rdx
100003b46:	eb 8c 	jmp	-116 <___intel_ssse3_strncpy+0xAE4>
100003b48:	0f 28 32 	movaps	(%rdx), %xmm6
100003b4b:	66 0f 73 de 0b 	psrldq	$11, %xmm6
100003b50:	48 c7 c6 0b 00 00 00 	movq	$11, %rsi
100003b57:	66 0f 3a 0f f1 05 	palignr	$5, %xmm1, %xmm6
100003b5d:	0f 29 32 	movaps	%xmm6, (%rdx)
100003b60:	e9 9b 0f 00 00 	jmp	3995 <___intel_ssse3_strncpy+0x1B10>
100003b65:	0f 1f 40 00 	nopl	(%rax)
100003b69:	0f 1f 80 00 00 00 00 	nopl	(%rax)
100003b70:	0f 28 49 fa 	movaps	-6(%rcx), %xmm1
100003b74:	0f 28 51 0a 	movaps	10(%rcx), %xmm2
100003b78:	66 0f 74 c2 	pcmpeqb	%xmm2, %xmm0
100003b7c:	66 0f d7 c0 	pmovmskb	%xmm0, %eax
100003b80:	0f 28 da 	movaps	%xmm2, %xmm3
100003b83:	49 83 e8 10 	subq	$16, %r8
100003b87:	0f 86 c8 18 00 00 	jbe	6344 <___intel_ssse3_strncpy+0x2465>
100003b8d:	48 85 c0 	testq	%rax, %rax
100003b90:	0f 85 42 01 00 00 	jne	322 <___intel_ssse3_strncpy+0xCE8>
100003b96:	66 0f 3a 0f d1 06 	palignr	$6, %xmm1, %xmm2
100003b9c:	0f 28 cb 	movaps	%xmm3, %xmm1
100003b9f:	0f 29 12 	movaps	%xmm2, (%rdx)
100003ba2:	0f 28 51 1a 	movaps	26(%rcx), %xmm2
100003ba6:	66 0f 74 c2 	pcmpeqb	%xmm2, %xmm0
100003baa:	48 8d 52 10 	leaq	16(%rdx), %rdx
100003bae:	66 0f d7 c0 	pmovmskb	%xmm0, %eax
100003bb2:	48 8d 49 10 	leaq	16(%rcx), %rcx
100003bb6:	0f 28 da 	movaps	%xmm2, %xmm3
100003bb9:	49 83 e8 10 	subq	$16, %r8
100003bbd:	0f 86 92 18 00 00 	jbe	6290 <___intel_ssse3_strncpy+0x2465>
100003bc3:	48 85 c0 	testq	%rax, %rax
100003bc6:	0f 85 0c 01 00 00 	jne	268 <___intel_ssse3_strncpy+0xCE8>
100003bcc:	66 0f 3a 0f d1 06 	palignr	$6, %xmm1, %xmm2
100003bd2:	0f 29 12 	movaps	%xmm2, (%rdx)
100003bd5:	0f 28 51 1a 	movaps	26(%rcx), %xmm2
100003bd9:	0f 28 cb 	movaps	%xmm3, %xmm1
100003bdc:	66 0f 74 c2 	pcmpeqb	%xmm2, %xmm0
100003be0:	48 8d 52 10 	leaq	16(%rdx), %rdx
100003be4:	66 0f d7 c0 	pmovmskb	%xmm0, %eax
100003be8:	48 8d 49 10 	leaq	16(%rcx), %rcx
100003bec:	0f 28 da 	movaps	%xmm2, %xmm3
100003bef:	49 83 e8 10 	subq	$16, %r8
100003bf3:	0f 86 5c 18 00 00 	jbe	6236 <___intel_ssse3_strncpy+0x2465>
100003bf9:	48 85 c0 	testq	%rax, %rax
100003bfc:	0f 85 d6 00 00 00 	jne	214 <___intel_ssse3_strncpy+0xCE8>
100003c02:	66 0f 3a 0f d1 06 	palignr	$6, %xmm1, %xmm2
100003c08:	0f 28 cb 	movaps	%xmm3, %xmm1
100003c0b:	0f 29 12 	movaps	%xmm2, (%rdx)
100003c0e:	0f 28 51 1a 	movaps	26(%rcx), %xmm2
100003c12:	66 0f 74 c2 	pcmpeqb	%xmm2, %xmm0
100003c16:	48 8d 52 10 	leaq	16(%rdx), %rdx
100003c1a:	66 0f d7 c0 	pmovmskb	%xmm0, %eax
100003c1e:	48 8d 49 10 	leaq	16(%rcx), %rcx
100003c22:	0f 28 da 	movaps	%xmm2, %xmm3
100003c25:	49 83 e8 10 	subq	$16, %r8
100003c29:	0f 86 26 18 00 00 	jbe	6182 <___intel_ssse3_strncpy+0x2465>
100003c2f:	48 85 c0 	testq	%rax, %rax
100003c32:	0f 85 a0 00 00 00 	jne	160 <___intel_ssse3_strncpy+0xCE8>
100003c38:	66 0f 3a 0f d1 06 	palignr	$6, %xmm1, %xmm2
100003c3e:	0f 28 cb 	movaps	%xmm3, %xmm1
100003c41:	0f 29 12 	movaps	%xmm2, (%rdx)
100003c44:	48 8d 49 1a 	leaq	26(%rcx), %rcx
100003c48:	48 8d 52 10 	leaq	16(%rdx), %rdx
100003c4c:	48 89 c8 	movq	%rcx, %rax
100003c4f:	48 83 e1 c0 	andq	$-64, %rcx
100003c53:	48 2b c1 	subq	%rcx, %rax
100003c56:	48 8d 49 f6 	leaq	-10(%rcx), %rcx
100003c5a:	48 2b d0 	subq	%rax, %rdx
100003c5d:	4c 03 c0 	addq	%rax, %r8
100003c60:	0f 28 49 fa 	movaps	-6(%rcx), %xmm1
100003c64:	0f 28 51 0a 	movaps	10(%rcx), %xmm2
100003c68:	0f 28 59 1a 	movaps	26(%rcx), %xmm3
100003c6c:	0f 28 f3 	movaps	%xmm3, %xmm6
100003c6f:	0f 28 61 2a 	movaps	42(%rcx), %xmm4
100003c73:	0f 28 fc 	movaps	%xmm4, %xmm7
100003c76:	0f 28 69 3a 	movaps	58(%rcx), %xmm5
100003c7a:	66 0f da f2 	pminub	%xmm2, %xmm6
100003c7e:	66 0f da fd 	pminub	%xmm5, %xmm7
100003c82:	66 0f da fe 	pminub	%xmm6, %xmm7
100003c86:	66 0f 74 f8 	pcmpeqb	%xmm0, %xmm7
100003c8a:	66 0f d7 c7 	pmovmskb	%xmm7, %eax
100003c8e:	0f 28 fd 	movaps	%xmm5, %xmm7
100003c91:	66 0f 3a 0f ec 06 	palignr	$6, %xmm4, %xmm5
100003c97:	48 85 c0 	testq	%rax, %rax
100003c9a:	66 0f 3a 0f e3 06 	palignr	$6, %xmm3, %xmm4
100003ca0:	0f 85 d2 fe ff ff 	jne	-302 <___intel_ssse3_strncpy+0xB88>
100003ca6:	49 83 e8 40 	subq	$64, %r8
100003caa:	0f 86 92 1b 00 00 	jbe	7058 <___intel_ssse3_strncpy+0x2852>
100003cb0:	66 0f 3a 0f da 06 	palignr	$6, %xmm2, %xmm3
100003cb6:	48 8d 49 40 	leaq	64(%rcx), %rcx
100003cba:	66 0f 3a 0f d1 06 	palignr	$6, %xmm1, %xmm2
100003cc0:	0f 28 cf 	movaps	%xmm7, %xmm1
100003cc3:	0f 29 6a 30 	movaps	%xmm5, 48(%rdx)
100003cc7:	0f 29 62 20 	movaps	%xmm4, 32(%rdx)
100003ccb:	0f 29 5a 10 	movaps	%xmm3, 16(%rdx)
100003ccf:	0f 29 12 	movaps	%xmm2, (%rdx)
100003cd2:	48 8d 52 40 	leaq	64(%rdx), %rdx
100003cd6:	eb 8c 	jmp	-116 <___intel_ssse3_strncpy+0xC74>
100003cd8:	0f 28 32 	movaps	(%rdx), %xmm6
100003cdb:	66 0f 73 de 0a 	psrldq	$10, %xmm6
100003ce0:	48 c7 c6 0a 00 00 00 	movq	$10, %rsi
100003ce7:	66 0f 3a 0f f1 06 	palignr	$6, %xmm1, %xmm6
100003ced:	0f 29 32 	movaps	%xmm6, (%rdx)
100003cf0:	e9 0b 0e 00 00 	jmp	3595 <___intel_ssse3_strncpy+0x1B10>
100003cf5:	0f 1f 40 00 	nopl	(%rax)
100003cf9:	0f 1f 80 00 00 00 00 	nopl	(%rax)
100003d00:	0f 28 49 f9 	movaps	-7(%rcx), %xmm1
100003d04:	0f 28 51 09 	movaps	9(%rcx), %xmm2
100003d08:	66 0f 74 c2 	pcmpeqb	%xmm2, %xmm0
100003d0c:	66 0f d7 c0 	pmovmskb	%xmm0, %eax
100003d10:	0f 28 da 	movaps	%xmm2, %xmm3
100003d13:	49 83 e8 10 	subq	$16, %r8
100003d17:	0f 86 5e 17 00 00 	jbe	5982 <___intel_ssse3_strncpy+0x248B>
100003d1d:	48 85 c0 	testq	%rax, %rax
100003d20:	0f 85 42 01 00 00 	jne	322 <___intel_ssse3_strncpy+0xE78>
100003d26:	66 0f 3a 0f d1 07 	palignr	$7, %xmm1, %xmm2
100003d2c:	0f 28 cb 	movaps	%xmm3, %xmm1
100003d2f:	0f 29 12 	movaps	%xmm2, (%rdx)
100003d32:	0f 28 51 19 	movaps	25(%rcx), %xmm2
100003d36:	66 0f 74 c2 	pcmpeqb	%xmm2, %xmm0
100003d3a:	48 8d 52 10 	leaq	16(%rdx), %rdx
100003d3e:	66 0f d7 c0 	pmovmskb	%xmm0, %eax
100003d42:	48 8d 49 10 	leaq	16(%rcx), %rcx
100003d46:	0f 28 da 	movaps	%xmm2, %xmm3
100003d49:	49 83 e8 10 	subq	$16, %r8
100003d4d:	0f 86 28 17 00 00 	jbe	5928 <___intel_ssse3_strncpy+0x248B>
100003d53:	48 85 c0 	testq	%rax, %rax
100003d56:	0f 85 0c 01 00 00 	jne	268 <___intel_ssse3_strncpy+0xE78>
100003d5c:	66 0f 3a 0f d1 07 	palignr	$7, %xmm1, %xmm2
100003d62:	0f 29 12 	movaps	%xmm2, (%rdx)
100003d65:	0f 28 51 19 	movaps	25(%rcx), %xmm2
100003d69:	0f 28 cb 	movaps	%xmm3, %xmm1
100003d6c:	66 0f 74 c2 	pcmpeqb	%xmm2, %xmm0
100003d70:	48 8d 52 10 	leaq	16(%rdx), %rdx
100003d74:	66 0f d7 c0 	pmovmskb	%xmm0, %eax
100003d78:	48 8d 49 10 	leaq	16(%rcx), %rcx
100003d7c:	0f 28 da 	movaps	%xmm2, %xmm3
100003d7f:	49 83 e8 10 	subq	$16, %r8
100003d83:	0f 86 f2 16 00 00 	jbe	5874 <___intel_ssse3_strncpy+0x248B>
100003d89:	48 85 c0 	testq	%rax, %rax
100003d8c:	0f 85 d6 00 00 00 	jne	214 <___intel_ssse3_strncpy+0xE78>
100003d92:	66 0f 3a 0f d1 07 	palignr	$7, %xmm1, %xmm2
100003d98:	0f 28 cb 	movaps	%xmm3, %xmm1
100003d9b:	0f 29 12 	movaps	%xmm2, (%rdx)
100003d9e:	0f 28 51 19 	movaps	25(%rcx), %xmm2
100003da2:	66 0f 74 c2 	pcmpeqb	%xmm2, %xmm0
100003da6:	48 8d 52 10 	leaq	16(%rdx), %rdx
100003daa:	66 0f d7 c0 	pmovmskb	%xmm0, %eax
100003dae:	48 8d 49 10 	leaq	16(%rcx), %rcx
100003db2:	0f 28 da 	movaps	%xmm2, %xmm3
100003db5:	49 83 e8 10 	subq	$16, %r8
100003db9:	0f 86 bc 16 00 00 	jbe	5820 <___intel_ssse3_strncpy+0x248B>
100003dbf:	48 85 c0 	testq	%rax, %rax
100003dc2:	0f 85 a0 00 00 00 	jne	160 <___intel_ssse3_strncpy+0xE78>
100003dc8:	66 0f 3a 0f d1 07 	palignr	$7, %xmm1, %xmm2
100003dce:	0f 28 cb 	movaps	%xmm3, %xmm1
100003dd1:	0f 29 12 	movaps	%xmm2, (%rdx)
100003dd4:	48 8d 49 19 	leaq	25(%rcx), %rcx
100003dd8:	48 8d 52 10 	leaq	16(%rdx), %rdx
100003ddc:	48 89 c8 	movq	%rcx, %rax
100003ddf:	48 83 e1 c0 	andq	$-64, %rcx
100003de3:	48 2b c1 	subq	%rcx, %rax
100003de6:	48 8d 49 f7 	leaq	-9(%rcx), %rcx
100003dea:	48 2b d0 	subq	%rax, %rdx
100003ded:	4c 03 c0 	addq	%rax, %r8
100003df0:	0f 28 49 f9 	movaps	-7(%rcx), %xmm1
100003df4:	0f 28 51 09 	movaps	9(%rcx), %xmm2
100003df8:	0f 28 59 19 	movaps	25(%rcx), %xmm3
100003dfc:	0f 28 f3 	movaps	%xmm3, %xmm6
100003dff:	0f 28 61 29 	movaps	41(%rcx), %xmm4
100003e03:	0f 28 fc 	movaps	%xmm4, %xmm7
100003e06:	0f 28 69 39 	movaps	57(%rcx), %xmm5
100003e0a:	66 0f da f2 	pminub	%xmm2, %xmm6
100003e0e:	66 0f da fd 	pminub	%xmm5, %xmm7
100003e12:	66 0f da fe 	pminub	%xmm6, %xmm7
100003e16:	66 0f 74 f8 	pcmpeqb	%xmm0, %xmm7
100003e1a:	66 0f d7 c7 	pmovmskb	%xmm7, %eax
100003e1e:	0f 28 fd 	movaps	%xmm5, %xmm7
100003e21:	66 0f 3a 0f ec 07 	palignr	$7, %xmm4, %xmm5
100003e27:	48 85 c0 	testq	%rax, %rax
100003e2a:	66 0f 3a 0f e3 07 	palignr	$7, %xmm3, %xmm4
100003e30:	0f 85 d2 fe ff ff 	jne	-302 <___intel_ssse3_strncpy+0xD18>
100003e36:	49 83 e8 40 	subq	$64, %r8
100003e3a:	0f 86 7f 1a 00 00 	jbe	6783 <___intel_ssse3_strncpy+0x28CF>
100003e40:	66 0f 3a 0f da 07 	palignr	$7, %xmm2, %xmm3
100003e46:	48 8d 49 40 	leaq	64(%rcx), %rcx
100003e4a:	66 0f 3a 0f d1 07 	palignr	$7, %xmm1, %xmm2
100003e50:	0f 28 cf 	movaps	%xmm7, %xmm1
100003e53:	0f 29 6a 30 	movaps	%xmm5, 48(%rdx)
100003e57:	0f 29 62 20 	movaps	%xmm4, 32(%rdx)
100003e5b:	0f 29 5a 10 	movaps	%xmm3, 16(%rdx)
100003e5f:	0f 29 12 	movaps	%xmm2, (%rdx)
100003e62:	48 8d 52 40 	leaq	64(%rdx), %rdx
100003e66:	eb 8c 	jmp	-116 <___intel_ssse3_strncpy+0xE04>
100003e68:	0f 28 32 	movaps	(%rdx), %xmm6
100003e6b:	66 0f 73 de 09 	psrldq	$9, %xmm6
100003e70:	48 c7 c6 09 00 00 00 	movq	$9, %rsi
100003e77:	66 0f 3a 0f f1 07 	palignr	$7, %xmm1, %xmm6
100003e7d:	0f 29 32 	movaps	%xmm6, (%rdx)
100003e80:	e9 7b 0c 00 00 	jmp	3195 <___intel_ssse3_strncpy+0x1B10>
100003e85:	0f 1f 40 00 	nopl	(%rax)
100003e89:	0f 1f 80 00 00 00 00 	nopl	(%rax)
100003e90:	0f 28 49 f8 	movaps	-8(%rcx), %xmm1
100003e94:	0f 28 51 08 	movaps	8(%rcx), %xmm2
100003e98:	66 0f 74 c2 	pcmpeqb	%xmm2, %xmm0
100003e9c:	66 0f d7 c0 	pmovmskb	%xmm0, %eax
100003ea0:	0f 28 da 	movaps	%xmm2, %xmm3
100003ea3:	49 83 e8 10 	subq	$16, %r8
100003ea7:	0f 86 f4 15 00 00 	jbe	5620 <___intel_ssse3_strncpy+0x24B1>
100003ead:	48 85 c0 	testq	%rax, %rax
100003eb0:	0f 85 42 01 00 00 	jne	322 <___intel_ssse3_strncpy+0x1008>
100003eb6:	66 0f 3a 0f d1 08 	palignr	$8, %xmm1, %xmm2
100003ebc:	0f 28 cb 	movaps	%xmm3, %xmm1
100003ebf:	0f 29 12 	movaps	%xmm2, (%rdx)
100003ec2:	0f 28 51 18 	movaps	24(%rcx), %xmm2
100003ec6:	66 0f 74 c2 	pcmpeqb	%xmm2, %xmm0
100003eca:	48 8d 52 10 	leaq	16(%rdx), %rdx
100003ece:	66 0f d7 c0 	pmovmskb	%xmm0, %eax
100003ed2:	48 8d 49 10 	leaq	16(%rcx), %rcx
100003ed6:	0f 28 da 	movaps	%xmm2, %xmm3
100003ed9:	49 83 e8 10 	subq	$16, %r8
100003edd:	0f 86 be 15 00 00 	jbe	5566 <___intel_ssse3_strncpy+0x24B1>
100003ee3:	48 85 c0 	testq	%rax, %rax
100003ee6:	0f 85 0c 01 00 00 	jne	268 <___intel_ssse3_strncpy+0x1008>
100003eec:	66 0f 3a 0f d1 08 	palignr	$8, %xmm1, %xmm2
100003ef2:	0f 29 12 	movaps	%xmm2, (%rdx)
100003ef5:	0f 28 51 18 	movaps	24(%rcx), %xmm2
100003ef9:	0f 28 cb 	movaps	%xmm3, %xmm1
100003efc:	66 0f 74 c2 	pcmpeqb	%xmm2, %xmm0
100003f00:	48 8d 52 10 	leaq	16(%rdx), %rdx
100003f04:	66 0f d7 c0 	pmovmskb	%xmm0, %eax
100003f08:	48 8d 49 10 	leaq	16(%rcx), %rcx
100003f0c:	0f 28 da 	movaps	%xmm2, %xmm3
100003f0f:	49 83 e8 10 	subq	$16, %r8
100003f13:	0f 86 88 15 00 00 	jbe	5512 <___intel_ssse3_strncpy+0x24B1>
100003f19:	48 85 c0 	testq	%rax, %rax
100003f1c:	0f 85 d6 00 00 00 	jne	214 <___intel_ssse3_strncpy+0x1008>
100003f22:	66 0f 3a 0f d1 08 	palignr	$8, %xmm1, %xmm2
100003f28:	0f 28 cb 	movaps	%xmm3, %xmm1
100003f2b:	0f 29 12 	movaps	%xmm2, (%rdx)
100003f2e:	0f 28 51 18 	movaps	24(%rcx), %xmm2
100003f32:	66 0f 74 c2 	pcmpeqb	%xmm2, %xmm0
100003f36:	48 8d 52 10 	leaq	16(%rdx), %rdx
100003f3a:	66 0f d7 c0 	pmovmskb	%xmm0, %eax
100003f3e:	48 8d 49 10 	leaq	16(%rcx), %rcx
100003f42:	0f 28 da 	movaps	%xmm2, %xmm3
100003f45:	49 83 e8 10 	subq	$16, %r8
100003f49:	0f 86 52 15 00 00 	jbe	5458 <___intel_ssse3_strncpy+0x24B1>
100003f4f:	48 85 c0 	testq	%rax, %rax
100003f52:	0f 85 a0 00 00 00 	jne	160 <___intel_ssse3_strncpy+0x1008>
100003f58:	66 0f 3a 0f d1 08 	palignr	$8, %xmm1, %xmm2
100003f5e:	0f 28 cb 	movaps	%xmm3, %xmm1
100003f61:	0f 29 12 	movaps	%xmm2, (%rdx)
100003f64:	48 8d 49 18 	leaq	24(%rcx), %rcx
100003f68:	48 8d 52 10 	leaq	16(%rdx), %rdx
100003f6c:	48 89 c8 	movq	%rcx, %rax
100003f6f:	48 83 e1 c0 	andq	$-64, %rcx
100003f73:	48 2b c1 	subq	%rcx, %rax
100003f76:	48 8d 49 f8 	leaq	-8(%rcx), %rcx
100003f7a:	48 2b d0 	subq	%rax, %rdx
100003f7d:	4c 03 c0 	addq	%rax, %r8
100003f80:	0f 28 49 f8 	movaps	-8(%rcx), %xmm1
100003f84:	0f 28 51 08 	movaps	8(%rcx), %xmm2
100003f88:	0f 28 59 18 	movaps	24(%rcx), %xmm3
100003f8c:	0f 28 f3 	movaps	%xmm3, %xmm6
100003f8f:	0f 28 61 28 	movaps	40(%rcx), %xmm4
100003f93:	0f 28 fc 	movaps	%xmm4, %xmm7
100003f96:	0f 28 69 38 	movaps	56(%rcx), %xmm5
100003f9a:	66 0f da f2 	pminub	%xmm2, %xmm6
100003f9e:	66 0f da fd 	pminub	%xmm5, %xmm7
100003fa2:	66 0f da fe 	pminub	%xmm6, %xmm7
100003fa6:	66 0f 74 f8 	pcmpeqb	%xmm0, %xmm7
100003faa:	66 0f d7 c7 	pmovmskb	%xmm7, %eax
100003fae:	0f 28 fd 	movaps	%xmm5, %xmm7
100003fb1:	66 0f 3a 0f ec 08 	palignr	$8, %xmm4, %xmm5
100003fb7:	48 85 c0 	testq	%rax, %rax
100003fba:	66 0f 3a 0f e3 08 	palignr	$8, %xmm3, %xmm4
100003fc0:	0f 85 d2 fe ff ff 	jne	-302 <___intel_ssse3_strncpy+0xEA8>
100003fc6:	49 83 e8 40 	subq	$64, %r8
100003fca:	0f 86 6c 19 00 00 	jbe	6508 <___intel_ssse3_strncpy+0x294C>
100003fd0:	66 0f 3a 0f da 08 	palignr	$8, %xmm2, %xmm3
100003fd6:	48 8d 49 40 	leaq	64(%rcx), %rcx
100003fda:	66 0f 3a 0f d1 08 	palignr	$8, %xmm1, %xmm2
100003fe0:	0f 28 cf 	movaps	%xmm7, %xmm1
100003fe3:	0f 29 6a 30 	movaps	%xmm5, 48(%rdx)
100003fe7:	0f 29 62 20 	movaps	%xmm4, 32(%rdx)
100003feb:	0f 29 5a 10 	movaps	%xmm3, 16(%rdx)
100003fef:	0f 29 12 	movaps	%xmm2, (%rdx)
100003ff2:	48 8d 52 40 	leaq	64(%rdx), %rdx
100003ff6:	eb 8c 	jmp	-116 <___intel_ssse3_strncpy+0xF94>
100003ff8:	0f 28 32 	movaps	(%rdx), %xmm6
100003ffb:	66 0f 73 de 08 	psrldq	$8, %xmm6
100004000:	48 c7 c6 08 00 00 00 	movq	$8, %rsi
100004007:	66 0f 3a 0f f1 08 	palignr	$8, %xmm1, %xmm6
10000400d:	0f 29 32 	movaps	%xmm6, (%rdx)
100004010:	e9 eb 0a 00 00 	jmp	2795 <___intel_ssse3_strncpy+0x1B10>
100004015:	0f 1f 40 00 	nopl	(%rax)
100004019:	0f 1f 80 00 00 00 00 	nopl	(%rax)
100004020:	0f 28 49 f7 	movaps	-9(%rcx), %xmm1
100004024:	0f 28 51 07 	movaps	7(%rcx), %xmm2
100004028:	66 0f 74 c2 	pcmpeqb	%xmm2, %xmm0
10000402c:	66 0f d7 c0 	pmovmskb	%xmm0, %eax
100004030:	0f 28 da 	movaps	%xmm2, %xmm3
100004033:	49 83 e8 10 	subq	$16, %r8
100004037:	0f 86 8a 14 00 00 	jbe	5258 <___intel_ssse3_strncpy+0x24D7>
10000403d:	48 85 c0 	testq	%rax, %rax
100004040:	0f 85 42 01 00 00 	jne	322 <___intel_ssse3_strncpy+0x1198>
100004046:	66 0f 3a 0f d1 09 	palignr	$9, %xmm1, %xmm2
10000404c:	0f 28 cb 	movaps	%xmm3, %xmm1
10000404f:	0f 29 12 	movaps	%xmm2, (%rdx)
100004052:	0f 28 51 17 	movaps	23(%rcx), %xmm2
100004056:	66 0f 74 c2 	pcmpeqb	%xmm2, %xmm0
10000405a:	48 8d 52 10 	leaq	16(%rdx), %rdx
10000405e:	66 0f d7 c0 	pmovmskb	%xmm0, %eax
100004062:	48 8d 49 10 	leaq	16(%rcx), %rcx
100004066:	0f 28 da 	movaps	%xmm2, %xmm3
100004069:	49 83 e8 10 	subq	$16, %r8
10000406d:	0f 86 54 14 00 00 	jbe	5204 <___intel_ssse3_strncpy+0x24D7>
100004073:	48 85 c0 	testq	%rax, %rax
100004076:	0f 85 0c 01 00 00 	jne	268 <___intel_ssse3_strncpy+0x1198>
10000407c:	66 0f 3a 0f d1 09 	palignr	$9, %xmm1, %xmm2
100004082:	0f 29 12 	movaps	%xmm2, (%rdx)
100004085:	0f 28 51 17 	movaps	23(%rcx), %xmm2
100004089:	0f 28 cb 	movaps	%xmm3, %xmm1
10000408c:	66 0f 74 c2 	pcmpeqb	%xmm2, %xmm0
100004090:	48 8d 52 10 	leaq	16(%rdx), %rdx
100004094:	66 0f d7 c0 	pmovmskb	%xmm0, %eax
100004098:	48 8d 49 10 	leaq	16(%rcx), %rcx
10000409c:	0f 28 da 	movaps	%xmm2, %xmm3
10000409f:	49 83 e8 10 	subq	$16, %r8
1000040a3:	0f 86 1e 14 00 00 	jbe	5150 <___intel_ssse3_strncpy+0x24D7>
1000040a9:	48 85 c0 	testq	%rax, %rax
1000040ac:	0f 85 d6 00 00 00 	jne	214 <___intel_ssse3_strncpy+0x1198>
1000040b2:	66 0f 3a 0f d1 09 	palignr	$9, %xmm1, %xmm2
1000040b8:	0f 28 cb 	movaps	%xmm3, %xmm1
1000040bb:	0f 29 12 	movaps	%xmm2, (%rdx)
1000040be:	0f 28 51 17 	movaps	23(%rcx), %xmm2
1000040c2:	66 0f 74 c2 	pcmpeqb	%xmm2, %xmm0
1000040c6:	48 8d 52 10 	leaq	16(%rdx), %rdx
1000040ca:	66 0f d7 c0 	pmovmskb	%xmm0, %eax
1000040ce:	48 8d 49 10 	leaq	16(%rcx), %rcx
1000040d2:	0f 28 da 	movaps	%xmm2, %xmm3
1000040d5:	49 83 e8 10 	subq	$16, %r8
1000040d9:	0f 86 e8 13 00 00 	jbe	5096 <___intel_ssse3_strncpy+0x24D7>
1000040df:	48 85 c0 	testq	%rax, %rax
1000040e2:	0f 85 a0 00 00 00 	jne	160 <___intel_ssse3_strncpy+0x1198>
1000040e8:	66 0f 3a 0f d1 09 	palignr	$9, %xmm1, %xmm2
1000040ee:	0f 28 cb 	movaps	%xmm3, %xmm1
1000040f1:	0f 29 12 	movaps	%xmm2, (%rdx)
1000040f4:	48 8d 49 17 	leaq	23(%rcx), %rcx
1000040f8:	48 8d 52 10 	leaq	16(%rdx), %rdx
1000040fc:	48 89 c8 	movq	%rcx, %rax
1000040ff:	48 83 e1 c0 	andq	$-64, %rcx
100004103:	48 2b c1 	subq	%rcx, %rax
100004106:	48 8d 49 f9 	leaq	-7(%rcx), %rcx
10000410a:	48 2b d0 	subq	%rax, %rdx
10000410d:	4c 03 c0 	addq	%rax, %r8
100004110:	0f 28 49 f7 	movaps	-9(%rcx), %xmm1
100004114:	0f 28 51 07 	movaps	7(%rcx), %xmm2
100004118:	0f 28 59 17 	movaps	23(%rcx), %xmm3
10000411c:	0f 28 f3 	movaps	%xmm3, %xmm6
10000411f:	0f 28 61 27 	movaps	39(%rcx), %xmm4
100004123:	0f 28 fc 	movaps	%xmm4, %xmm7
100004126:	0f 28 69 37 	movaps	55(%rcx), %xmm5
10000412a:	66 0f da f2 	pminub	%xmm2, %xmm6
10000412e:	66 0f da fd 	pminub	%xmm5, %xmm7
100004132:	66 0f da fe 	pminub	%xmm6, %xmm7
100004136:	66 0f 74 f8 	pcmpeqb	%xmm0, %xmm7
10000413a:	66 0f d7 c7 	pmovmskb	%xmm7, %eax
10000413e:	0f 28 fd 	movaps	%xmm5, %xmm7
100004141:	66 0f 3a 0f ec 09 	palignr	$9, %xmm4, %xmm5
100004147:	48 85 c0 	testq	%rax, %rax
10000414a:	66 0f 3a 0f e3 09 	palignr	$9, %xmm3, %xmm4
100004150:	0f 85 d2 fe ff ff 	jne	-302 <___intel_ssse3_strncpy+0x1038>
100004156:	49 83 e8 40 	subq	$64, %r8
10000415a:	0f 86 59 18 00 00 	jbe	6233 <___intel_ssse3_strncpy+0x29C9>
100004160:	66 0f 3a 0f da 09 	palignr	$9, %xmm2, %xmm3
100004166:	48 8d 49 40 	leaq	64(%rcx), %rcx
10000416a:	66 0f 3a 0f d1 09 	palignr	$9, %xmm1, %xmm2
100004170:	0f 28 cf 	movaps	%xmm7, %xmm1
100004173:	0f 29 6a 30 	movaps	%xmm5, 48(%rdx)
100004177:	0f 29 62 20 	movaps	%xmm4, 32(%rdx)
10000417b:	0f 29 5a 10 	movaps	%xmm3, 16(%rdx)
10000417f:	0f 29 12 	movaps	%xmm2, (%rdx)
100004182:	48 8d 52 40 	leaq	64(%rdx), %rdx
100004186:	eb 8c 	jmp	-116 <___intel_ssse3_strncpy+0x1124>
100004188:	0f 28 32 	movaps	(%rdx), %xmm6
10000418b:	66 0f 73 de 07 	psrldq	$7, %xmm6
100004190:	48 c7 c6 07 00 00 00 	movq	$7, %rsi
100004197:	66 0f 3a 0f f1 09 	palignr	$9, %xmm1, %xmm6
10000419d:	0f 29 32 	movaps	%xmm6, (%rdx)
1000041a0:	e9 5b 09 00 00 	jmp	2395 <___intel_ssse3_strncpy+0x1B10>
1000041a5:	0f 1f 40 00 	nopl	(%rax)
1000041a9:	0f 1f 80 00 00 00 00 	nopl	(%rax)
1000041b0:	0f 28 49 f6 	movaps	-10(%rcx), %xmm1
1000041b4:	0f 28 51 06 	movaps	6(%rcx), %xmm2
1000041b8:	66 0f 74 c2 	pcmpeqb	%xmm2, %xmm0
1000041bc:	66 0f d7 c0 	pmovmskb	%xmm0, %eax
1000041c0:	0f 28 da 	movaps	%xmm2, %xmm3
1000041c3:	49 83 e8 10 	subq	$16, %r8
1000041c7:	0f 86 20 13 00 00 	jbe	4896 <___intel_ssse3_strncpy+0x24FD>
1000041cd:	48 85 c0 	testq	%rax, %rax
1000041d0:	0f 85 42 01 00 00 	jne	322 <___intel_ssse3_strncpy+0x1328>
1000041d6:	66 0f 3a 0f d1 0a 	palignr	$10, %xmm1, %xmm2
1000041dc:	0f 28 cb 	movaps	%xmm3, %xmm1
1000041df:	0f 29 12 	movaps	%xmm2, (%rdx)
1000041e2:	0f 28 51 16 	movaps	22(%rcx), %xmm2
1000041e6:	66 0f 74 c2 	pcmpeqb	%xmm2, %xmm0
1000041ea:	48 8d 52 10 	leaq	16(%rdx), %rdx
1000041ee:	66 0f d7 c0 	pmovmskb	%xmm0, %eax
1000041f2:	48 8d 49 10 	leaq	16(%rcx), %rcx
1000041f6:	0f 28 da 	movaps	%xmm2, %xmm3
1000041f9:	49 83 e8 10 	subq	$16, %r8
1000041fd:	0f 86 ea 12 00 00 	jbe	4842 <___intel_ssse3_strncpy+0x24FD>
100004203:	48 85 c0 	testq	%rax, %rax
100004206:	0f 85 0c 01 00 00 	jne	268 <___intel_ssse3_strncpy+0x1328>
10000420c:	66 0f 3a 0f d1 0a 	palignr	$10, %xmm1, %xmm2
100004212:	0f 29 12 	movaps	%xmm2, (%rdx)
100004215:	0f 28 51 16 	movaps	22(%rcx), %xmm2
100004219:	0f 28 cb 	movaps	%xmm3, %xmm1
10000421c:	66 0f 74 c2 	pcmpeqb	%xmm2, %xmm0
100004220:	48 8d 52 10 	leaq	16(%rdx), %rdx
100004224:	66 0f d7 c0 	pmovmskb	%xmm0, %eax
100004228:	48 8d 49 10 	leaq	16(%rcx), %rcx
10000422c:	0f 28 da 	movaps	%xmm2, %xmm3
10000422f:	49 83 e8 10 	subq	$16, %r8
100004233:	0f 86 b4 12 00 00 	jbe	4788 <___intel_ssse3_strncpy+0x24FD>
100004239:	48 85 c0 	testq	%rax, %rax
10000423c:	0f 85 d6 00 00 00 	jne	214 <___intel_ssse3_strncpy+0x1328>
100004242:	66 0f 3a 0f d1 0a 	palignr	$10, %xmm1, %xmm2
100004248:	0f 28 cb 	movaps	%xmm3, %xmm1
10000424b:	0f 29 12 	movaps	%xmm2, (%rdx)
10000424e:	0f 28 51 16 	movaps	22(%rcx), %xmm2
100004252:	66 0f 74 c2 	pcmpeqb	%xmm2, %xmm0
100004256:	48 8d 52 10 	leaq	16(%rdx), %rdx
10000425a:	66 0f d7 c0 	pmovmskb	%xmm0, %eax
10000425e:	48 8d 49 10 	leaq	16(%rcx), %rcx
100004262:	0f 28 da 	movaps	%xmm2, %xmm3
100004265:	49 83 e8 10 	subq	$16, %r8
100004269:	0f 86 7e 12 00 00 	jbe	4734 <___intel_ssse3_strncpy+0x24FD>
10000426f:	48 85 c0 	testq	%rax, %rax
100004272:	0f 85 a0 00 00 00 	jne	160 <___intel_ssse3_strncpy+0x1328>
100004278:	66 0f 3a 0f d1 0a 	palignr	$10, %xmm1, %xmm2
10000427e:	0f 28 cb 	movaps	%xmm3, %xmm1
100004281:	0f 29 12 	movaps	%xmm2, (%rdx)
100004284:	48 8d 49 16 	leaq	22(%rcx), %rcx
100004288:	48 8d 52 10 	leaq	16(%rdx), %rdx
10000428c:	48 89 c8 	movq	%rcx, %rax
10000428f:	48 83 e1 c0 	andq	$-64, %rcx
100004293:	48 2b c1 	subq	%rcx, %rax
100004296:	48 8d 49 fa 	leaq	-6(%rcx), %rcx
10000429a:	48 2b d0 	subq	%rax, %rdx
10000429d:	4c 03 c0 	addq	%rax, %r8
1000042a0:	0f 28 49 f6 	movaps	-10(%rcx), %xmm1
1000042a4:	0f 28 51 06 	movaps	6(%rcx), %xmm2
1000042a8:	0f 28 59 16 	movaps	22(%rcx), %xmm3
1000042ac:	0f 28 f3 	movaps	%xmm3, %xmm6
1000042af:	0f 28 61 26 	movaps	38(%rcx), %xmm4
1000042b3:	0f 28 fc 	movaps	%xmm4, %xmm7
1000042b6:	0f 28 69 36 	movaps	54(%rcx), %xmm5
1000042ba:	66 0f da f2 	pminub	%xmm2, %xmm6
1000042be:	66 0f da fd 	pminub	%xmm5, %xmm7
1000042c2:	66 0f da fe 	pminub	%xmm6, %xmm7
1000042c6:	66 0f 74 f8 	pcmpeqb	%xmm0, %xmm7
1000042ca:	66 0f d7 c7 	pmovmskb	%xmm7, %eax
1000042ce:	0f 28 fd 	movaps	%xmm5, %xmm7
1000042d1:	66 0f 3a 0f ec 0a 	palignr	$10, %xmm4, %xmm5
1000042d7:	48 85 c0 	testq	%rax, %rax
1000042da:	66 0f 3a 0f e3 0a 	palignr	$10, %xmm3, %xmm4
1000042e0:	0f 85 d2 fe ff ff 	jne	-302 <___intel_ssse3_strncpy+0x11C8>
1000042e6:	49 83 e8 40 	subq	$64, %r8
1000042ea:	0f 86 46 17 00 00 	jbe	5958 <___intel_ssse3_strncpy+0x2A46>
1000042f0:	66 0f 3a 0f da 0a 	palignr	$10, %xmm2, %xmm3
1000042f6:	48 8d 49 40 	leaq	64(%rcx), %rcx
1000042fa:	66 0f 3a 0f d1 0a 	palignr	$10, %xmm1, %xmm2
100004300:	0f 28 cf 	movaps	%xmm7, %xmm1
100004303:	0f 29 6a 30 	movaps	%xmm5, 48(%rdx)
100004307:	0f 29 62 20 	movaps	%xmm4, 32(%rdx)
10000430b:	0f 29 5a 10 	movaps	%xmm3, 16(%rdx)
10000430f:	0f 29 12 	movaps	%xmm2, (%rdx)
100004312:	48 8d 52 40 	leaq	64(%rdx), %rdx
100004316:	eb 8c 	jmp	-116 <___intel_ssse3_strncpy+0x12B4>
100004318:	0f 28 32 	movaps	(%rdx), %xmm6
10000431b:	66 0f 73 de 06 	psrldq	$6, %xmm6
100004320:	48 c7 c6 06 00 00 00 	movq	$6, %rsi
100004327:	66 0f 3a 0f f1 0a 	palignr	$10, %xmm1, %xmm6
10000432d:	0f 29 32 	movaps	%xmm6, (%rdx)
100004330:	e9 cb 07 00 00 	jmp	1995 <___intel_ssse3_strncpy+0x1B10>
100004335:	0f 1f 40 00 	nopl	(%rax)
100004339:	0f 1f 80 00 00 00 00 	nopl	(%rax)
100004340:	0f 28 49 f5 	movaps	-11(%rcx), %xmm1
100004344:	0f 28 51 05 	movaps	5(%rcx), %xmm2
100004348:	66 0f 74 c2 	pcmpeqb	%xmm2, %xmm0
10000434c:	66 0f d7 c0 	pmovmskb	%xmm0, %eax
100004350:	0f 28 da 	movaps	%xmm2, %xmm3
100004353:	49 83 e8 10 	subq	$16, %r8
100004357:	0f 86 b6 11 00 00 	jbe	4534 <___intel_ssse3_strncpy+0x2523>
10000435d:	48 85 c0 	testq	%rax, %rax
100004360:	0f 85 42 01 00 00 	jne	322 <___intel_ssse3_strncpy+0x14B8>
100004366:	66 0f 3a 0f d1 0b 	palignr	$11, %xmm1, %xmm2
10000436c:	0f 28 cb 	movaps	%xmm3, %xmm1
10000436f:	0f 29 12 	movaps	%xmm2, (%rdx)
100004372:	0f 28 51 15 	movaps	21(%rcx), %xmm2
100004376:	66 0f 74 c2 	pcmpeqb	%xmm2, %xmm0
10000437a:	48 8d 52 10 	leaq	16(%rdx), %rdx
10000437e:	66 0f d7 c0 	pmovmskb	%xmm0, %eax
100004382:	48 8d 49 10 	leaq	16(%rcx), %rcx
100004386:	0f 28 da 	movaps	%xmm2, %xmm3
100004389:	49 83 e8 10 	subq	$16, %r8
10000438d:	0f 86 80 11 00 00 	jbe	4480 <___intel_ssse3_strncpy+0x2523>
100004393:	48 85 c0 	testq	%rax, %rax
100004396:	0f 85 0c 01 00 00 	jne	268 <___intel_ssse3_strncpy+0x14B8>
10000439c:	66 0f 3a 0f d1 0b 	palignr	$11, %xmm1, %xmm2
1000043a2:	0f 29 12 	movaps	%xmm2, (%rdx)
1000043a5:	0f 28 51 15 	movaps	21(%rcx), %xmm2
1000043a9:	0f 28 cb 	movaps	%xmm3, %xmm1
1000043ac:	66 0f 74 c2 	pcmpeqb	%xmm2, %xmm0
1000043b0:	48 8d 52 10 	leaq	16(%rdx), %rdx
1000043b4:	66 0f d7 c0 	pmovmskb	%xmm0, %eax
1000043b8:	48 8d 49 10 	leaq	16(%rcx), %rcx
1000043bc:	0f 28 da 	movaps	%xmm2, %xmm3
1000043bf:	49 83 e8 10 	subq	$16, %r8
1000043c3:	0f 86 4a 11 00 00 	jbe	4426 <___intel_ssse3_strncpy+0x2523>
1000043c9:	48 85 c0 	testq	%rax, %rax
1000043cc:	0f 85 d6 00 00 00 	jne	214 <___intel_ssse3_strncpy+0x14B8>
1000043d2:	66 0f 3a 0f d1 0b 	palignr	$11, %xmm1, %xmm2
1000043d8:	0f 28 cb 	movaps	%xmm3, %xmm1
1000043db:	0f 29 12 	movaps	%xmm2, (%rdx)
1000043de:	0f 28 51 15 	movaps	21(%rcx), %xmm2
1000043e2:	66 0f 74 c2 	pcmpeqb	%xmm2, %xmm0
1000043e6:	48 8d 52 10 	leaq	16(%rdx), %rdx
1000043ea:	66 0f d7 c0 	pmovmskb	%xmm0, %eax
1000043ee:	48 8d 49 10 	leaq	16(%rcx), %rcx
1000043f2:	0f 28 da 	movaps	%xmm2, %xmm3
1000043f5:	49 83 e8 10 	subq	$16, %r8
1000043f9:	0f 86 14 11 00 00 	jbe	4372 <___intel_ssse3_strncpy+0x2523>
1000043ff:	48 85 c0 	testq	%rax, %rax
100004402:	0f 85 a0 00 00 00 	jne	160 <___intel_ssse3_strncpy+0x14B8>
100004408:	66 0f 3a 0f d1 0b 	palignr	$11, %xmm1, %xmm2
10000440e:	0f 28 cb 	movaps	%xmm3, %xmm1
100004411:	0f 29 12 	movaps	%xmm2, (%rdx)
100004414:	48 8d 49 15 	leaq	21(%rcx), %rcx
100004418:	48 8d 52 10 	leaq	16(%rdx), %rdx
10000441c:	48 89 c8 	movq	%rcx, %rax
10000441f:	48 83 e1 c0 	andq	$-64, %rcx
100004423:	48 2b c1 	subq	%rcx, %rax
100004426:	48 8d 49 fb 	leaq	-5(%rcx), %rcx
10000442a:	48 2b d0 	subq	%rax, %rdx
10000442d:	4c 03 c0 	addq	%rax, %r8
100004430:	0f 28 49 f5 	movaps	-11(%rcx), %xmm1
100004434:	0f 28 51 05 	movaps	5(%rcx), %xmm2
100004438:	0f 28 59 15 	movaps	21(%rcx), %xmm3
10000443c:	0f 28 f3 	movaps	%xmm3, %xmm6
10000443f:	0f 28 61 25 	movaps	37(%rcx), %xmm4
100004443:	0f 28 fc 	movaps	%xmm4, %xmm7
100004446:	0f 28 69 35 	movaps	53(%rcx), %xmm5
10000444a:	66 0f da f2 	pminub	%xmm2, %xmm6
10000444e:	66 0f da fd 	pminub	%xmm5, %xmm7
100004452:	66 0f da fe 	pminub	%xmm6, %xmm7
100004456:	66 0f 74 f8 	pcmpeqb	%xmm0, %xmm7
10000445a:	66 0f d7 c7 	pmovmskb	%xmm7, %eax
10000445e:	0f 28 fd 	movaps	%xmm5, %xmm7
100004461:	66 0f 3a 0f ec 0b 	palignr	$11, %xmm4, %xmm5
100004467:	48 85 c0 	testq	%rax, %rax
10000446a:	66 0f 3a 0f e3 0b 	palignr	$11, %xmm3, %xmm4
100004470:	0f 85 d2 fe ff ff 	jne	-302 <___intel_ssse3_strncpy+0x1358>
100004476:	49 83 e8 40 	subq	$64, %r8
10000447a:	0f 86 33 16 00 00 	jbe	5683 <___intel_ssse3_strncpy+0x2AC3>
100004480:	66 0f 3a 0f da 0b 	palignr	$11, %xmm2, %xmm3
100004486:	48 8d 49 40 	leaq	64(%rcx), %rcx
10000448a:	66 0f 3a 0f d1 0b 	palignr	$11, %xmm1, %xmm2
100004490:	0f 28 cf 	movaps	%xmm7, %xmm1
100004493:	0f 29 6a 30 	movaps	%xmm5, 48(%rdx)
100004497:	0f 29 62 20 	movaps	%xmm4, 32(%rdx)
10000449b:	0f 29 5a 10 	movaps	%xmm3, 16(%rdx)
10000449f:	0f 29 12 	movaps	%xmm2, (%rdx)
1000044a2:	48 8d 52 40 	leaq	64(%rdx), %rdx
1000044a6:	eb 8c 	jmp	-116 <___intel_ssse3_strncpy+0x1444>
1000044a8:	0f 28 32 	movaps	(%rdx), %xmm6
1000044ab:	66 0f 73 de 05 	psrldq	$5, %xmm6
1000044b0:	48 c7 c6 05 00 00 00 	movq	$5, %rsi
1000044b7:	66 0f 3a 0f f1 0b 	palignr	$11, %xmm1, %xmm6
1000044bd:	0f 29 32 	movaps	%xmm6, (%rdx)
1000044c0:	e9 3b 06 00 00 	jmp	1595 <___intel_ssse3_strncpy+0x1B10>
1000044c5:	0f 1f 40 00 	nopl	(%rax)
1000044c9:	0f 1f 80 00 00 00 00 	nopl	(%rax)
1000044d0:	0f 28 49 f4 	movaps	-12(%rcx), %xmm1
1000044d4:	0f 28 51 04 	movaps	4(%rcx), %xmm2
1000044d8:	66 0f 74 c2 	pcmpeqb	%xmm2, %xmm0
1000044dc:	66 0f d7 c0 	pmovmskb	%xmm0, %eax
1000044e0:	0f 28 da 	movaps	%xmm2, %xmm3
1000044e3:	49 83 e8 10 	subq	$16, %r8
1000044e7:	0f 86 4c 10 00 00 	jbe	4172 <___intel_ssse3_strncpy+0x2549>
1000044ed:	48 85 c0 	testq	%rax, %rax
1000044f0:	0f 85 42 01 00 00 	jne	322 <___intel_ssse3_strncpy+0x1648>
1000044f6:	66 0f 3a 0f d1 0c 	palignr	$12, %xmm1, %xmm2
1000044fc:	0f 28 cb 	movaps	%xmm3, %xmm1
1000044ff:	0f 29 12 	movaps	%xmm2, (%rdx)
100004502:	0f 28 51 14 	movaps	20(%rcx), %xmm2
100004506:	66 0f 74 c2 	pcmpeqb	%xmm2, %xmm0
10000450a:	48 8d 52 10 	leaq	16(%rdx), %rdx
10000450e:	66 0f d7 c0 	pmovmskb	%xmm0, %eax
100004512:	48 8d 49 10 	leaq	16(%rcx), %rcx
100004516:	0f 28 da 	movaps	%xmm2, %xmm3
100004519:	49 83 e8 10 	subq	$16, %r8
10000451d:	0f 86 16 10 00 00 	jbe	4118 <___intel_ssse3_strncpy+0x2549>
100004523:	48 85 c0 	testq	%rax, %rax
100004526:	0f 85 0c 01 00 00 	jne	268 <___intel_ssse3_strncpy+0x1648>
10000452c:	66 0f 3a 0f d1 0c 	palignr	$12, %xmm1, %xmm2
100004532:	0f 29 12 	movaps	%xmm2, (%rdx)
100004535:	0f 28 51 14 	movaps	20(%rcx), %xmm2
100004539:	0f 28 cb 	movaps	%xmm3, %xmm1
10000453c:	66 0f 74 c2 	pcmpeqb	%xmm2, %xmm0
100004540:	48 8d 52 10 	leaq	16(%rdx), %rdx
100004544:	66 0f d7 c0 	pmovmskb	%xmm0, %eax
100004548:	48 8d 49 10 	leaq	16(%rcx), %rcx
10000454c:	0f 28 da 	movaps	%xmm2, %xmm3
10000454f:	49 83 e8 10 	subq	$16, %r8
100004553:	0f 86 e0 0f 00 00 	jbe	4064 <___intel_ssse3_strncpy+0x2549>
100004559:	48 85 c0 	testq	%rax, %rax
10000455c:	0f 85 d6 00 00 00 	jne	214 <___intel_ssse3_strncpy+0x1648>
100004562:	66 0f 3a 0f d1 0c 	palignr	$12, %xmm1, %xmm2
100004568:	0f 28 cb 	movaps	%xmm3, %xmm1
10000456b:	0f 29 12 	movaps	%xmm2, (%rdx)
10000456e:	0f 28 51 14 	movaps	20(%rcx), %xmm2
100004572:	66 0f 74 c2 	pcmpeqb	%xmm2, %xmm0
100004576:	48 8d 52 10 	leaq	16(%rdx), %rdx
10000457a:	66 0f d7 c0 	pmovmskb	%xmm0, %eax
10000457e:	48 8d 49 10 	leaq	16(%rcx), %rcx
100004582:	0f 28 da 	movaps	%xmm2, %xmm3
100004585:	49 83 e8 10 	subq	$16, %r8
100004589:	0f 86 aa 0f 00 00 	jbe	4010 <___intel_ssse3_strncpy+0x2549>
10000458f:	48 85 c0 	testq	%rax, %rax
100004592:	0f 85 a0 00 00 00 	jne	160 <___intel_ssse3_strncpy+0x1648>
100004598:	66 0f 3a 0f d1 0c 	palignr	$12, %xmm1, %xmm2
10000459e:	0f 28 cb 	movaps	%xmm3, %xmm1
1000045a1:	0f 29 12 	movaps	%xmm2, (%rdx)
1000045a4:	48 8d 49 14 	leaq	20(%rcx), %rcx
1000045a8:	48 8d 52 10 	leaq	16(%rdx), %rdx
1000045ac:	48 89 c8 	movq	%rcx, %rax
1000045af:	48 83 e1 c0 	andq	$-64, %rcx
1000045b3:	48 2b c1 	subq	%rcx, %rax
1000045b6:	48 8d 49 fc 	leaq	-4(%rcx), %rcx
1000045ba:	48 2b d0 	subq	%rax, %rdx
1000045bd:	4c 03 c0 	addq	%rax, %r8
1000045c0:	0f 28 49 f4 	movaps	-12(%rcx), %xmm1
1000045c4:	0f 28 51 04 	movaps	4(%rcx), %xmm2
1000045c8:	0f 28 59 14 	movaps	20(%rcx), %xmm3
1000045cc:	0f 28 f3 	movaps	%xmm3, %xmm6
1000045cf:	0f 28 61 24 	movaps	36(%rcx), %xmm4
1000045d3:	0f 28 fc 	movaps	%xmm4, %xmm7
1000045d6:	0f 28 69 34 	movaps	52(%rcx), %xmm5
1000045da:	66 0f da f2 	pminub	%xmm2, %xmm6
1000045de:	66 0f da fd 	pminub	%xmm5, %xmm7
1000045e2:	66 0f da fe 	pminub	%xmm6, %xmm7
1000045e6:	66 0f 74 f8 	pcmpeqb	%xmm0, %xmm7
1000045ea:	66 0f d7 c7 	pmovmskb	%xmm7, %eax
1000045ee:	0f 28 fd 	movaps	%xmm5, %xmm7
1000045f1:	66 0f 3a 0f ec 0c 	palignr	$12, %xmm4, %xmm5
1000045f7:	48 85 c0 	testq	%rax, %rax
1000045fa:	66 0f 3a 0f e3 0c 	palignr	$12, %xmm3, %xmm4
100004600:	0f 85 d2 fe ff ff 	jne	-302 <___intel_ssse3_strncpy+0x14E8>
100004606:	49 83 e8 40 	subq	$64, %r8
10000460a:	0f 86 20 15 00 00 	jbe	5408 <___intel_ssse3_strncpy+0x2B40>
100004610:	66 0f 3a 0f da 0c 	palignr	$12, %xmm2, %xmm3
100004616:	48 8d 49 40 	leaq	64(%rcx), %rcx
10000461a:	66 0f 3a 0f d1 0c 	palignr	$12, %xmm1, %xmm2
100004620:	0f 28 cf 	movaps	%xmm7, %xmm1
100004623:	0f 29 6a 30 	movaps	%xmm5, 48(%rdx)
100004627:	0f 29 62 20 	movaps	%xmm4, 32(%rdx)
10000462b:	0f 29 5a 10 	movaps	%xmm3, 16(%rdx)
10000462f:	0f 29 12 	movaps	%xmm2, (%rdx)
100004632:	48 8d 52 40 	leaq	64(%rdx), %rdx
100004636:	eb 8c 	jmp	-116 <___intel_ssse3_strncpy+0x15D4>
100004638:	0f 28 32 	movaps	(%rdx), %xmm6
10000463b:	66 0f 73 de 04 	psrldq	$4, %xmm6
100004640:	48 c7 c6 04 00 00 00 	movq	$4, %rsi
100004647:	66 0f 3a 0f f1 0c 	palignr	$12, %xmm1, %xmm6
10000464d:	0f 29 32 	movaps	%xmm6, (%rdx)
100004650:	e9 ab 04 00 00 	jmp	1195 <___intel_ssse3_strncpy+0x1B10>
100004655:	0f 1f 40 00 	nopl	(%rax)
100004659:	0f 1f 80 00 00 00 00 	nopl	(%rax)
100004660:	0f 28 49 f3 	movaps	-13(%rcx), %xmm1
100004664:	0f 28 51 03 	movaps	3(%rcx), %xmm2
100004668:	66 0f 74 c2 	pcmpeqb	%xmm2, %xmm0
10000466c:	66 0f d7 c0 	pmovmskb	%xmm0, %eax
100004670:	0f 28 da 	movaps	%xmm2, %xmm3
100004673:	49 83 e8 10 	subq	$16, %r8
100004677:	0f 86 e2 0e 00 00 	jbe	3810 <___intel_ssse3_strncpy+0x256F>
10000467d:	48 85 c0 	testq	%rax, %rax
100004680:	0f 85 42 01 00 00 	jne	322 <___intel_ssse3_strncpy+0x17D8>
100004686:	66 0f 3a 0f d1 0d 	palignr	$13, %xmm1, %xmm2
10000468c:	0f 28 cb 	movaps	%xmm3, %xmm1
10000468f:	0f 29 12 	movaps	%xmm2, (%rdx)
100004692:	0f 28 51 13 	movaps	19(%rcx), %xmm2
100004696:	66 0f 74 c2 	pcmpeqb	%xmm2, %xmm0
10000469a:	48 8d 52 10 	leaq	16(%rdx), %rdx
10000469e:	66 0f d7 c0 	pmovmskb	%xmm0, %eax
1000046a2:	48 8d 49 10 	leaq	16(%rcx), %rcx
1000046a6:	0f 28 da 	movaps	%xmm2, %xmm3
1000046a9:	49 83 e8 10 	subq	$16, %r8
1000046ad:	0f 86 ac 0e 00 00 	jbe	3756 <___intel_ssse3_strncpy+0x256F>
1000046b3:	48 85 c0 	testq	%rax, %rax
1000046b6:	0f 85 0c 01 00 00 	jne	268 <___intel_ssse3_strncpy+0x17D8>
1000046bc:	66 0f 3a 0f d1 0d 	palignr	$13, %xmm1, %xmm2
1000046c2:	0f 29 12 	movaps	%xmm2, (%rdx)
1000046c5:	0f 28 51 13 	movaps	19(%rcx), %xmm2
1000046c9:	0f 28 cb 	movaps	%xmm3, %xmm1
1000046cc:	66 0f 74 c2 	pcmpeqb	%xmm2, %xmm0
1000046d0:	48 8d 52 10 	leaq	16(%rdx), %rdx
1000046d4:	66 0f d7 c0 	pmovmskb	%xmm0, %eax
1000046d8:	48 8d 49 10 	leaq	16(%rcx), %rcx
1000046dc:	0f 28 da 	movaps	%xmm2, %xmm3
1000046df:	49 83 e8 10 	subq	$16, %r8
1000046e3:	0f 86 76 0e 00 00 	jbe	3702 <___intel_ssse3_strncpy+0x256F>
1000046e9:	48 85 c0 	testq	%rax, %rax
1000046ec:	0f 85 d6 00 00 00 	jne	214 <___intel_ssse3_strncpy+0x17D8>
1000046f2:	66 0f 3a 0f d1 0d 	palignr	$13, %xmm1, %xmm2
1000046f8:	0f 28 cb 	movaps	%xmm3, %xmm1
1000046fb:	0f 29 12 	movaps	%xmm2, (%rdx)
1000046fe:	0f 28 51 13 	movaps	19(%rcx), %xmm2
100004702:	66 0f 74 c2 	pcmpeqb	%xmm2, %xmm0
100004706:	48 8d 52 10 	leaq	16(%rdx), %rdx
10000470a:	66 0f d7 c0 	pmovmskb	%xmm0, %eax
10000470e:	48 8d 49 10 	leaq	16(%rcx), %rcx
100004712:	0f 28 da 	movaps	%xmm2, %xmm3
100004715:	49 83 e8 10 	subq	$16, %r8
100004719:	0f 86 40 0e 00 00 	jbe	3648 <___intel_ssse3_strncpy+0x256F>
10000471f:	48 85 c0 	testq	%rax, %rax
100004722:	0f 85 a0 00 00 00 	jne	160 <___intel_ssse3_strncpy+0x17D8>
100004728:	66 0f 3a 0f d1 0d 	palignr	$13, %xmm1, %xmm2
10000472e:	0f 28 cb 	movaps	%xmm3, %xmm1
100004731:	0f 29 12 	movaps	%xmm2, (%rdx)
100004734:	48 8d 49 13 	leaq	19(%rcx), %rcx
100004738:	48 8d 52 10 	leaq	16(%rdx), %rdx
10000473c:	48 89 c8 	movq	%rcx, %rax
10000473f:	48 83 e1 c0 	andq	$-64, %rcx
100004743:	48 2b c1 	subq	%rcx, %rax
100004746:	48 8d 49 fd 	leaq	-3(%rcx), %rcx
10000474a:	48 2b d0 	subq	%rax, %rdx
10000474d:	4c 03 c0 	addq	%rax, %r8
100004750:	0f 28 49 f3 	movaps	-13(%rcx), %xmm1
100004754:	0f 28 51 03 	movaps	3(%rcx), %xmm2
100004758:	0f 28 59 13 	movaps	19(%rcx), %xmm3
10000475c:	0f 28 f3 	movaps	%xmm3, %xmm6
10000475f:	0f 28 61 23 	movaps	35(%rcx), %xmm4
100004763:	0f 28 fc 	movaps	%xmm4, %xmm7
100004766:	0f 28 69 33 	movaps	51(%rcx), %xmm5
10000476a:	66 0f da f2 	pminub	%xmm2, %xmm6
10000476e:	66 0f da fd 	pminub	%xmm5, %xmm7
100004772:	66 0f da fe 	pminub	%xmm6, %xmm7
100004776:	66 0f 74 f8 	pcmpeqb	%xmm0, %xmm7
10000477a:	66 0f d7 c7 	pmovmskb	%xmm7, %eax
10000477e:	0f 28 fd 	movaps	%xmm5, %xmm7
100004781:	66 0f 3a 0f ec 0d 	palignr	$13, %xmm4, %xmm5
100004787:	48 85 c0 	testq	%rax, %rax
10000478a:	66 0f 3a 0f e3 0d 	palignr	$13, %xmm3, %xmm4
100004790:	0f 85 d2 fe ff ff 	jne	-302 <___intel_ssse3_strncpy+0x1678>
100004796:	49 83 e8 40 	subq	$64, %r8
10000479a:	0f 86 0d 14 00 00 	jbe	5133 <___intel_ssse3_strncpy+0x2BBD>
1000047a0:	66 0f 3a 0f da 0d 	palignr	$13, %xmm2, %xmm3
1000047a6:	48 8d 49 40 	leaq	64(%rcx), %rcx
1000047aa:	66 0f 3a 0f d1 0d 	palignr	$13, %xmm1, %xmm2
1000047b0:	0f 28 cf 	movaps	%xmm7, %xmm1
1000047b3:	0f 29 6a 30 	movaps	%xmm5, 48(%rdx)
1000047b7:	0f 29 62 20 	movaps	%xmm4, 32(%rdx)
1000047bb:	0f 29 5a 10 	movaps	%xmm3, 16(%rdx)
1000047bf:	0f 29 12 	movaps	%xmm2, (%rdx)
1000047c2:	48 8d 52 40 	leaq	64(%rdx), %rdx
1000047c6:	eb 8c 	jmp	-116 <___intel_ssse3_strncpy+0x1764>
1000047c8:	0f 28 32 	movaps	(%rdx), %xmm6
1000047cb:	66 0f 73 de 03 	psrldq	$3, %xmm6
1000047d0:	48 c7 c6 03 00 00 00 	movq	$3, %rsi
1000047d7:	66 0f 3a 0f f1 0d 	palignr	$13, %xmm1, %xmm6
1000047dd:	0f 29 32 	movaps	%xmm6, (%rdx)
1000047e0:	e9 1b 03 00 00 	jmp	795 <___intel_ssse3_strncpy+0x1B10>
1000047e5:	0f 1f 40 00 	nopl	(%rax)
1000047e9:	0f 1f 80 00 00 00 00 	nopl	(%rax)
1000047f0:	0f 28 49 f2 	movaps	-14(%rcx), %xmm1
1000047f4:	0f 28 51 02 	movaps	2(%rcx), %xmm2
1000047f8:	66 0f 74 c2 	pcmpeqb	%xmm2, %xmm0
1000047fc:	66 0f d7 c0 	pmovmskb	%xmm0, %eax
100004800:	0f 28 da 	movaps	%xmm2, %xmm3
100004803:	49 83 e8 10 	subq	$16, %r8
100004807:	0f 86 78 0d 00 00 	jbe	3448 <___intel_ssse3_strncpy+0x2595>
10000480d:	48 85 c0 	testq	%rax, %rax
100004810:	0f 85 42 01 00 00 	jne	322 <___intel_ssse3_strncpy+0x1968>
100004816:	66 0f 3a 0f d1 0e 	palignr	$14, %xmm1, %xmm2
10000481c:	0f 28 cb 	movaps	%xmm3, %xmm1
10000481f:	0f 29 12 	movaps	%xmm2, (%rdx)
100004822:	0f 28 51 12 	movaps	18(%rcx), %xmm2
100004826:	66 0f 74 c2 	pcmpeqb	%xmm2, %xmm0
10000482a:	48 8d 52 10 	leaq	16(%rdx), %rdx
10000482e:	66 0f d7 c0 	pmovmskb	%xmm0, %eax
100004832:	48 8d 49 10 	leaq	16(%rcx), %rcx
100004836:	0f 28 da 	movaps	%xmm2, %xmm3
100004839:	49 83 e8 10 	subq	$16, %r8
10000483d:	0f 86 42 0d 00 00 	jbe	3394 <___intel_ssse3_strncpy+0x2595>
100004843:	48 85 c0 	testq	%rax, %rax
100004846:	0f 85 0c 01 00 00 	jne	268 <___intel_ssse3_strncpy+0x1968>
10000484c:	66 0f 3a 0f d1 0e 	palignr	$14, %xmm1, %xmm2
100004852:	0f 29 12 	movaps	%xmm2, (%rdx)
100004855:	0f 28 51 12 	movaps	18(%rcx), %xmm2
100004859:	0f 28 cb 	movaps	%xmm3, %xmm1
10000485c:	66 0f 74 c2 	pcmpeqb	%xmm2, %xmm0
100004860:	48 8d 52 10 	leaq	16(%rdx), %rdx
100004864:	66 0f d7 c0 	pmovmskb	%xmm0, %eax
100004868:	48 8d 49 10 	leaq	16(%rcx), %rcx
10000486c:	0f 28 da 	movaps	%xmm2, %xmm3
10000486f:	49 83 e8 10 	subq	$16, %r8
100004873:	0f 86 0c 0d 00 00 	jbe	3340 <___intel_ssse3_strncpy+0x2595>
100004879:	48 85 c0 	testq	%rax, %rax
10000487c:	0f 85 d6 00 00 00 	jne	214 <___intel_ssse3_strncpy+0x1968>
100004882:	66 0f 3a 0f d1 0e 	palignr	$14, %xmm1, %xmm2
100004888:	0f 28 cb 	movaps	%xmm3, %xmm1
10000488b:	0f 29 12 	movaps	%xmm2, (%rdx)
10000488e:	0f 28 51 12 	movaps	18(%rcx), %xmm2
100004892:	66 0f 74 c2 	pcmpeqb	%xmm2, %xmm0
100004896:	48 8d 52 10 	leaq	16(%rdx), %rdx
10000489a:	66 0f d7 c0 	pmovmskb	%xmm0, %eax
10000489e:	48 8d 49 10 	leaq	16(%rcx), %rcx
1000048a2:	0f 28 da 	movaps	%xmm2, %xmm3
1000048a5:	49 83 e8 10 	subq	$16, %r8
1000048a9:	0f 86 d6 0c 00 00 	jbe	3286 <___intel_ssse3_strncpy+0x2595>
1000048af:	48 85 c0 	testq	%rax, %rax
1000048b2:	0f 85 a0 00 00 00 	jne	160 <___intel_ssse3_strncpy+0x1968>
1000048b8:	66 0f 3a 0f d1 0e 	palignr	$14, %xmm1, %xmm2
1000048be:	0f 28 cb 	movaps	%xmm3, %xmm1
1000048c1:	0f 29 12 	movaps	%xmm2, (%rdx)
1000048c4:	48 8d 49 12 	leaq	18(%rcx), %rcx
1000048c8:	48 8d 52 10 	leaq	16(%rdx), %rdx
1000048cc:	48 89 c8 	movq	%rcx, %rax
1000048cf:	48 83 e1 c0 	andq	$-64, %rcx
1000048d3:	48 2b c1 	subq	%rcx, %rax
1000048d6:	48 8d 49 fe 	leaq	-2(%rcx), %rcx
1000048da:	48 2b d0 	subq	%rax, %rdx
1000048dd:	4c 03 c0 	addq	%rax, %r8
1000048e0:	0f 28 49 f2 	movaps	-14(%rcx), %xmm1
1000048e4:	0f 28 51 02 	movaps	2(%rcx), %xmm2
1000048e8:	0f 28 59 12 	movaps	18(%rcx), %xmm3
1000048ec:	0f 28 f3 	movaps	%xmm3, %xmm6
1000048ef:	0f 28 61 22 	movaps	34(%rcx), %xmm4
1000048f3:	0f 28 fc 	movaps	%xmm4, %xmm7
1000048f6:	0f 28 69 32 	movaps	50(%rcx), %xmm5
1000048fa:	66 0f da f2 	pminub	%xmm2, %xmm6
1000048fe:	66 0f da fd 	pminub	%xmm5, %xmm7
100004902:	66 0f da fe 	pminub	%xmm6, %xmm7
100004906:	66 0f 74 f8 	pcmpeqb	%xmm0, %xmm7
10000490a:	66 0f d7 c7 	pmovmskb	%xmm7, %eax
10000490e:	0f 28 fd 	movaps	%xmm5, %xmm7
100004911:	66 0f 3a 0f ec 0e 	palignr	$14, %xmm4, %xmm5
100004917:	48 85 c0 	testq	%rax, %rax
10000491a:	66 0f 3a 0f e3 0e 	palignr	$14, %xmm3, %xmm4
100004920:	0f 85 d2 fe ff ff 	jne	-302 <___intel_ssse3_strncpy+0x1808>
100004926:	49 83 e8 40 	subq	$64, %r8
10000492a:	0f 86 fa 12 00 00 	jbe	4858 <___intel_ssse3_strncpy+0x2C3A>
100004930:	66 0f 3a 0f da 0e 	palignr	$14, %xmm2, %xmm3
100004936:	48 8d 49 40 	leaq	64(%rcx), %rcx
10000493a:	66 0f 3a 0f d1 0e 	palignr	$14, %xmm1, %xmm2
100004940:	0f 28 cf 	movaps	%xmm7, %xmm1
100004943:	0f 29 6a 30 	movaps	%xmm5, 48(%rdx)
100004947:	0f 29 62 20 	movaps	%xmm4, 32(%rdx)
10000494b:	0f 29 5a 10 	movaps	%xmm3, 16(%rdx)
10000494f:	0f 29 12 	movaps	%xmm2, (%rdx)
100004952:	48 8d 52 40 	leaq	64(%rdx), %rdx
100004956:	eb 8c 	jmp	-116 <___intel_ssse3_strncpy+0x18F4>
100004958:	0f 28 32 	movaps	(%rdx), %xmm6
10000495b:	66 0f 73 de 02 	psrldq	$2, %xmm6
100004960:	48 c7 c6 02 00 00 00 	movq	$2, %rsi
100004967:	66 0f 3a 0f f1 0e 	palignr	$14, %xmm1, %xmm6
10000496d:	0f 29 32 	movaps	%xmm6, (%rdx)
100004970:	e9 8b 01 00 00 	jmp	395 <___intel_ssse3_strncpy+0x1B10>
100004975:	0f 1f 40 00 	nopl	(%rax)
100004979:	0f 1f 80 00 00 00 00 	nopl	(%rax)
100004980:	0f 28 49 f1 	movaps	-15(%rcx), %xmm1
100004984:	0f 28 51 01 	movaps	1(%rcx), %xmm2
100004988:	66 0f 74 c2 	pcmpeqb	%xmm2, %xmm0
10000498c:	66 0f d7 c0 	pmovmskb	%xmm0, %eax
100004990:	0f 28 da 	movaps	%xmm2, %xmm3
100004993:	49 83 e8 10 	subq	$16, %r8
100004997:	0f 86 0e 0c 00 00 	jbe	3086 <___intel_ssse3_strncpy+0x25BB>
10000499d:	48 85 c0 	testq	%rax, %rax
1000049a0:	0f 85 42 01 00 00 	jne	322 <___intel_ssse3_strncpy+0x1AF8>
1000049a6:	66 0f 3a 0f d1 0f 	palignr	$15, %xmm1, %xmm2
1000049ac:	0f 28 cb 	movaps	%xmm3, %xmm1
1000049af:	0f 29 12 	movaps	%xmm2, (%rdx)
1000049b2:	0f 28 51 11 	movaps	17(%rcx), %xmm2
1000049b6:	66 0f 74 c2 	pcmpeqb	%xmm2, %xmm0
1000049ba:	48 8d 52 10 	leaq	16(%rdx), %rdx
1000049be:	66 0f d7 c0 	pmovmskb	%xmm0, %eax
1000049c2:	48 8d 49 10 	leaq	16(%rcx), %rcx
1000049c6:	0f 28 da 	movaps	%xmm2, %xmm3
1000049c9:	49 83 e8 10 	subq	$16, %r8
1000049cd:	0f 86 d8 0b 00 00 	jbe	3032 <___intel_ssse3_strncpy+0x25BB>
1000049d3:	48 85 c0 	testq	%rax, %rax
1000049d6:	0f 85 0c 01 00 00 	jne	268 <___intel_ssse3_strncpy+0x1AF8>
1000049dc:	66 0f 3a 0f d1 0f 	palignr	$15, %xmm1, %xmm2
1000049e2:	0f 29 12 	movaps	%xmm2, (%rdx)
1000049e5:	0f 28 51 11 	movaps	17(%rcx), %xmm2
1000049e9:	0f 28 cb 	movaps	%xmm3, %xmm1
1000049ec:	66 0f 74 c2 	pcmpeqb	%xmm2, %xmm0
1000049f0:	48 8d 52 10 	leaq	16(%rdx), %rdx
1000049f4:	66 0f d7 c0 	pmovmskb	%xmm0, %eax
1000049f8:	48 8d 49 10 	leaq	16(%rcx), %rcx
1000049fc:	0f 28 da 	movaps	%xmm2, %xmm3
1000049ff:	49 83 e8 10 	subq	$16, %r8
100004a03:	0f 86 a2 0b 00 00 	jbe	2978 <___intel_ssse3_strncpy+0x25BB>
100004a09:	48 85 c0 	testq	%rax, %rax
100004a0c:	0f 85 d6 00 00 00 	jne	214 <___intel_ssse3_strncpy+0x1AF8>
100004a12:	66 0f 3a 0f d1 0f 	palignr	$15, %xmm1, %xmm2
100004a18:	0f 28 cb 	movaps	%xmm3, %xmm1
100004a1b:	0f 29 12 	movaps	%xmm2, (%rdx)
100004a1e:	0f 28 51 11 	movaps	17(%rcx), %xmm2
100004a22:	66 0f 74 c2 	pcmpeqb	%xmm2, %xmm0
100004a26:	48 8d 52 10 	leaq	16(%rdx), %rdx
100004a2a:	66 0f d7 c0 	pmovmskb	%xmm0, %eax
100004a2e:	48 8d 49 10 	leaq	16(%rcx), %rcx
100004a32:	0f 28 da 	movaps	%xmm2, %xmm3
100004a35:	49 83 e8 10 	subq	$16, %r8
100004a39:	0f 86 6c 0b 00 00 	jbe	2924 <___intel_ssse3_strncpy+0x25BB>
100004a3f:	48 85 c0 	testq	%rax, %rax
100004a42:	0f 85 a0 00 00 00 	jne	160 <___intel_ssse3_strncpy+0x1AF8>
100004a48:	66 0f 3a 0f d1 0f 	palignr	$15, %xmm1, %xmm2
100004a4e:	0f 28 cb 	movaps	%xmm3, %xmm1
100004a51:	0f 29 12 	movaps	%xmm2, (%rdx)
100004a54:	48 8d 49 11 	leaq	17(%rcx), %rcx
100004a58:	48 8d 52 10 	leaq	16(%rdx), %rdx
100004a5c:	48 89 c8 	movq	%rcx, %rax
100004a5f:	48 83 e1 c0 	andq	$-64, %rcx
100004a63:	48 2b c1 	subq	%rcx, %rax
100004a66:	48 8d 49 ff 	leaq	-1(%rcx), %rcx
100004a6a:	48 2b d0 	subq	%rax, %rdx
100004a6d:	4c 03 c0 	addq	%rax, %r8
100004a70:	0f 28 49 f1 	movaps	-15(%rcx), %xmm1
100004a74:	0f 28 51 01 	movaps	1(%rcx), %xmm2
100004a78:	0f 28 59 11 	movaps	17(%rcx), %xmm3
100004a7c:	0f 28 f3 	movaps	%xmm3, %xmm6
100004a7f:	0f 28 61 21 	movaps	33(%rcx), %xmm4
100004a83:	0f 28 fc 	movaps	%xmm4, %xmm7
100004a86:	0f 28 69 31 	movaps	49(%rcx), %xmm5
100004a8a:	66 0f da f2 	pminub	%xmm2, %xmm6
100004a8e:	66 0f da fd 	pminub	%xmm5, %xmm7
100004a92:	66 0f da fe 	pminub	%xmm6, %xmm7
100004a96:	66 0f 74 f8 	pcmpeqb	%xmm0, %xmm7
100004a9a:	66 0f d7 c7 	pmovmskb	%xmm7, %eax
100004a9e:	0f 28 fd 	movaps	%xmm5, %xmm7
100004aa1:	66 0f 3a 0f ec 0f 	palignr	$15, %xmm4, %xmm5
100004aa7:	48 85 c0 	testq	%rax, %rax
100004aaa:	66 0f 3a 0f e3 0f 	palignr	$15, %xmm3, %xmm4
100004ab0:	0f 85 d2 fe ff ff 	jne	-302 <___intel_ssse3_strncpy+0x1998>
100004ab6:	49 83 e8 40 	subq	$64, %r8
100004aba:	0f 86 e7 11 00 00 	jbe	4583 <___intel_ssse3_strncpy+0x2CB7>
100004ac0:	66 0f 3a 0f da 0f 	palignr	$15, %xmm2, %xmm3
100004ac6:	48 8d 49 40 	leaq	64(%rcx), %rcx
100004aca:	66 0f 3a 0f d1 0f 	palignr	$15, %xmm1, %xmm2
100004ad0:	0f 28 cf 	movaps	%xmm7, %xmm1
100004ad3:	0f 29 6a 30 	movaps	%xmm5, 48(%rdx)
100004ad7:	0f 29 62 20 	movaps	%xmm4, 32(%rdx)
100004adb:	0f 29 5a 10 	movaps	%xmm3, 16(%rdx)
100004adf:	0f 29 12 	movaps	%xmm2, (%rdx)
100004ae2:	48 8d 52 40 	leaq	64(%rdx), %rdx
100004ae6:	eb 8c 	jmp	-116 <___intel_ssse3_strncpy+0x1A84>
100004ae8:	0f 28 32 	movaps	(%rdx), %xmm6
100004aeb:	66 0f 73 de 01 	psrldq	$1, %xmm6
100004af0:	48 c7 c6 01 00 00 00 	movq	$1, %rsi
100004af7:	66 0f 3a 0f f1 0f 	palignr	$15, %xmm1, %xmm6
100004afd:	0f 29 32 	movaps	%xmm6, (%rdx)
100004b00:	49 83 c0 10 	addq	$16, %r8
100004b04:	48 03 d6 	addq	%rsi, %rdx
100004b07:	48 03 ce 	addq	%rsi, %rcx
100004b0a:	84 c0 	testb	%al, %al
100004b0c:	74 62 	je	98 <___intel_ssse3_strncpy+0x1B80>
100004b0e:	a8 01 	testb	$1, %al
100004b10:	0f 85 9a 02 00 00 	jne	666 <___intel_ssse3_strncpy+0x1DC0>
100004b16:	a8 02 	testb	$2, %al
100004b18:	0f 85 b2 02 00 00 	jne	690 <___intel_ssse3_strncpy+0x1DE0>
100004b1e:	a8 04 	testb	$4, %al
100004b20:	0f 85 ca 02 00 00 	jne	714 <___intel_ssse3_strncpy+0x1E00>
100004b26:	a8 08 	testb	$8, %al
100004b28:	0f 85 e2 02 00 00 	jne	738 <___intel_ssse3_strncpy+0x1E20>
100004b2e:	a8 10 	testb	$16, %al
100004b30:	0f 85 fa 02 00 00 	jne	762 <___intel_ssse3_strncpy+0x1E40>
100004b36:	a8 20 	testb	$32, %al
100004b38:	0f 85 12 03 00 00 	jne	786 <___intel_ssse3_strncpy+0x1E60>
100004b3e:	a8 40 	testb	$64, %al
100004b40:	0f 85 2a 03 00 00 	jne	810 <___intel_ssse3_strncpy+0x1E80>
100004b46:	0f 1f 00 	nopl	(%rax)
100004b49:	0f 1f 80 00 00 00 00 	nopl	(%rax)
100004b50:	48 8b 01 	movq	(%rcx), %rax
100004b53:	48 89 02 	movq	%rax, (%rdx)
100004b56:	48 89 f8 	movq	%rdi, %rax
100004b59:	49 83 e8 08 	subq	$8, %r8
100004b5d:	48 8d 4a 08 	leaq	8(%rdx), %rcx
100004b61:	0f 85 a9 05 00 00 	jne	1449 <___intel_ssse3_strncpy+0x2120>
100004b67:	c3 	retq
100004b68:	0f 1f 84 00 00 00 00 00 	nopl	(%rax,%rax)
100004b70:	f6 c4 01 	testb	$1, %ah
100004b73:	0f 85 17 03 00 00 	jne	791 <___intel_ssse3_strncpy+0x1EA0>
100004b79:	f6 c4 02 	testb	$2, %ah
100004b7c:	0f 85 2e 03 00 00 	jne	814 <___intel_ssse3_strncpy+0x1EC0>
100004b82:	f6 c4 04 	testb	$4, %ah
100004b85:	0f 85 45 03 00 00 	jne	837 <___intel_ssse3_strncpy+0x1EE0>
100004b8b:	f6 c4 08 	testb	$8, %ah
100004b8e:	0f 85 5c 03 00 00 	jne	860 <___intel_ssse3_strncpy+0x1F00>
100004b94:	f6 c4 10 	testb	$16, %ah
100004b97:	0f 85 73 03 00 00 	jne	883 <___intel_ssse3_strncpy+0x1F20>
100004b9d:	f6 c4 20 	testb	$32, %ah
100004ba0:	0f 85 8a 03 00 00 	jne	906 <___intel_ssse3_strncpy+0x1F40>
100004ba6:	f6 c4 40 	testb	$64, %ah
100004ba9:	0f 85 a1 03 00 00 	jne	929 <___intel_ssse3_strncpy+0x1F60>
100004baf:	90 	nop
100004bb0:	48 8b 01 	movq	(%rcx), %rax
100004bb3:	48 89 02 	movq	%rax, (%rdx)
100004bb6:	48 8b 41 08 	movq	8(%rcx), %rax
100004bba:	48 89 42 08 	movq	%rax, 8(%rdx)
100004bbe:	48 89 f8 	movq	%rdi, %rax
100004bc1:	49 83 e8 10 	subq	$16, %r8
100004bc5:	48 8d 4a 10 	leaq	16(%rdx), %rcx
100004bc9:	0f 85 41 05 00 00 	jne	1345 <___intel_ssse3_strncpy+0x2120>
100004bcf:	c3 	retq
100004bd0:	49 83 c0 10 	addq	$16, %r8
100004bd4:	48 03 ce 	addq	%rsi, %rcx
100004bd7:	48 8d 34 16 	leaq	(%rsi,%rdx), %rsi
100004bdb:	49 8d 50 f7 	leaq	-9(%r8), %rdx
100004bdf:	80 e6 80 	andb	$-128, %dh
100004be2:	0a f0 	orb	%al, %dh
100004be4:	84 f6 	testb	%dh, %dh
100004be6:	48 8d 16 	leaq	(%rsi), %rdx
100004be9:	0f 84 91 00 00 00 	je	145 <___intel_ssse3_strncpy+0x1C90>
100004bef:	49 83 f8 01 	cmpq	$1, %r8
100004bf3:	0f 84 b7 01 00 00 	je	439 <___intel_ssse3_strncpy+0x1DC0>
100004bf9:	a8 01 	testb	$1, %al
100004bfb:	0f 85 af 01 00 00 	jne	431 <___intel_ssse3_strncpy+0x1DC0>
100004c01:	49 83 f8 02 	cmpq	$2, %r8
100004c05:	0f 84 c5 01 00 00 	je	453 <___intel_ssse3_strncpy+0x1DE0>
100004c0b:	a8 02 	testb	$2, %al
100004c0d:	0f 85 bd 01 00 00 	jne	445 <___intel_ssse3_strncpy+0x1DE0>
100004c13:	49 83 f8 03 	cmpq	$3, %r8
100004c17:	0f 84 d3 01 00 00 	je	467 <___intel_ssse3_strncpy+0x1E00>
100004c1d:	a8 04 	testb	$4, %al
100004c1f:	0f 85 cb 01 00 00 	jne	459 <___intel_ssse3_strncpy+0x1E00>
100004c25:	49 83 f8 04 	cmpq	$4, %r8
100004c29:	0f 84 e1 01 00 00 	je	481 <___intel_ssse3_strncpy+0x1E20>
100004c2f:	a8 08 	testb	$8, %al
100004c31:	0f 85 d9 01 00 00 	jne	473 <___intel_ssse3_strncpy+0x1E20>
100004c37:	49 83 f8 05 	cmpq	$5, %r8
100004c3b:	0f 84 ef 01 00 00 	je	495 <___intel_ssse3_strncpy+0x1E40>
100004c41:	a8 10 	testb	$16, %al
100004c43:	0f 85 e7 01 00 00 	jne	487 <___intel_ssse3_strncpy+0x1E40>
100004c49:	49 83 f8 06 	cmpq	$6, %r8
100004c4d:	0f 84 fd 01 00 00 	je	509 <___intel_ssse3_strncpy+0x1E60>
100004c53:	a8 20 	testb	$32, %al
100004c55:	0f 85 f5 01 00 00 	jne	501 <___intel_ssse3_strncpy+0x1E60>
100004c5b:	49 83 f8 07 	cmpq	$7, %r8
100004c5f:	0f 84 0b 02 00 00 	je	523 <___intel_ssse3_strncpy+0x1E80>
100004c65:	a8 40 	testb	$64, %al
100004c67:	0f 85 03 02 00 00 	jne	515 <___intel_ssse3_strncpy+0x1E80>
100004c6d:	e9 de fe ff ff 	jmp	-290 <___intel_ssse3_strncpy+0x1B60>
100004c72:	0f 1f 80 00 00 00 00 	nopl	(%rax)
100004c79:	0f 1f 80 00 00 00 00 	nopl	(%rax)
100004c80:	49 83 f8 09 	cmpq	$9, %r8
100004c84:	0f 84 06 02 00 00 	je	518 <___intel_ssse3_strncpy+0x1EA0>
100004c8a:	f6 c4 01 	testb	$1, %ah
100004c8d:	0f 85 fd 01 00 00 	jne	509 <___intel_ssse3_strncpy+0x1EA0>
100004c93:	49 83 f8 0a 	cmpq	$10, %r8
100004c97:	0f 84 13 02 00 00 	je	531 <___intel_ssse3_strncpy+0x1EC0>
100004c9d:	f6 c4 02 	testb	$2, %ah
100004ca0:	0f 85 0a 02 00 00 	jne	522 <___intel_ssse3_strncpy+0x1EC0>
100004ca6:	49 83 f8 0b 	cmpq	$11, %r8
100004caa:	0f 84 20 02 00 00 	je	544 <___intel_ssse3_strncpy+0x1EE0>
100004cb0:	f6 c4 04 	testb	$4, %ah
100004cb3:	0f 85 17 02 00 00 	jne	535 <___intel_ssse3_strncpy+0x1EE0>
100004cb9:	49 83 f8 0c 	cmpq	$12, %r8
100004cbd:	0f 84 2d 02 00 00 	je	557 <___intel_ssse3_strncpy+0x1F00>
100004cc3:	f6 c4 08 	testb	$8, %ah
100004cc6:	0f 85 24 02 00 00 	jne	548 <___intel_ssse3_strncpy+0x1F00>
100004ccc:	49 83 f8 0d 	cmpq	$13, %r8
100004cd0:	0f 84 3a 02 00 00 	je	570 <___intel_ssse3_strncpy+0x1F20>
100004cd6:	f6 c4 10 	testb	$16, %ah
100004cd9:	0f 85 31 02 00 00 	jne	561 <___intel_ssse3_strncpy+0x1F20>
100004cdf:	49 83 f8 0e 	cmpq	$14, %r8
100004ce3:	0f 84 47 02 00 00 	je	583 <___intel_ssse3_strncpy+0x1F40>
100004ce9:	f6 c4 20 	testb	$32, %ah
100004cec:	0f 85 3e 02 00 00 	jne	574 <___intel_ssse3_strncpy+0x1F40>
100004cf2:	49 83 f8 0f 	cmpq	$15, %r8
100004cf6:	0f 84 54 02 00 00 	je	596 <___intel_ssse3_strncpy+0x1F60>
100004cfc:	f6 c4 40 	testb	$64, %ah
100004cff:	0f 85 4b 02 00 00 	jne	587 <___intel_ssse3_strncpy+0x1F60>
100004d05:	e9 a6 fe ff ff 	jmp	-346 <___intel_ssse3_strncpy+0x1BC0>
100004d0a:	48 85 c0 	testq	%rax, %rax
100004d0d:	0f 85 bd fe ff ff 	jne	-323 <___intel_ssse3_strncpy+0x1BE0>
100004d13:	0f 1f 44 00 00 	nopl	(%rax,%rax)
100004d18:	0f 1f 84 00 00 00 00 00 	nopl	(%rax,%rax)
100004d20:	49 83 c0 10 	addq	$16, %r8
100004d24:	48 03 d6 	addq	%rsi, %rdx
100004d27:	48 03 ce 	addq	%rsi, %rcx
100004d2a:	49 83 f8 10 	cmpq	$16, %r8
100004d2e:	0f 84 7c fe ff ff 	je	-388 <___intel_ssse3_strncpy+0x1BC0>
100004d34:	49 83 f8 08 	cmpq	$8, %r8
100004d38:	0f 84 12 fe ff ff 	je	-494 <___intel_ssse3_strncpy+0x1B60>
100004d3e:	7f 1e 	jg	30 <___intel_ssse3_strncpy+0x1D6E>
100004d40:	49 83 f8 04 	cmpq	$4, %r8
100004d44:	0f 84 c6 00 00 00 	je	198 <___intel_ssse3_strncpy+0x1E20>
100004d4a:	7f 34 	jg	52 <___intel_ssse3_strncpy+0x1D90>
100004d4c:	49 83 f8 02 	cmpq	$2, %r8
100004d50:	7c 5e 	jl	94 <___intel_ssse3_strncpy+0x1DC0>
100004d52:	0f 84 78 00 00 00 	je	120 <___intel_ssse3_strncpy+0x1DE0>
100004d58:	0f 8f 92 00 00 00 	jg	146 <___intel_ssse3_strncpy+0x1E00>
100004d5e:	49 83 f8 0c 	cmpq	$12, %r8
100004d62:	0f 84 88 01 00 00 	je	392 <___intel_ssse3_strncpy+0x1F00>
100004d68:	7c 2c 	jl	44 <___intel_ssse3_strncpy+0x1DA6>
100004d6a:	49 83 f8 0e 	cmpq	$14, %r8
100004d6e:	0f 8c 9c 01 00 00 	jl	412 <___intel_ssse3_strncpy+0x1F20>
100004d74:	0f 84 b6 01 00 00 	je	438 <___intel_ssse3_strncpy+0x1F40>
100004d7a:	0f 8f d0 01 00 00 	jg	464 <___intel_ssse3_strncpy+0x1F60>
100004d80:	49 83 f8 06 	cmpq	$6, %r8
100004d84:	0f 8c a6 00 00 00 	jl	166 <___intel_ssse3_strncpy+0x1E40>
100004d8a:	0f 84 c0 00 00 00 	je	192 <___intel_ssse3_strncpy+0x1E60>
100004d90:	0f 8f da 00 00 00 	jg	218 <___intel_ssse3_strncpy+0x1E80>
100004d96:	49 83 f8 0a 	cmpq	$10, %r8
100004d9a:	0f 8c f0 00 00 00 	jl	240 <___intel_ssse3_strncpy+0x1EA0>
100004da0:	0f 84 0a 01 00 00 	je	266 <___intel_ssse3_strncpy+0x1EC0>
100004da6:	0f 8f 24 01 00 00 	jg	292 <___intel_ssse3_strncpy+0x1EE0>
100004dac:	0f 1f 40 00 	nopl	(%rax)
100004db0:	8a 01 	movb	(%rcx), %al
100004db2:	88 02 	movb	%al, (%rdx)
100004db4:	48 89 f8 	movq	%rdi, %rax
100004db7:	49 83 e8 01 	subq	$1, %r8
100004dbb:	48 8d 4a 01 	leaq	1(%rdx), %rcx
100004dbf:	0f 85 4b 03 00 00 	jne	843 <___intel_ssse3_strncpy+0x2120>
100004dc5:	c3 	retq
100004dc6:	0f 1f 00 	nopl	(%rax)
100004dc9:	0f 1f 80 00 00 00 00 	nopl	(%rax)
100004dd0:	66 8b 01 	movw	(%rcx), %ax
100004dd3:	66 89 02 	movw	%ax, (%rdx)
100004dd6:	48 89 f8 	movq	%rdi, %rax
100004dd9:	49 83 e8 02 	subq	$2, %r8
100004ddd:	48 8d 4a 02 	leaq	2(%rdx), %rcx
100004de1:	0f 85 29 03 00 00 	jne	809 <___intel_ssse3_strncpy+0x2120>
100004de7:	c3 	retq
100004de8:	0f 1f 84 00 00 00 00 00 	nopl	(%rax,%rax)
100004df0:	66 8b 01 	movw	(%rcx), %ax
100004df3:	66 89 02 	movw	%ax, (%rdx)
100004df6:	8a 41 02 	movb	2(%rcx), %al
100004df9:	88 42 02 	movb	%al, 2(%rdx)
100004dfc:	48 89 f8 	movq	%rdi, %rax
100004dff:	49 83 e8 03 	subq	$3, %r8
100004e03:	48 8d 4a 03 	leaq	3(%rdx), %rcx
100004e07:	0f 85 03 03 00 00 	jne	771 <___intel_ssse3_strncpy+0x2120>
100004e0d:	c3 	retq
100004e0e:	66 90 	nop
100004e10:	8b 01 	movl	(%rcx), %eax
100004e12:	89 02 	movl	%eax, (%rdx)
100004e14:	48 89 f8 	movq	%rdi, %rax
100004e17:	49 83 e8 04 	subq	$4, %r8
100004e1b:	48 8d 4a 04 	leaq	4(%rdx), %rcx
100004e1f:	0f 85 eb 02 00 00 	jne	747 <___intel_ssse3_strncpy+0x2120>
100004e25:	c3 	retq
100004e26:	0f 1f 00 	nopl	(%rax)
100004e29:	0f 1f 80 00 00 00 00 	nopl	(%rax)
100004e30:	8b 01 	movl	(%rcx), %eax
100004e32:	89 02 	movl	%eax, (%rdx)
100004e34:	8a 41 04 	movb	4(%rcx), %al
100004e37:	88 42 04 	movb	%al, 4(%rdx)
100004e3a:	48 89 f8 	movq	%rdi, %rax
100004e3d:	49 83 e8 05 	subq	$5, %r8
100004e41:	48 8d 4a 05 	leaq	5(%rdx), %rcx
100004e45:	0f 85 c5 02 00 00 	jne	709 <___intel_ssse3_strncpy+0x2120>
100004e4b:	c3 	retq
100004e4c:	0f 1f 40 00 	nopl	(%rax)
100004e50:	8b 01 	movl	(%rcx), %eax
100004e52:	89 02 	movl	%eax, (%rdx)
100004e54:	66 8b 41 04 	movw	4(%rcx), %ax
100004e58:	66 89 42 04 	movw	%ax, 4(%rdx)
100004e5c:	48 89 f8 	movq	%rdi, %rax
100004e5f:	49 83 e8 06 	subq	$6, %r8
100004e63:	48 8d 4a 06 	leaq	6(%rdx), %rcx
100004e67:	0f 85 a3 02 00 00 	jne	675 <___intel_ssse3_strncpy+0x2120>
100004e6d:	c3 	retq
100004e6e:	66 90 	nop
100004e70:	8b 01 	movl	(%rcx), %eax
100004e72:	89 02 	movl	%eax, (%rdx)
100004e74:	8b 41 03 	movl	3(%rcx), %eax
100004e77:	89 42 03 	movl	%eax, 3(%rdx)
100004e7a:	48 89 f8 	movq	%rdi, %rax
100004e7d:	49 83 e8 07 	subq	$7, %r8
100004e81:	48 8d 4a 07 	leaq	7(%rdx), %rcx
100004e85:	0f 85 85 02 00 00 	jne	645 <___intel_ssse3_strncpy+0x2120>
100004e8b:	c3 	retq
100004e8c:	0f 1f 40 00 	nopl	(%rax)
100004e90:	48 8b 01 	movq	(%rcx), %rax
100004e93:	48 89 02 	movq	%rax, (%rdx)
100004e96:	8b 41 05 	movl	5(%rcx), %eax
100004e99:	89 42 05 	movl	%eax, 5(%rdx)
100004e9c:	48 89 f8 	movq	%rdi, %rax
100004e9f:	49 83 e8 09 	subq	$9, %r8
100004ea3:	48 8d 4a 09 	leaq	9(%rdx), %rcx
100004ea7:	0f 85 63 02 00 00 	jne	611 <___intel_ssse3_strncpy+0x2120>
100004ead:	c3 	retq
100004eae:	66 90 	nop
100004eb0:	48 8b 01 	movq	(%rcx), %rax
100004eb3:	48 89 02 	movq	%rax, (%rdx)
100004eb6:	8b 41 06 	movl	6(%rcx), %eax
100004eb9:	89 42 06 	movl	%eax, 6(%rdx)
100004ebc:	48 89 f8 	movq	%rdi, %rax
100004ebf:	49 83 e8 0a 	subq	$10, %r8
100004ec3:	48 8d 4a 0a 	leaq	10(%rdx), %rcx
100004ec7:	0f 85 43 02 00 00 	jne	579 <___intel_ssse3_strncpy+0x2120>
100004ecd:	c3 	retq
100004ece:	66 90 	nop
100004ed0:	48 8b 01 	movq	(%rcx), %rax
100004ed3:	48 89 02 	movq	%rax, (%rdx)
100004ed6:	8b 41 07 	movl	7(%rcx), %eax
100004ed9:	89 42 07 	movl	%eax, 7(%rdx)
100004edc:	48 89 f8 	movq	%rdi, %rax
100004edf:	49 83 e8 0b 	subq	$11, %r8
100004ee3:	48 8d 4a 0b 	leaq	11(%rdx), %rcx
100004ee7:	0f 85 23 02 00 00 	jne	547 <___intel_ssse3_strncpy+0x2120>
100004eed:	c3 	retq
100004eee:	66 90 	nop
100004ef0:	48 8b 01 	movq	(%rcx), %rax
100004ef3:	48 89 02 	movq	%rax, (%rdx)
100004ef6:	8b 41 08 	movl	8(%rcx), %eax
100004ef9:	89 42 08 	movl	%eax, 8(%rdx)
100004efc:	48 89 f8 	movq	%rdi, %rax
100004eff:	49 83 e8 0c 	subq	$12, %r8
100004f03:	48 8d 4a 0c 	leaq	12(%rdx), %rcx
100004f07:	0f 85 03 02 00 00 	jne	515 <___intel_ssse3_strncpy+0x2120>
100004f0d:	c3 	retq
100004f0e:	66 90 	nop
100004f10:	48 8b 01 	movq	(%rcx), %rax
100004f13:	48 89 02 	movq	%rax, (%rdx)
100004f16:	48 8b 41 05 	movq	5(%rcx), %rax
100004f1a:	48 89 42 05 	movq	%rax, 5(%rdx)
100004f1e:	48 89 f8 	movq	%rdi, %rax
100004f21:	49 83 e8 0d 	subq	$13, %r8
100004f25:	48 8d 4a 0d 	leaq	13(%rdx), %rcx
100004f29:	0f 85 e1 01 00 00 	jne	481 <___intel_ssse3_strncpy+0x2120>
100004f2f:	c3 	retq
100004f30:	48 8b 01 	movq	(%rcx), %rax
100004f33:	48 89 02 	movq	%rax, (%rdx)
100004f36:	48 8b 41 06 	movq	6(%rcx), %rax
100004f3a:	48 89 42 06 	movq	%rax, 6(%rdx)
100004f3e:	48 89 f8 	movq	%rdi, %rax
100004f41:	49 83 e8 0e 	subq	$14, %r8
100004f45:	48 8d 4a 0e 	leaq	14(%rdx), %rcx
100004f49:	0f 85 c1 01 00 00 	jne	449 <___intel_ssse3_strncpy+0x2120>
100004f4f:	c3 	retq
100004f50:	48 8b 01 	movq	(%rcx), %rax
100004f53:	48 89 02 	movq	%rax, (%rdx)
100004f56:	48 8b 41 07 	movq	7(%rcx), %rax
100004f5a:	48 89 42 07 	movq	%rax, 7(%rdx)
100004f5e:	48 89 f8 	movq	%rdi, %rax
100004f61:	49 83 e8 0f 	subq	$15, %r8
100004f65:	48 8d 4a 0f 	leaq	15(%rdx), %rcx
100004f69:	0f 85 a1 01 00 00 	jne	417 <___intel_ssse3_strncpy+0x2120>
100004f6f:	c3 	retq
100004f70:	c3 	retq
100004f71:	0f 1f 84 00 00 00 00 00 	nopl	(%rax,%rax)
100004f79:	0f 1f 80 00 00 00 00 	nopl	(%rax)
100004f80:	88 11 	movb	%dl, (%rcx)
100004f82:	c3 	retq
100004f83:	0f 1f 44 00 00 	nopl	(%rax,%rax)
100004f88:	0f 1f 84 00 00 00 00 00 	nopl	(%rax,%rax)
100004f90:	66 89 11 	movw	%dx, (%rcx)
100004f93:	c3 	retq
100004f94:	0f 1f 44 00 00 	nopl	(%rax,%rax)
100004f99:	0f 1f 80 00 00 00 00 	nopl	(%rax)
100004fa0:	66 89 11 	movw	%dx, (%rcx)
100004fa3:	88 51 02 	movb	%dl, 2(%rcx)
100004fa6:	c3 	retq
100004fa7:	66 0f 1f 84 00 00 00 00 00 	nopw	(%rax,%rax)
100004fb0:	89 11 	movl	%edx, (%rcx)
100004fb2:	c3 	retq
100004fb3:	0f 1f 44 00 00 	nopl	(%rax,%rax)
100004fb8:	0f 1f 84 00 00 00 00 00 	nopl	(%rax,%rax)
100004fc0:	89 11 	movl	%edx, (%rcx)
100004fc2:	88 51 04 	movb	%dl, 4(%rcx)
100004fc5:	c3 	retq
100004fc6:	0f 1f 00 	nopl	(%rax)
100004fc9:	0f 1f 80 00 00 00 00 	nopl	(%rax)
100004fd0:	89 11 	movl	%edx, (%rcx)
100004fd2:	66 89 51 04 	movw	%dx, 4(%rcx)
100004fd6:	c3 	retq
100004fd7:	66 0f 1f 84 00 00 00 00 00 	nopw	(%rax,%rax)
100004fe0:	89 11 	movl	%edx, (%rcx)
100004fe2:	89 51 03 	movl	%edx, 3(%rcx)
100004fe5:	c3 	retq
100004fe6:	0f 1f 00 	nopl	(%rax)
100004fe9:	0f 1f 80 00 00 00 00 	nopl	(%rax)
100004ff0:	48 89 11 	movq	%rdx, (%rcx)
100004ff3:	c3 	retq
100004ff4:	0f 1f 44 00 00 	nopl	(%rax,%rax)
100004ff9:	0f 1f 80 00 00 00 00 	nopl	(%rax)
100005000:	48 89 11 	movq	%rdx, (%rcx)
100005003:	88 51 08 	movb	%dl, 8(%rcx)
100005006:	c3 	retq
100005007:	66 0f 1f 84 00 00 00 00 00 	nopw	(%rax,%rax)
100005010:	48 89 11 	movq	%rdx, (%rcx)
100005013:	66 89 51 08 	movw	%dx, 8(%rcx)
100005017:	c3 	retq
100005018:	0f 1f 84 00 00 00 00 00 	nopl	(%rax,%rax)
100005020:	48 89 11 	movq	%rdx, (%rcx)
100005023:	89 51 07 	movl	%edx, 7(%rcx)
100005026:	c3 	retq
100005027:	66 0f 1f 84 00 00 00 00 00 	nopw	(%rax,%rax)
100005030:	48 89 11 	movq	%rdx, (%rcx)
100005033:	89 51 08 	movl	%edx, 8(%rcx)
100005036:	c3 	retq
100005037:	66 0f 1f 84 00 00 00 00 00 	nopw	(%rax,%rax)
100005040:	48 89 11 	movq	%rdx, (%rcx)
100005043:	48 89 51 05 	movq	%rdx, 5(%rcx)
100005047:	c3 	retq
100005048:	0f 1f 84 00 00 00 00 00 	nopl	(%rax,%rax)
100005050:	48 89 11 	movq	%rdx, (%rcx)
100005053:	48 89 51 06 	movq	%rdx, 6(%rcx)
100005057:	c3 	retq
100005058:	0f 1f 84 00 00 00 00 00 	nopl	(%rax,%rax)
100005060:	48 89 11 	movq	%rdx, (%rcx)
100005063:	48 89 51 07 	movq	%rdx, 7(%rcx)
100005067:	c3 	retq
100005068:	0f 1f 84 00 00 00 00 00 	nopl	(%rax,%rax)
100005070:	48 89 11 	movq	%rdx, (%rcx)
100005073:	48 89 51 08 	movq	%rdx, 8(%rcx)
100005077:	c3 	retq
100005078:	0f 1f 84 00 00 00 00 00 	nopl	(%rax,%rax)
100005080:	4d 8d 40 10 	leaq	16(%r8), %r8
100005084:	4d 85 c0 	testq	%r8, %r8
100005087:	0f 84 e3 fe ff ff 	je	-285 <___intel_ssse3_strncpy+0x1F80>
10000508d:	49 83 f8 10 	cmpq	$16, %r8
100005091:	74 dd 	je	-35 <___intel_ssse3_strncpy+0x2080>
100005093:	49 83 f8 08 	cmpq	$8, %r8
100005097:	0f 84 53 ff ff ff 	je	-173 <___intel_ssse3_strncpy+0x2000>
10000509d:	7f 22 	jg	34 <___intel_ssse3_strncpy+0x20D1>
10000509f:	49 83 f8 04 	cmpq	$4, %r8
1000050a3:	0f 84 07 ff ff ff 	je	-249 <___intel_ssse3_strncpy+0x1FC0>
1000050a9:	7f 34 	jg	52 <___intel_ssse3_strncpy+0x20EF>
1000050ab:	49 83 f8 02 	cmpq	$2, %r8
1000050af:	0f 8c cb fe ff ff 	jl	-309 <___intel_ssse3_strncpy+0x1F90>
1000050b5:	0f 84 d5 fe ff ff 	je	-299 <___intel_ssse3_strncpy+0x1FA0>
1000050bb:	0f 8f df fe ff ff 	jg	-289 <___intel_ssse3_strncpy+0x1FB0>
1000050c1:	49 83 f8 0c 	cmpq	$12, %r8
1000050c5:	0f 84 65 ff ff ff 	je	-155 <___intel_ssse3_strncpy+0x2040>
1000050cb:	7c 28 	jl	40 <___intel_ssse3_strncpy+0x2105>
1000050cd:	49 83 f8 0e 	cmpq	$14, %r8
1000050d1:	0f 8c 69 ff ff ff 	jl	-151 <___intel_ssse3_strncpy+0x2050>
1000050d7:	0f 84 73 ff ff ff 	je	-141 <___intel_ssse3_strncpy+0x2060>
1000050dd:	7f 81 	jg	-127 <___intel_ssse3_strncpy+0x2070>
1000050df:	49 83 f8 06 	cmpq	$6, %r8
1000050e3:	0f 8c d7 fe ff ff 	jl	-297 <___intel_ssse3_strncpy+0x1FD0>
1000050e9:	0f 84 e1 fe ff ff 	je	-287 <___intel_ssse3_strncpy+0x1FE0>
1000050ef:	0f 8f eb fe ff ff 	jg	-277 <___intel_ssse3_strncpy+0x1FF0>
1000050f5:	49 83 f8 0a 	cmpq	$10, %r8
1000050f9:	0f 8c 01 ff ff ff 	jl	-255 <___intel_ssse3_strncpy+0x2010>
1000050ff:	0f 84 0b ff ff ff 	je	-245 <___intel_ssse3_strncpy+0x2020>
100005105:	e9 16 ff ff ff 	jmp	-234 <___intel_ssse3_strncpy+0x2030>
10000510a:	66 0f 1f 44 00 00 	nopw	(%rax,%rax)
100005110:	48 33 d2 	xorq	%rdx, %rdx
100005113:	49 83 e8 10 	subq	$16, %r8
100005117:	0f 86 63 ff ff ff 	jbe	-157 <___intel_ssse3_strncpy+0x2090>
10000511d:	66 0f ef c0 	pxor	%xmm0, %xmm0
100005121:	48 89 11 	movq	%rdx, (%rcx)
100005124:	48 89 51 08 	movq	%rdx, 8(%rcx)
100005128:	48 8d 49 10 	leaq	16(%rcx), %rcx
10000512c:	48 89 ca 	movq	%rcx, %rdx
10000512f:	48 83 e2 0f 	andq	$15, %rdx
100005133:	48 2b ca 	subq	%rdx, %rcx
100005136:	4c 03 c2 	addq	%rdx, %r8
100005139:	48 33 d2 	xorq	%rdx, %rdx
10000513c:	49 83 e8 40 	subq	$64, %r8
100005140:	72 1d 	jb	29 <___intel_ssse3_strncpy+0x216F>
100005142:	66 0f 7f 01 	movdqa	%xmm0, (%rcx)
100005146:	66 0f 7f 41 10 	movdqa	%xmm0, 16(%rcx)
10000514b:	66 0f 7f 41 20 	movdqa	%xmm0, 32(%rcx)
100005150:	66 0f 7f 41 30 	movdqa	%xmm0, 48(%rcx)
100005155:	48 8d 49 40 	leaq	64(%rcx), %rcx
100005159:	49 83 e8 40 	subq	$64, %r8
10000515d:	73 e3 	jae	-29 <___intel_ssse3_strncpy+0x2152>
10000515f:	49 83 c0 20 	addq	$32, %r8
100005163:	7c 24 	jl	36 <___intel_ssse3_strncpy+0x2199>
100005165:	66 0f 7f 01 	movdqa	%xmm0, (%rcx)
100005169:	66 0f 7f 41 10 	movdqa	%xmm0, 16(%rcx)
10000516e:	48 8d 49 20 	leaq	32(%rcx), %rcx
100005172:	49 83 e8 10 	subq	$16, %r8
100005176:	0f 8c 04 ff ff ff 	jl	-252 <___intel_ssse3_strncpy+0x2090>
10000517c:	66 0f 7f 01 	movdqa	%xmm0, (%rcx)
100005180:	48 8d 49 10 	leaq	16(%rcx), %rcx
100005184:	e9 fb fe ff ff 	jmp	-261 <___intel_ssse3_strncpy+0x2094>
100005189:	49 83 c0 10 	addq	$16, %r8
10000518d:	0f 8c ed fe ff ff 	jl	-275 <___intel_ssse3_strncpy+0x2090>
100005193:	66 0f 7f 01 	movdqa	%xmm0, (%rcx)
100005197:	48 8d 49 10 	leaq	16(%rcx), %rcx
10000519b:	e9 e4 fe ff ff 	jmp	-284 <___intel_ssse3_strncpy+0x2094>
1000051a0:	48 89 d0 	movq	%rdx, %rax
1000051a3:	c3 	retq
1000051a4:	0f 1f 44 00 00 	nopl	(%rax,%rax)
1000051a9:	0f 1f 80 00 00 00 00 	nopl	(%rax)
1000051b0:	49 83 f8 09 	cmpq	$9, %r8
1000051b4:	0f 84 d6 fc ff ff 	je	-810 <___intel_ssse3_strncpy+0x1EA0>
1000051ba:	80 79 08 00 	cmpb	$0, 8(%rcx)
1000051be:	0f 84 cc fc ff ff 	je	-820 <___intel_ssse3_strncpy+0x1EA0>
1000051c4:	49 83 f8 0a 	cmpq	$10, %r8
1000051c8:	0f 84 e2 fc ff ff 	je	-798 <___intel_ssse3_strncpy+0x1EC0>
1000051ce:	80 79 09 00 	cmpb	$0, 9(%rcx)
1000051d2:	0f 84 d8 fc ff ff 	je	-808 <___intel_ssse3_strncpy+0x1EC0>
1000051d8:	49 83 f8 0b 	cmpq	$11, %r8
1000051dc:	0f 84 ee fc ff ff 	je	-786 <___intel_ssse3_strncpy+0x1EE0>
1000051e2:	80 79 0a 00 	cmpb	$0, 10(%rcx)
1000051e6:	0f 84 e4 fc ff ff 	je	-796 <___intel_ssse3_strncpy+0x1EE0>
1000051ec:	49 83 f8 0c 	cmpq	$12, %r8
1000051f0:	0f 84 fa fc ff ff 	je	-774 <___intel_ssse3_strncpy+0x1F00>
1000051f6:	80 79 0b 00 	cmpb	$0, 11(%rcx)
1000051fa:	0f 84 f0 fc ff ff 	je	-784 <___intel_ssse3_strncpy+0x1F00>
100005200:	49 83 f8 0d 	cmpq	$13, %r8
100005204:	0f 84 06 fd ff ff 	je	-762 <___intel_ssse3_strncpy+0x1F20>
10000520a:	80 79 0c 00 	cmpb	$0, 12(%rcx)
10000520e:	0f 84 fc fc ff ff 	je	-772 <___intel_ssse3_strncpy+0x1F20>
100005214:	49 83 f8 0e 	cmpq	$14, %r8
100005218:	0f 84 12 fd ff ff 	je	-750 <___intel_ssse3_strncpy+0x1F40>
10000521e:	80 79 0d 00 	cmpb	$0, 13(%rcx)
100005222:	0f 84 08 fd ff ff 	je	-760 <___intel_ssse3_strncpy+0x1F40>
100005228:	48 8b 01 	movq	(%rcx), %rax
10000522b:	48 89 02 	movq	%rax, (%rdx)
10000522e:	48 8b 41 07 	movq	7(%rcx), %rax
100005232:	48 89 42 07 	movq	%rax, 7(%rdx)
100005236:	48 89 f8 	movq	%rdi, %rax
100005239:	c3 	retq
10000523a:	66 0f 1f 44 00 00 	nopw	(%rax,%rax)
100005240:	49 83 f8 01 	cmpq	$1, %r8
100005244:	0f 84 66 fb ff ff 	je	-1178 <___intel_ssse3_strncpy+0x1DC0>
10000524a:	80 39 00 	cmpb	$0, (%rcx)
10000524d:	0f 84 5d fb ff ff 	je	-1187 <___intel_ssse3_strncpy+0x1DC0>
100005253:	49 83 f8 02 	cmpq	$2, %r8
100005257:	0f 84 73 fb ff ff 	je	-1165 <___intel_ssse3_strncpy+0x1DE0>
10000525d:	80 79 01 00 	cmpb	$0, 1(%rcx)
100005261:	0f 84 69 fb ff ff 	je	-1175 <___intel_ssse3_strncpy+0x1DE0>
100005267:	49 83 f8 03 	cmpq	$3, %r8
10000526b:	0f 84 7f fb ff ff 	je	-1153 <___intel_ssse3_strncpy+0x1E00>
100005271:	80 79 02 00 	cmpb	$0, 2(%rcx)
100005275:	0f 84 75 fb ff ff 	je	-1163 <___intel_ssse3_strncpy+0x1E00>
10000527b:	49 83 f8 04 	cmpq	$4, %r8
10000527f:	0f 84 8b fb ff ff 	je	-1141 <___intel_ssse3_strncpy+0x1E20>
100005285:	80 79 03 00 	cmpb	$0, 3(%rcx)
100005289:	0f 84 81 fb ff ff 	je	-1151 <___intel_ssse3_strncpy+0x1E20>
10000528f:	49 83 f8 05 	cmpq	$5, %r8
100005293:	0f 84 97 fb ff ff 	je	-1129 <___intel_ssse3_strncpy+0x1E40>
100005299:	80 79 04 00 	cmpb	$0, 4(%rcx)
10000529d:	0f 84 8d fb ff ff 	je	-1139 <___intel_ssse3_strncpy+0x1E40>
1000052a3:	49 83 f8 06 	cmpq	$6, %r8
1000052a7:	0f 84 a3 fb ff ff 	je	-1117 <___intel_ssse3_strncpy+0x1E60>
1000052ad:	80 79 05 00 	cmpb	$0, 5(%rcx)
1000052b1:	0f 84 99 fb ff ff 	je	-1127 <___intel_ssse3_strncpy+0x1E60>
1000052b7:	49 83 f8 07 	cmpq	$7, %r8
1000052bb:	0f 84 af fb ff ff 	je	-1105 <___intel_ssse3_strncpy+0x1E80>
1000052c1:	80 79 06 00 	cmpb	$0, 6(%rcx)
1000052c5:	0f 84 a5 fb ff ff 	je	-1115 <___intel_ssse3_strncpy+0x1E80>
1000052cb:	48 8b 01 	movq	(%rcx), %rax
1000052ce:	48 89 02 	movq	%rax, (%rdx)
1000052d1:	48 89 f8 	movq	%rdi, %rax
1000052d4:	c3 	retq
1000052d5:	48 85 c0 	testq	%rax, %rax
1000052d8:	75 43 	jne	67 <___intel_ssse3_strncpy+0x232D>
1000052da:	4d 8d 40 40 	leaq	64(%r8), %r8
1000052de:	49 83 e8 10 	subq	$16, %r8
1000052e2:	0f 86 38 fa ff ff 	jbe	-1480 <___intel_ssse3_strncpy+0x1D30>
1000052e8:	0f 29 62 c0 	movaps	%xmm4, -64(%rdx)
1000052ec:	48 8d 76 10 	leaq	16(%rsi), %rsi
1000052f0:	49 83 e8 10 	subq	$16, %r8
1000052f4:	0f 86 26 fa ff ff 	jbe	-1498 <___intel_ssse3_strncpy+0x1D30>
1000052fa:	0f 29 6a d0 	movaps	%xmm5, -48(%rdx)
1000052fe:	48 8d 76 10 	leaq	16(%rsi), %rsi
100005302:	49 83 e8 10 	subq	$16, %r8
100005306:	0f 86 14 fa ff ff 	jbe	-1516 <___intel_ssse3_strncpy+0x1D30>
10000530c:	0f 29 72 e0 	movaps	%xmm6, -32(%rdx)
100005310:	48 8d 76 10 	leaq	16(%rsi), %rsi
100005314:	4d 8d 40 f0 	leaq	-16(%r8), %r8
100005318:	e9 03 fa ff ff 	jmp	-1533 <___intel_ssse3_strncpy+0x1D30>
10000531d:	66 0f 74 c4 	pcmpeqb	%xmm4, %xmm0
100005321:	66 0f d7 c0 	pmovmskb	%xmm0, %eax
100005325:	49 83 c0 30 	addq	$48, %r8
100005329:	0f 8e db f9 ff ff 	jle	-1573 <___intel_ssse3_strncpy+0x1D1A>
10000532f:	48 85 c0 	testq	%rax, %rax
100005332:	0f 85 c8 f7 ff ff 	jne	-2104 <___intel_ssse3_strncpy+0x1B10>
100005338:	66 0f 74 c5 	pcmpeqb	%xmm5, %xmm0
10000533c:	66 0f d7 c0 	pmovmskb	%xmm0, %eax
100005340:	0f 29 62 c0 	movaps	%xmm4, -64(%rdx)
100005344:	48 8d 76 10 	leaq	16(%rsi), %rsi
100005348:	49 83 e8 10 	subq	$16, %r8
10000534c:	0f 86 b8 f9 ff ff 	jbe	-1608 <___intel_ssse3_strncpy+0x1D1A>
100005352:	48 85 c0 	testq	%rax, %rax
100005355:	0f 85 a5 f7 ff ff 	jne	-2139 <___intel_ssse3_strncpy+0x1B10>
10000535b:	66 0f 74 c6 	pcmpeqb	%xmm6, %xmm0
10000535f:	66 0f d7 c0 	pmovmskb	%xmm0, %eax
100005363:	0f 29 6a d0 	movaps	%xmm5, -48(%rdx)
100005367:	48 8d 76 10 	leaq	16(%rsi), %rsi
10000536b:	49 83 e8 10 	subq	$16, %r8
10000536f:	0f 86 95 f9 ff ff 	jbe	-1643 <___intel_ssse3_strncpy+0x1D1A>
100005375:	48 85 c0 	testq	%rax, %rax
100005378:	0f 85 82 f7 ff ff 	jne	-2174 <___intel_ssse3_strncpy+0x1B10>
10000537e:	66 0f 74 c7 	pcmpeqb	%xmm7, %xmm0
100005382:	66 0f d7 c0 	pmovmskb	%xmm0, %eax
100005386:	0f 29 72 e0 	movaps	%xmm6, -32(%rdx)
10000538a:	48 8d 76 10 	leaq	16(%rsi), %rsi
10000538e:	4d 8d 40 f0 	leaq	-16(%r8), %r8
100005392:	e9 39 f8 ff ff 	jmp	-1991 <___intel_ssse3_strncpy+0x1BE0>
100005397:	0f 28 32 	movaps	(%rdx), %xmm6
10000539a:	66 0f 73 de 0f 	psrldq	$15, %xmm6
10000539f:	48 c7 c6 0f 00 00 00 	movq	$15, %rsi
1000053a6:	66 0f 3a 0f f1 01 	palignr	$1, %xmm1, %xmm6
1000053ac:	0f 29 32 	movaps	%xmm6, (%rdx)
1000053af:	48 85 c0 	testq	%rax, %rax
1000053b2:	0f 85 18 f8 ff ff 	jne	-2024 <___intel_ssse3_strncpy+0x1BE0>
1000053b8:	e9 63 f9 ff ff 	jmp	-1693 <___intel_ssse3_strncpy+0x1D30>
1000053bd:	0f 28 32 	movaps	(%rdx), %xmm6
1000053c0:	66 0f 73 de 0e 	psrldq	$14, %xmm6
1000053c5:	48 c7 c6 0e 00 00 00 	movq	$14, %rsi
1000053cc:	66 0f 3a 0f f1 02 	palignr	$2, %xmm1, %xmm6
1000053d2:	0f 29 32 	movaps	%xmm6, (%rdx)
1000053d5:	48 85 c0 	testq	%rax, %rax
1000053d8:	0f 85 f2 f7 ff ff 	jne	-2062 <___intel_ssse3_strncpy+0x1BE0>
1000053de:	e9 3d f9 ff ff 	jmp	-1731 <___intel_ssse3_strncpy+0x1D30>
1000053e3:	0f 28 32 	movaps	(%rdx), %xmm6
1000053e6:	66 0f 73 de 0d 	psrldq	$13, %xmm6
1000053eb:	48 c7 c6 0d 00 00 00 	movq	$13, %rsi
1000053f2:	66 0f 3a 0f f1 03 	palignr	$3, %xmm1, %xmm6
1000053f8:	0f 29 32 	movaps	%xmm6, (%rdx)
1000053fb:	48 85 c0 	testq	%rax, %rax
1000053fe:	0f 85 cc f7 ff ff 	jne	-2100 <___intel_ssse3_strncpy+0x1BE0>
100005404:	e9 17 f9 ff ff 	jmp	-1769 <___intel_ssse3_strncpy+0x1D30>
100005409:	0f 28 32 	movaps	(%rdx), %xmm6
10000540c:	66 0f 73 de 0c 	psrldq	$12, %xmm6
100005411:	48 c7 c6 0c 00 00 00 	movq	$12, %rsi
100005418:	66 0f 3a 0f f1 04 	palignr	$4, %xmm1, %xmm6
10000541e:	0f 29 32 	movaps	%xmm6, (%rdx)
100005421:	48 85 c0 	testq	%rax, %rax
100005424:	0f 85 a6 f7 ff ff 	jne	-2138 <___intel_ssse3_strncpy+0x1BE0>
10000542a:	e9 f1 f8 ff ff 	jmp	-1807 <___intel_ssse3_strncpy+0x1D30>
10000542f:	0f 28 32 	movaps	(%rdx), %xmm6
100005432:	66 0f 73 de 0b 	psrldq	$11, %xmm6
100005437:	48 c7 c6 0b 00 00 00 	movq	$11, %rsi
10000543e:	66 0f 3a 0f f1 05 	palignr	$5, %xmm1, %xmm6
100005444:	0f 29 32 	movaps	%xmm6, (%rdx)
100005447:	48 85 c0 	testq	%rax, %rax
10000544a:	0f 85 80 f7 ff ff 	jne	-2176 <___intel_ssse3_strncpy+0x1BE0>
100005450:	e9 cb f8 ff ff 	jmp	-1845 <___intel_ssse3_strncpy+0x1D30>
100005455:	0f 28 32 	movaps	(%rdx), %xmm6
100005458:	66 0f 73 de 0a 	psrldq	$10, %xmm6
10000545d:	48 c7 c6 0a 00 00 00 	movq	$10, %rsi
100005464:	66 0f 3a 0f f1 06 	palignr	$6, %xmm1, %xmm6
10000546a:	0f 29 32 	movaps	%xmm6, (%rdx)
10000546d:	48 85 c0 	testq	%rax, %rax
100005470:	0f 85 5a f7 ff ff 	jne	-2214 <___intel_ssse3_strncpy+0x1BE0>
100005476:	e9 a5 f8 ff ff 	jmp	-1883 <___intel_ssse3_strncpy+0x1D30>
10000547b:	0f 28 32 	movaps	(%rdx), %xmm6
10000547e:	66 0f 73 de 09 	psrldq	$9, %xmm6
100005483:	48 c7 c6 09 00 00 00 	movq	$9, %rsi
10000548a:	66 0f 3a 0f f1 07 	palignr	$7, %xmm1, %xmm6
100005490:	0f 29 32 	movaps	%xmm6, (%rdx)
100005493:	48 85 c0 	testq	%rax, %rax
100005496:	0f 85 34 f7 ff ff 	jne	-2252 <___intel_ssse3_strncpy+0x1BE0>
10000549c:	e9 7f f8 ff ff 	jmp	-1921 <___intel_ssse3_strncpy+0x1D30>
1000054a1:	0f 28 32 	movaps	(%rdx), %xmm6
1000054a4:	66 0f 73 de 08 	psrldq	$8, %xmm6
1000054a9:	48 c7 c6 08 00 00 00 	movq	$8, %rsi
1000054b0:	66 0f 3a 0f f1 08 	palignr	$8, %xmm1, %xmm6
1000054b6:	0f 29 32 	movaps	%xmm6, (%rdx)
1000054b9:	48 85 c0 	testq	%rax, %rax
1000054bc:	0f 85 0e f7 ff ff 	jne	-2290 <___intel_ssse3_strncpy+0x1BE0>
1000054c2:	e9 59 f8 ff ff 	jmp	-1959 <___intel_ssse3_strncpy+0x1D30>
1000054c7:	0f 28 32 	movaps	(%rdx), %xmm6
1000054ca:	66 0f 73 de 07 	psrldq	$7, %xmm6
1000054cf:	48 c7 c6 07 00 00 00 	movq	$7, %rsi
1000054d6:	66 0f 3a 0f f1 09 	palignr	$9, %xmm1, %xmm6
1000054dc:	0f 29 32 	movaps	%xmm6, (%rdx)
1000054df:	48 85 c0 	testq	%rax, %rax
1000054e2:	0f 85 e8 f6 ff ff 	jne	-2328 <___intel_ssse3_strncpy+0x1BE0>
1000054e8:	e9 33 f8 ff ff 	jmp	-1997 <___intel_ssse3_strncpy+0x1D30>
1000054ed:	0f 28 32 	movaps	(%rdx), %xmm6
1000054f0:	66 0f 73 de 06 	psrldq	$6, %xmm6
1000054f5:	48 c7 c6 06 00 00 00 	movq	$6, %rsi
1000054fc:	66 0f 3a 0f f1 0a 	palignr	$10, %xmm1, %xmm6
100005502:	0f 29 32 	movaps	%xmm6, (%rdx)
100005505:	48 85 c0 	testq	%rax, %rax
100005508:	0f 85 c2 f6 ff ff 	jne	-2366 <___intel_ssse3_strncpy+0x1BE0>
10000550e:	e9 0d f8 ff ff 	jmp	-2035 <___intel_ssse3_strncpy+0x1D30>
100005513:	0f 28 32 	movaps	(%rdx), %xmm6
100005516:	66 0f 73 de 05 	psrldq	$5, %xmm6
10000551b:	48 c7 c6 05 00 00 00 	movq	$5, %rsi
100005522:	66 0f 3a 0f f1 0b 	palignr	$11, %xmm1, %xmm6
100005528:	0f 29 32 	movaps	%xmm6, (%rdx)
10000552b:	48 85 c0 	testq	%rax, %rax
10000552e:	0f 85 9c f6 ff ff 	jne	-2404 <___intel_ssse3_strncpy+0x1BE0>
100005534:	e9 e7 f7 ff ff 	jmp	-2073 <___intel_ssse3_strncpy+0x1D30>
100005539:	0f 28 32 	movaps	(%rdx), %xmm6
10000553c:	66 0f 73 de 04 	psrldq	$4, %xmm6
100005541:	48 c7 c6 04 00 00 00 	movq	$4, %rsi
100005548:	66 0f 3a 0f f1 0c 	palignr	$12, %xmm1, %xmm6
10000554e:	0f 29 32 	movaps	%xmm6, (%rdx)
100005551:	48 85 c0 	testq	%rax, %rax
100005554:	0f 85 76 f6 ff ff 	jne	-2442 <___intel_ssse3_strncpy+0x1BE0>
10000555a:	e9 c1 f7 ff ff 	jmp	-2111 <___intel_ssse3_strncpy+0x1D30>
10000555f:	0f 28 32 	movaps	(%rdx), %xmm6
100005562:	66 0f 73 de 03 	psrldq	$3, %xmm6
100005567:	48 c7 c6 03 00 00 00 	movq	$3, %rsi
10000556e:	66 0f 3a 0f f1 0d 	palignr	$13, %xmm1, %xmm6
100005574:	0f 29 32 	movaps	%xmm6, (%rdx)
100005577:	48 85 c0 	testq	%rax, %rax
10000557a:	0f 85 50 f6 ff ff 	jne	-2480 <___intel_ssse3_strncpy+0x1BE0>
100005580:	e9 9b f7 ff ff 	jmp	-2149 <___intel_ssse3_strncpy+0x1D30>
100005585:	0f 28 32 	movaps	(%rdx), %xmm6
100005588:	66 0f 73 de 02 	psrldq	$2, %xmm6
10000558d:	48 c7 c6 02 00 00 00 	movq	$2, %rsi
100005594:	66 0f 3a 0f f1 0e 	palignr	$14, %xmm1, %xmm6
10000559a:	0f 29 32 	movaps	%xmm6, (%rdx)
10000559d:	48 85 c0 	testq	%rax, %rax
1000055a0:	0f 85 2a f6 ff ff 	jne	-2518 <___intel_ssse3_strncpy+0x1BE0>
1000055a6:	e9 75 f7 ff ff 	jmp	-2187 <___intel_ssse3_strncpy+0x1D30>
1000055ab:	0f 28 32 	movaps	(%rdx), %xmm6
1000055ae:	66 0f 73 de 01 	psrldq	$1, %xmm6
1000055b3:	48 c7 c6 01 00 00 00 	movq	$1, %rsi
1000055ba:	66 0f 3a 0f f1 0f 	palignr	$15, %xmm1, %xmm6
1000055c0:	0f 29 32 	movaps	%xmm6, (%rdx)
1000055c3:	48 85 c0 	testq	%rax, %rax
1000055c6:	0f 85 04 f6 ff ff 	jne	-2556 <___intel_ssse3_strncpy+0x1BE0>
1000055cc:	e9 4f f7 ff ff 	jmp	-2225 <___intel_ssse3_strncpy+0x1D30>
1000055d1:	0f 28 da 	movaps	%xmm2, %xmm3
1000055d4:	49 83 c0 30 	addq	$48, %r8
1000055d8:	7e 58 	jle	88 <___intel_ssse3_strncpy+0x2642>
1000055da:	66 0f 3a 0f d1 01 	palignr	$1, %xmm1, %xmm2
1000055e0:	0f 28 cb 	movaps	%xmm3, %xmm1
1000055e3:	0f 29 12 	movaps	%xmm2, (%rdx)
1000055e6:	0f 28 51 1f 	movaps	31(%rcx), %xmm2
1000055ea:	48 8d 76 10 	leaq	16(%rsi), %rsi
1000055ee:	0f 28 da 	movaps	%xmm2, %xmm3
1000055f1:	49 83 e8 10 	subq	$16, %r8
1000055f5:	76 3b 	jbe	59 <___intel_ssse3_strncpy+0x2642>
1000055f7:	66 0f 3a 0f d1 01 	palignr	$1, %xmm1, %xmm2
1000055fd:	0f 29 52 10 	movaps	%xmm2, 16(%rdx)
100005601:	0f 28 51 2f 	movaps	47(%rcx), %xmm2
100005605:	0f 28 cb 	movaps	%xmm3, %xmm1
100005608:	48 8d 76 10 	leaq	16(%rsi), %rsi
10000560c:	49 83 e8 10 	subq	$16, %r8
100005610:	76 20 	jbe	32 <___intel_ssse3_strncpy+0x2642>
100005612:	0f 28 ca 	movaps	%xmm2, %xmm1
100005615:	0f 29 62 20 	movaps	%xmm4, 32(%rdx)
100005619:	48 8d 76 10 	leaq	16(%rsi), %rsi
10000561d:	49 83 e8 10 	subq	$16, %r8
100005621:	76 0f 	jbe	15 <___intel_ssse3_strncpy+0x2642>
100005623:	0f 28 cf 	movaps	%xmm7, %xmm1
100005626:	0f 29 6a 30 	movaps	%xmm5, 48(%rdx)
10000562a:	48 8d 76 10 	leaq	16(%rsi), %rsi
10000562e:	4d 8d 40 f0 	leaq	-16(%r8), %r8
100005632:	0f 28 34 32 	movaps	(%rdx,%rsi), %xmm6
100005636:	66 0f 73 de 0f 	psrldq	$15, %xmm6
10000563b:	66 0f 3a 0f f1 01 	palignr	$1, %xmm1, %xmm6
100005641:	0f 29 34 32 	movaps	%xmm6, (%rdx,%rsi)
100005645:	48 8d 76 0f 	leaq	15(%rsi), %rsi
100005649:	e9 d2 f6 ff ff 	jmp	-2350 <___intel_ssse3_strncpy+0x1D30>
10000564e:	0f 28 da 	movaps	%xmm2, %xmm3
100005651:	49 83 c0 30 	addq	$48, %r8
100005655:	7e 58 	jle	88 <___intel_ssse3_strncpy+0x26BF>
100005657:	66 0f 3a 0f d1 02 	palignr	$2, %xmm1, %xmm2
10000565d:	0f 28 cb 	movaps	%xmm3, %xmm1
100005660:	0f 29 12 	movaps	%xmm2, (%rdx)
100005663:	0f 28 51 1e 	movaps	30(%rcx), %xmm2
100005667:	48 8d 76 10 	leaq	16(%rsi), %rsi
10000566b:	0f 28 da 	movaps	%xmm2, %xmm3
10000566e:	49 83 e8 10 	subq	$16, %r8
100005672:	76 3b 	jbe	59 <___intel_ssse3_strncpy+0x26BF>
100005674:	66 0f 3a 0f d1 02 	palignr	$2, %xmm1, %xmm2
10000567a:	0f 29 52 10 	movaps	%xmm2, 16(%rdx)
10000567e:	0f 28 51 2e 	movaps	46(%rcx), %xmm2
100005682:	0f 28 cb 	movaps	%xmm3, %xmm1
100005685:	48 8d 76 10 	leaq	16(%rsi), %rsi
100005689:	49 83 e8 10 	subq	$16, %r8
10000568d:	76 20 	jbe	32 <___intel_ssse3_strncpy+0x26BF>
10000568f:	0f 28 ca 	movaps	%xmm2, %xmm1
100005692:	0f 29 62 20 	movaps	%xmm4, 32(%rdx)
100005696:	48 8d 76 10 	leaq	16(%rsi), %rsi
10000569a:	49 83 e8 10 	subq	$16, %r8
10000569e:	76 0f 	jbe	15 <___intel_ssse3_strncpy+0x26BF>
1000056a0:	0f 28 cf 	movaps	%xmm7, %xmm1
1000056a3:	0f 29 6a 30 	movaps	%xmm5, 48(%rdx)
1000056a7:	48 8d 76 10 	leaq	16(%rsi), %rsi
1000056ab:	4d 8d 40 f0 	leaq	-16(%r8), %r8
1000056af:	0f 28 34 32 	movaps	(%rdx,%rsi), %xmm6
1000056b3:	66 0f 73 de 0e 	psrldq	$14, %xmm6
1000056b8:	66 0f 3a 0f f1 02 	palignr	$2, %xmm1, %xmm6
1000056be:	0f 29 34 32 	movaps	%xmm6, (%rdx,%rsi)
1000056c2:	48 8d 76 0e 	leaq	14(%rsi), %rsi
1000056c6:	e9 55 f6 ff ff 	jmp	-2475 <___intel_ssse3_strncpy+0x1D30>
1000056cb:	0f 28 da 	movaps	%xmm2, %xmm3
1000056ce:	49 83 c0 30 	addq	$48, %r8
1000056d2:	7e 58 	jle	88 <___intel_ssse3_strncpy+0x273C>
1000056d4:	66 0f 3a 0f d1 03 	palignr	$3, %xmm1, %xmm2
1000056da:	0f 28 cb 	movaps	%xmm3, %xmm1
1000056dd:	0f 29 12 	movaps	%xmm2, (%rdx)
1000056e0:	0f 28 51 1d 	movaps	29(%rcx), %xmm2
1000056e4:	48 8d 76 10 	leaq	16(%rsi), %rsi
1000056e8:	0f 28 da 	movaps	%xmm2, %xmm3
1000056eb:	49 83 e8 10 	subq	$16, %r8
1000056ef:	76 3b 	jbe	59 <___intel_ssse3_strncpy+0x273C>
1000056f1:	66 0f 3a 0f d1 03 	palignr	$3, %xmm1, %xmm2
1000056f7:	0f 29 52 10 	movaps	%xmm2, 16(%rdx)
1000056fb:	0f 28 51 2d 	movaps	45(%rcx), %xmm2
1000056ff:	0f 28 cb 	movaps	%xmm3, %xmm1
100005702:	48 8d 76 10 	leaq	16(%rsi), %rsi
100005706:	49 83 e8 10 	subq	$16, %r8
10000570a:	76 20 	jbe	32 <___intel_ssse3_strncpy+0x273C>
10000570c:	0f 28 ca 	movaps	%xmm2, %xmm1
10000570f:	0f 29 62 20 	movaps	%xmm4, 32(%rdx)
100005713:	48 8d 76 10 	leaq	16(%rsi), %rsi
100005717:	49 83 e8 10 	subq	$16, %r8
10000571b:	76 0f 	jbe	15 <___intel_ssse3_strncpy+0x273C>
10000571d:	0f 28 cf 	movaps	%xmm7, %xmm1
100005720:	0f 29 6a 30 	movaps	%xmm5, 48(%rdx)
100005724:	48 8d 76 10 	leaq	16(%rsi), %rsi
100005728:	4d 8d 40 f0 	leaq	-16(%r8), %r8
10000572c:	0f 28 34 32 	movaps	(%rdx,%rsi), %xmm6
100005730:	66 0f 73 de 0d 	psrldq	$13, %xmm6
100005735:	66 0f 3a 0f f1 03 	palignr	$3, %xmm1, %xmm6
10000573b:	0f 29 34 32 	movaps	%xmm6, (%rdx,%rsi)
10000573f:	48 8d 76 0d 	leaq	13(%rsi), %rsi
100005743:	e9 d8 f5 ff ff 	jmp	-2600 <___intel_ssse3_strncpy+0x1D30>
100005748:	0f 28 da 	movaps	%xmm2, %xmm3
10000574b:	49 83 c0 30 	addq	$48, %r8
10000574f:	7e 58 	jle	88 <___intel_ssse3_strncpy+0x27B9>
100005751:	66 0f 3a 0f d1 04 	palignr	$4, %xmm1, %xmm2
100005757:	0f 28 cb 	movaps	%xmm3, %xmm1
10000575a:	0f 29 12 	movaps	%xmm2, (%rdx)
10000575d:	0f 28 51 1c 	movaps	28(%rcx), %xmm2
100005761:	48 8d 76 10 	leaq	16(%rsi), %rsi
100005765:	0f 28 da 	movaps	%xmm2, %xmm3
100005768:	49 83 e8 10 	subq	$16, %r8
10000576c:	76 3b 	jbe	59 <___intel_ssse3_strncpy+0x27B9>
10000576e:	66 0f 3a 0f d1 04 	palignr	$4, %xmm1, %xmm2
100005774:	0f 29 52 10 	movaps	%xmm2, 16(%rdx)
100005778:	0f 28 51 2c 	movaps	44(%rcx), %xmm2
10000577c:	0f 28 cb 	movaps	%xmm3, %xmm1
10000577f:	48 8d 76 10 	leaq	16(%rsi), %rsi
100005783:	49 83 e8 10 	subq	$16, %r8
100005787:	76 20 	jbe	32 <___intel_ssse3_strncpy+0x27B9>
100005789:	0f 28 ca 	movaps	%xmm2, %xmm1
10000578c:	0f 29 62 20 	movaps	%xmm4, 32(%rdx)
100005790:	48 8d 76 10 	leaq	16(%rsi), %rsi
100005794:	49 83 e8 10 	subq	$16, %r8
100005798:	76 0f 	jbe	15 <___intel_ssse3_strncpy+0x27B9>
10000579a:	0f 28 cf 	movaps	%xmm7, %xmm1
10000579d:	0f 29 6a 30 	movaps	%xmm5, 48(%rdx)
1000057a1:	48 8d 76 10 	leaq	16(%rsi), %rsi
1000057a5:	4d 8d 40 f0 	leaq	-16(%r8), %r8
1000057a9:	0f 28 34 32 	movaps	(%rdx,%rsi), %xmm6
1000057ad:	66 0f 73 de 0c 	psrldq	$12, %xmm6
1000057b2:	66 0f 3a 0f f1 04 	palignr	$4, %xmm1, %xmm6
1000057b8:	0f 29 34 32 	movaps	%xmm6, (%rdx,%rsi)
1000057bc:	48 8d 76 0c 	leaq	12(%rsi), %rsi
1000057c0:	e9 5b f5 ff ff 	jmp	-2725 <___intel_ssse3_strncpy+0x1D30>
1000057c5:	0f 28 da 	movaps	%xmm2, %xmm3
1000057c8:	49 83 c0 30 	addq	$48, %r8
1000057cc:	7e 58 	jle	88 <___intel_ssse3_strncpy+0x2836>
1000057ce:	66 0f 3a 0f d1 05 	palignr	$5, %xmm1, %xmm2
1000057d4:	0f 28 cb 	movaps	%xmm3, %xmm1
1000057d7:	0f 29 12 	movaps	%xmm2, (%rdx)
1000057da:	0f 28 51 1b 	movaps	27(%rcx), %xmm2
1000057de:	48 8d 76 10 	leaq	16(%rsi), %rsi
1000057e2:	0f 28 da 	movaps	%xmm2, %xmm3
1000057e5:	49 83 e8 10 	subq	$16, %r8
1000057e9:	76 3b 	jbe	59 <___intel_ssse3_strncpy+0x2836>
1000057eb:	66 0f 3a 0f d1 05 	palignr	$5, %xmm1, %xmm2
1000057f1:	0f 29 52 10 	movaps	%xmm2, 16(%rdx)
1000057f5:	0f 28 51 2b 	movaps	43(%rcx), %xmm2
1000057f9:	0f 28 cb 	movaps	%xmm3, %xmm1
1000057fc:	48 8d 76 10 	leaq	16(%rsi), %rsi
100005800:	49 83 e8 10 	subq	$16, %r8
100005804:	76 20 	jbe	32 <___intel_ssse3_strncpy+0x2836>
100005806:	0f 28 ca 	movaps	%xmm2, %xmm1
100005809:	0f 29 62 20 	movaps	%xmm4, 32(%rdx)
10000580d:	48 8d 76 10 	leaq	16(%rsi), %rsi
100005811:	49 83 e8 10 	subq	$16, %r8
100005815:	76 0f 	jbe	15 <___intel_ssse3_strncpy+0x2836>
100005817:	0f 28 cf 	movaps	%xmm7, %xmm1
10000581a:	0f 29 6a 30 	movaps	%xmm5, 48(%rdx)
10000581e:	48 8d 76 10 	leaq	16(%rsi), %rsi
100005822:	4d 8d 40 f0 	leaq	-16(%r8), %r8
100005826:	0f 28 34 32 	movaps	(%rdx,%rsi), %xmm6
10000582a:	66 0f 73 de 0b 	psrldq	$11, %xmm6
10000582f:	66 0f 3a 0f f1 05 	palignr	$5, %xmm1, %xmm6
100005835:	0f 29 34 32 	movaps	%xmm6, (%rdx,%rsi)
100005839:	48 8d 76 0b 	leaq	11(%rsi), %rsi
10000583d:	e9 de f4 ff ff 	jmp	-2850 <___intel_ssse3_strncpy+0x1D30>
100005842:	0f 28 da 	movaps	%xmm2, %xmm3
100005845:	49 83 c0 30 	addq	$48, %r8
100005849:	7e 58 	jle	88 <___intel_ssse3_strncpy+0x28B3>
10000584b:	66 0f 3a 0f d1 06 	palignr	$6, %xmm1, %xmm2
100005851:	0f 28 cb 	movaps	%xmm3, %xmm1
100005854:	0f 29 12 	movaps	%xmm2, (%rdx)
100005857:	0f 28 51 1a 	movaps	26(%rcx), %xmm2
10000585b:	48 8d 76 10 	leaq	16(%rsi), %rsi
10000585f:	0f 28 da 	movaps	%xmm2, %xmm3
100005862:	49 83 e8 10 	subq	$16, %r8
100005866:	76 3b 	jbe	59 <___intel_ssse3_strncpy+0x28B3>
100005868:	66 0f 3a 0f d1 06 	palignr	$6, %xmm1, %xmm2
10000586e:	0f 29 52 10 	movaps	%xmm2, 16(%rdx)
100005872:	0f 28 51 2a 	movaps	42(%rcx), %xmm2
100005876:	0f 28 cb 	movaps	%xmm3, %xmm1
100005879:	48 8d 76 10 	leaq	16(%rsi), %rsi
10000587d:	49 83 e8 10 	subq	$16, %r8
100005881:	76 20 	jbe	32 <___intel_ssse3_strncpy+0x28B3>
100005883:	0f 28 ca 	movaps	%xmm2, %xmm1
100005886:	0f 29 62 20 	movaps	%xmm4, 32(%rdx)
10000588a:	48 8d 76 10 	leaq	16(%rsi), %rsi
10000588e:	49 83 e8 10 	subq	$16, %r8
100005892:	76 0f 	jbe	15 <___intel_ssse3_strncpy+0x28B3>
100005894:	0f 28 cf 	movaps	%xmm7, %xmm1
100005897:	0f 29 6a 30 	movaps	%xmm5, 48(%rdx)
10000589b:	48 8d 76 10 	leaq	16(%rsi), %rsi
10000589f:	4d 8d 40 f0 	leaq	-16(%r8), %r8
1000058a3:	0f 28 34 32 	movaps	(%rdx,%rsi), %xmm6
1000058a7:	66 0f 73 de 0a 	psrldq	$10, %xmm6
1000058ac:	66 0f 3a 0f f1 06 	palignr	$6, %xmm1, %xmm6
1000058b2:	0f 29 34 32 	movaps	%xmm6, (%rdx,%rsi)
1000058b6:	48 8d 76 0a 	leaq	10(%rsi), %rsi
1000058ba:	e9 61 f4 ff ff 	jmp	-2975 <___intel_ssse3_strncpy+0x1D30>
1000058bf:	0f 28 da 	movaps	%xmm2, %xmm3
1000058c2:	49 83 c0 30 	addq	$48, %r8
1000058c6:	7e 58 	jle	88 <___intel_ssse3_strncpy+0x2930>
1000058c8:	66 0f 3a 0f d1 07 	palignr	$7, %xmm1, %xmm2
1000058ce:	0f 28 cb 	movaps	%xmm3, %xmm1
1000058d1:	0f 29 12 	movaps	%xmm2, (%rdx)
1000058d4:	0f 28 51 19 	movaps	25(%rcx), %xmm2
1000058d8:	48 8d 76 10 	leaq	16(%rsi), %rsi
1000058dc:	0f 28 da 	movaps	%xmm2, %xmm3
1000058df:	49 83 e8 10 	subq	$16, %r8
1000058e3:	76 3b 	jbe	59 <___intel_ssse3_strncpy+0x2930>
1000058e5:	66 0f 3a 0f d1 07 	palignr	$7, %xmm1, %xmm2
1000058eb:	0f 29 52 10 	movaps	%xmm2, 16(%rdx)
1000058ef:	0f 28 51 29 	movaps	41(%rcx), %xmm2
1000058f3:	0f 28 cb 	movaps	%xmm3, %xmm1
1000058f6:	48 8d 76 10 	leaq	16(%rsi), %rsi
1000058fa:	49 83 e8 10 	subq	$16, %r8
1000058fe:	76 20 	jbe	32 <___intel_ssse3_strncpy+0x2930>
100005900:	0f 28 ca 	movaps	%xmm2, %xmm1
100005903:	0f 29 62 20 	movaps	%xmm4, 32(%rdx)
100005907:	48 8d 76 10 	leaq	16(%rsi), %rsi
10000590b:	49 83 e8 10 	subq	$16, %r8
10000590f:	76 0f 	jbe	15 <___intel_ssse3_strncpy+0x2930>
100005911:	0f 28 cf 	movaps	%xmm7, %xmm1
100005914:	0f 29 6a 30 	movaps	%xmm5, 48(%rdx)
100005918:	48 8d 76 10 	leaq	16(%rsi), %rsi
10000591c:	4d 8d 40 f0 	leaq	-16(%r8), %r8
100005920:	0f 28 34 32 	movaps	(%rdx,%rsi), %xmm6
100005924:	66 0f 73 de 09 	psrldq	$9, %xmm6
100005929:	66 0f 3a 0f f1 07 	palignr	$7, %xmm1, %xmm6
10000592f:	0f 29 34 32 	movaps	%xmm6, (%rdx,%rsi)
100005933:	48 8d 76 09 	leaq	9(%rsi), %rsi
100005937:	e9 e4 f3 ff ff 	jmp	-3100 <___intel_ssse3_strncpy+0x1D30>
10000593c:	0f 28 da 	movaps	%xmm2, %xmm3
10000593f:	49 83 c0 30 	addq	$48, %r8
100005943:	7e 58 	jle	88 <___intel_ssse3_strncpy+0x29AD>
100005945:	66 0f 3a 0f d1 08 	palignr	$8, %xmm1, %xmm2
10000594b:	0f 28 cb 	movaps	%xmm3, %xmm1
10000594e:	0f 29 12 	movaps	%xmm2, (%rdx)
100005951:	0f 28 51 18 	movaps	24(%rcx), %xmm2
100005955:	48 8d 76 10 	leaq	16(%rsi), %rsi
100005959:	0f 28 da 	movaps	%xmm2, %xmm3
10000595c:	49 83 e8 10 	subq	$16, %r8
100005960:	76 3b 	jbe	59 <___intel_ssse3_strncpy+0x29AD>
100005962:	66 0f 3a 0f d1 08 	palignr	$8, %xmm1, %xmm2
100005968:	0f 29 52 10 	movaps	%xmm2, 16(%rdx)
10000596c:	0f 28 51 28 	movaps	40(%rcx), %xmm2
100005970:	0f 28 cb 	movaps	%xmm3, %xmm1
100005973:	48 8d 76 10 	leaq	16(%rsi), %rsi
100005977:	49 83 e8 10 	subq	$16, %r8
10000597b:	76 20 	jbe	32 <___intel_ssse3_strncpy+0x29AD>
10000597d:	0f 28 ca 	movaps	%xmm2, %xmm1
100005980:	0f 29 62 20 	movaps	%xmm4, 32(%rdx)
100005984:	48 8d 76 10 	leaq	16(%rsi), %rsi
100005988:	49 83 e8 10 	subq	$16, %r8
10000598c:	76 0f 	jbe	15 <___intel_ssse3_strncpy+0x29AD>
10000598e:	0f 28 cf 	movaps	%xmm7, %xmm1
100005991:	0f 29 6a 30 	movaps	%xmm5, 48(%rdx)
100005995:	48 8d 76 10 	leaq	16(%rsi), %rsi
100005999:	4d 8d 40 f0 	leaq	-16(%r8), %r8
10000599d:	0f 28 34 32 	movaps	(%rdx,%rsi), %xmm6
1000059a1:	66 0f 73 de 08 	psrldq	$8, %xmm6
1000059a6:	66 0f 3a 0f f1 08 	palignr	$8, %xmm1, %xmm6
1000059ac:	0f 29 34 32 	movaps	%xmm6, (%rdx,%rsi)
1000059b0:	48 8d 76 08 	leaq	8(%rsi), %rsi
1000059b4:	e9 67 f3 ff ff 	jmp	-3225 <___intel_ssse3_strncpy+0x1D30>
1000059b9:	0f 28 da 	movaps	%xmm2, %xmm3
1000059bc:	49 83 c0 30 	addq	$48, %r8
1000059c0:	7e 58 	jle	88 <___intel_ssse3_strncpy+0x2A2A>
1000059c2:	66 0f 3a 0f d1 09 	palignr	$9, %xmm1, %xmm2
1000059c8:	0f 28 cb 	movaps	%xmm3, %xmm1
1000059cb:	0f 29 12 	movaps	%xmm2, (%rdx)
1000059ce:	0f 28 51 17 	movaps	23(%rcx), %xmm2
1000059d2:	48 8d 76 10 	leaq	16(%rsi), %rsi
1000059d6:	0f 28 da 	movaps	%xmm2, %xmm3
1000059d9:	49 83 e8 10 	subq	$16, %r8
1000059dd:	76 3b 	jbe	59 <___intel_ssse3_strncpy+0x2A2A>
1000059df:	66 0f 3a 0f d1 09 	palignr	$9, %xmm1, %xmm2
1000059e5:	0f 29 52 10 	movaps	%xmm2, 16(%rdx)
1000059e9:	0f 28 51 27 	movaps	39(%rcx), %xmm2
1000059ed:	0f 28 cb 	movaps	%xmm3, %xmm1
1000059f0:	48 8d 76 10 	leaq	16(%rsi), %rsi
1000059f4:	49 83 e8 10 	subq	$16, %r8
1000059f8:	76 20 	jbe	32 <___intel_ssse3_strncpy+0x2A2A>
1000059fa:	0f 28 ca 	movaps	%xmm2, %xmm1
1000059fd:	0f 29 62 20 	movaps	%xmm4, 32(%rdx)
100005a01:	48 8d 76 10 	leaq	16(%rsi), %rsi
100005a05:	49 83 e8 10 	subq	$16, %r8
100005a09:	76 0f 	jbe	15 <___intel_ssse3_strncpy+0x2A2A>
100005a0b:	0f 28 cf 	movaps	%xmm7, %xmm1
100005a0e:	0f 29 6a 30 	movaps	%xmm5, 48(%rdx)
100005a12:	48 8d 76 10 	leaq	16(%rsi), %rsi
100005a16:	4d 8d 40 f0 	leaq	-16(%r8), %r8
100005a1a:	0f 28 34 32 	movaps	(%rdx,%rsi), %xmm6
100005a1e:	66 0f 73 de 07 	psrldq	$7, %xmm6
100005a23:	66 0f 3a 0f f1 09 	palignr	$9, %xmm1, %xmm6
100005a29:	0f 29 34 32 	movaps	%xmm6, (%rdx,%rsi)
100005a2d:	48 8d 76 07 	leaq	7(%rsi), %rsi
100005a31:	e9 ea f2 ff ff 	jmp	-3350 <___intel_ssse3_strncpy+0x1D30>
100005a36:	0f 28 da 	movaps	%xmm2, %xmm3
100005a39:	49 83 c0 30 	addq	$48, %r8
100005a3d:	7e 58 	jle	88 <___intel_ssse3_strncpy+0x2AA7>
100005a3f:	66 0f 3a 0f d1 0a 	palignr	$10, %xmm1, %xmm2
100005a45:	0f 28 cb 	movaps	%xmm3, %xmm1
100005a48:	0f 29 12 	movaps	%xmm2, (%rdx)
100005a4b:	0f 28 51 16 	movaps	22(%rcx), %xmm2
100005a4f:	48 8d 76 10 	leaq	16(%rsi), %rsi
100005a53:	0f 28 da 	movaps	%xmm2, %xmm3
100005a56:	49 83 e8 10 	subq	$16, %r8
100005a5a:	76 3b 	jbe	59 <___intel_ssse3_strncpy+0x2AA7>
100005a5c:	66 0f 3a 0f d1 0a 	palignr	$10, %xmm1, %xmm2
100005a62:	0f 29 52 10 	movaps	%xmm2, 16(%rdx)
100005a66:	0f 28 51 26 	movaps	38(%rcx), %xmm2
100005a6a:	0f 28 cb 	movaps	%xmm3, %xmm1
100005a6d:	48 8d 76 10 	leaq	16(%rsi), %rsi
100005a71:	49 83 e8 10 	subq	$16, %r8
100005a75:	76 20 	jbe	32 <___intel_ssse3_strncpy+0x2AA7>
100005a77:	0f 28 ca 	movaps	%xmm2, %xmm1
100005a7a:	0f 29 62 20 	movaps	%xmm4, 32(%rdx)
100005a7e:	48 8d 76 10 	leaq	16(%rsi), %rsi
100005a82:	49 83 e8 10 	subq	$16, %r8
100005a86:	76 0f 	jbe	15 <___intel_ssse3_strncpy+0x2AA7>
100005a88:	0f 28 cf 	movaps	%xmm7, %xmm1
100005a8b:	0f 29 6a 30 	movaps	%xmm5, 48(%rdx)
100005a8f:	48 8d 76 10 	leaq	16(%rsi), %rsi
100005a93:	4d 8d 40 f0 	leaq	-16(%r8), %r8
100005a97:	0f 28 34 32 	movaps	(%rdx,%rsi), %xmm6
100005a9b:	66 0f 73 de 06 	psrldq	$6, %xmm6
100005aa0:	66 0f 3a 0f f1 0a 	palignr	$10, %xmm1, %xmm6
100005aa6:	0f 29 34 32 	movaps	%xmm6, (%rdx,%rsi)
100005aaa:	48 8d 76 06 	leaq	6(%rsi), %rsi
100005aae:	e9 6d f2 ff ff 	jmp	-3475 <___intel_ssse3_strncpy+0x1D30>
100005ab3:	0f 28 da 	movaps	%xmm2, %xmm3
100005ab6:	49 83 c0 30 	addq	$48, %r8
100005aba:	7e 58 	jle	88 <___intel_ssse3_strncpy+0x2B24>
100005abc:	66 0f 3a 0f d1 0b 	palignr	$11, %xmm1, %xmm2
100005ac2:	0f 28 cb 	movaps	%xmm3, %xmm1
100005ac5:	0f 29 12 	movaps	%xmm2, (%rdx)
100005ac8:	0f 28 51 15 	movaps	21(%rcx), %xmm2
100005acc:	48 8d 76 10 	leaq	16(%rsi), %rsi
100005ad0:	0f 28 da 	movaps	%xmm2, %xmm3
100005ad3:	49 83 e8 10 	subq	$16, %r8
100005ad7:	76 3b 	jbe	59 <___intel_ssse3_strncpy+0x2B24>
100005ad9:	66 0f 3a 0f d1 0b 	palignr	$11, %xmm1, %xmm2
100005adf:	0f 29 52 10 	movaps	%xmm2, 16(%rdx)
100005ae3:	0f 28 51 25 	movaps	37(%rcx), %xmm2
100005ae7:	0f 28 cb 	movaps	%xmm3, %xmm1
100005aea:	48 8d 76 10 	leaq	16(%rsi), %rsi
100005aee:	49 83 e8 10 	subq	$16, %r8
100005af2:	76 20 	jbe	32 <___intel_ssse3_strncpy+0x2B24>
100005af4:	0f 28 ca 	movaps	%xmm2, %xmm1
100005af7:	0f 29 62 20 	movaps	%xmm4, 32(%rdx)
100005afb:	48 8d 76 10 	leaq	16(%rsi), %rsi
100005aff:	49 83 e8 10 	subq	$16, %r8
100005b03:	76 0f 	jbe	15 <___intel_ssse3_strncpy+0x2B24>
100005b05:	0f 28 cf 	movaps	%xmm7, %xmm1
100005b08:	0f 29 6a 30 	movaps	%xmm5, 48(%rdx)
100005b0c:	48 8d 76 10 	leaq	16(%rsi), %rsi
100005b10:	4d 8d 40 f0 	leaq	-16(%r8), %r8
100005b14:	0f 28 34 32 	movaps	(%rdx,%rsi), %xmm6
100005b18:	66 0f 73 de 05 	psrldq	$5, %xmm6
100005b1d:	66 0f 3a 0f f1 0b 	palignr	$11, %xmm1, %xmm6
100005b23:	0f 29 34 32 	movaps	%xmm6, (%rdx,%rsi)
100005b27:	48 8d 76 05 	leaq	5(%rsi), %rsi
100005b2b:	e9 f0 f1 ff ff 	jmp	-3600 <___intel_ssse3_strncpy+0x1D30>
100005b30:	0f 28 da 	movaps	%xmm2, %xmm3
100005b33:	49 83 c0 30 	addq	$48, %r8
100005b37:	7e 58 	jle	88 <___intel_ssse3_strncpy+0x2BA1>
100005b39:	66 0f 3a 0f d1 0c 	palignr	$12, %xmm1, %xmm2
100005b3f:	0f 28 cb 	movaps	%xmm3, %xmm1
100005b42:	0f 29 12 	movaps	%xmm2, (%rdx)
100005b45:	0f 28 51 14 	movaps	20(%rcx), %xmm2
100005b49:	48 8d 76 10 	leaq	16(%rsi), %rsi
100005b4d:	0f 28 da 	movaps	%xmm2, %xmm3
100005b50:	49 83 e8 10 	subq	$16, %r8
100005b54:	76 3b 	jbe	59 <___intel_ssse3_strncpy+0x2BA1>
100005b56:	66 0f 3a 0f d1 0c 	palignr	$12, %xmm1, %xmm2
100005b5c:	0f 29 52 10 	movaps	%xmm2, 16(%rdx)
100005b60:	0f 28 51 24 	movaps	36(%rcx), %xmm2
100005b64:	0f 28 cb 	movaps	%xmm3, %xmm1
100005b67:	48 8d 76 10 	leaq	16(%rsi), %rsi
100005b6b:	49 83 e8 10 	subq	$16, %r8
100005b6f:	76 20 	jbe	32 <___intel_ssse3_strncpy+0x2BA1>
100005b71:	0f 28 ca 	movaps	%xmm2, %xmm1
100005b74:	0f 29 62 20 	movaps	%xmm4, 32(%rdx)
100005b78:	48 8d 76 10 	leaq	16(%rsi), %rsi
100005b7c:	49 83 e8 10 	subq	$16, %r8
100005b80:	76 0f 	jbe	15 <___intel_ssse3_strncpy+0x2BA1>
100005b82:	0f 28 cf 	movaps	%xmm7, %xmm1
100005b85:	0f 29 6a 30 	movaps	%xmm5, 48(%rdx)
100005b89:	48 8d 76 10 	leaq	16(%rsi), %rsi
100005b8d:	4d 8d 40 f0 	leaq	-16(%r8), %r8
100005b91:	0f 28 34 32 	movaps	(%rdx,%rsi), %xmm6
100005b95:	66 0f 73 de 04 	psrldq	$4, %xmm6
100005b9a:	66 0f 3a 0f f1 0c 	palignr	$12, %xmm1, %xmm6
100005ba0:	0f 29 34 32 	movaps	%xmm6, (%rdx,%rsi)
100005ba4:	48 8d 76 04 	leaq	4(%rsi), %rsi
100005ba8:	e9 73 f1 ff ff 	jmp	-3725 <___intel_ssse3_strncpy+0x1D30>
100005bad:	0f 28 da 	movaps	%xmm2, %xmm3
100005bb0:	49 83 c0 30 	addq	$48, %r8
100005bb4:	7e 58 	jle	88 <___intel_ssse3_strncpy+0x2C1E>
100005bb6:	66 0f 3a 0f d1 0d 	palignr	$13, %xmm1, %xmm2
100005bbc:	0f 28 cb 	movaps	%xmm3, %xmm1
100005bbf:	0f 29 12 	movaps	%xmm2, (%rdx)
100005bc2:	0f 28 51 13 	movaps	19(%rcx), %xmm2
100005bc6:	48 8d 76 10 	leaq	16(%rsi), %rsi
100005bca:	0f 28 da 	movaps	%xmm2, %xmm3
100005bcd:	49 83 e8 10 	subq	$16, %r8
100005bd1:	76 3b 	jbe	59 <___intel_ssse3_strncpy+0x2C1E>
100005bd3:	66 0f 3a 0f d1 0d 	palignr	$13, %xmm1, %xmm2
100005bd9:	0f 29 52 10 	movaps	%xmm2, 16(%rdx)
100005bdd:	0f 28 51 23 	movaps	35(%rcx), %xmm2
100005be1:	0f 28 cb 	movaps	%xmm3, %xmm1
100005be4:	48 8d 76 10 	leaq	16(%rsi), %rsi
100005be8:	49 83 e8 10 	subq	$16, %r8
100005bec:	76 20 	jbe	32 <___intel_ssse3_strncpy+0x2C1E>
100005bee:	0f 28 ca 	movaps	%xmm2, %xmm1
100005bf1:	0f 29 62 20 	movaps	%xmm4, 32(%rdx)
100005bf5:	48 8d 76 10 	leaq	16(%rsi), %rsi
100005bf9:	49 83 e8 10 	subq	$16, %r8
100005bfd:	76 0f 	jbe	15 <___intel_ssse3_strncpy+0x2C1E>
100005bff:	0f 28 cf 	movaps	%xmm7, %xmm1
100005c02:	0f 29 6a 30 	movaps	%xmm5, 48(%rdx)
100005c06:	48 8d 76 10 	leaq	16(%rsi), %rsi
100005c0a:	4d 8d 40 f0 	leaq	-16(%r8), %r8
100005c0e:	0f 28 34 32 	movaps	(%rdx,%rsi), %xmm6
100005c12:	66 0f 73 de 03 	psrldq	$3, %xmm6
100005c17:	66 0f 3a 0f f1 0d 	palignr	$13, %xmm1, %xmm6
100005c1d:	0f 29 34 32 	movaps	%xmm6, (%rdx,%rsi)
100005c21:	48 8d 76 03 	leaq	3(%rsi), %rsi
100005c25:	e9 f6 f0 ff ff 	jmp	-3850 <___intel_ssse3_strncpy+0x1D30>
100005c2a:	0f 28 da 	movaps	%xmm2, %xmm3
100005c2d:	49 83 c0 30 	addq	$48, %r8
100005c31:	7e 58 	jle	88 <___intel_ssse3_strncpy+0x2C9B>
100005c33:	66 0f 3a 0f d1 0e 	palignr	$14, %xmm1, %xmm2
100005c39:	0f 28 cb 	movaps	%xmm3, %xmm1
100005c3c:	0f 29 12 	movaps	%xmm2, (%rdx)
100005c3f:	0f 28 51 12 	movaps	18(%rcx), %xmm2
100005c43:	48 8d 76 10 	leaq	16(%rsi), %rsi
100005c47:	0f 28 da 	movaps	%xmm2, %xmm3
100005c4a:	49 83 e8 10 	subq	$16, %r8
100005c4e:	76 3b 	jbe	59 <___intel_ssse3_strncpy+0x2C9B>
100005c50:	66 0f 3a 0f d1 0e 	palignr	$14, %xmm1, %xmm2
100005c56:	0f 29 52 10 	movaps	%xmm2, 16(%rdx)
100005c5a:	0f 28 51 22 	movaps	34(%rcx), %xmm2
100005c5e:	0f 28 cb 	movaps	%xmm3, %xmm1
100005c61:	48 8d 76 10 	leaq	16(%rsi), %rsi
100005c65:	49 83 e8 10 	subq	$16, %r8
100005c69:	76 20 	jbe	32 <___intel_ssse3_strncpy+0x2C9B>
100005c6b:	0f 28 ca 	movaps	%xmm2, %xmm1
100005c6e:	0f 29 62 20 	movaps	%xmm4, 32(%rdx)
100005c72:	48 8d 76 10 	leaq	16(%rsi), %rsi
100005c76:	49 83 e8 10 	subq	$16, %r8
100005c7a:	76 0f 	jbe	15 <___intel_ssse3_strncpy+0x2C9B>
100005c7c:	0f 28 cf 	movaps	%xmm7, %xmm1
100005c7f:	0f 29 6a 30 	movaps	%xmm5, 48(%rdx)
100005c83:	48 8d 76 10 	leaq	16(%rsi), %rsi
100005c87:	4d 8d 40 f0 	leaq	-16(%r8), %r8
100005c8b:	0f 28 34 32 	movaps	(%rdx,%rsi), %xmm6
100005c8f:	66 0f 73 de 02 	psrldq	$2, %xmm6
100005c94:	66 0f 3a 0f f1 0e 	palignr	$14, %xmm1, %xmm6
100005c9a:	0f 29 34 32 	movaps	%xmm6, (%rdx,%rsi)
100005c9e:	48 8d 76 02 	leaq	2(%rsi), %rsi
100005ca2:	e9 79 f0 ff ff 	jmp	-3975 <___intel_ssse3_strncpy+0x1D30>
100005ca7:	0f 28 da 	movaps	%xmm2, %xmm3
100005caa:	49 83 c0 30 	addq	$48, %r8
100005cae:	7e 58 	jle	88 <___intel_ssse3_strncpy+0x2D18>
100005cb0:	66 0f 3a 0f d1 0f 	palignr	$15, %xmm1, %xmm2
100005cb6:	0f 28 cb 	movaps	%xmm3, %xmm1
100005cb9:	0f 29 12 	movaps	%xmm2, (%rdx)
100005cbc:	0f 28 51 11 	movaps	17(%rcx), %xmm2
100005cc0:	48 8d 76 10 	leaq	16(%rsi), %rsi
100005cc4:	0f 28 da 	movaps	%xmm2, %xmm3
100005cc7:	49 83 e8 10 	subq	$16, %r8
100005ccb:	76 3b 	jbe	59 <___intel_ssse3_strncpy+0x2D18>
100005ccd:	66 0f 3a 0f d1 0f 	palignr	$15, %xmm1, %xmm2
100005cd3:	0f 29 52 10 	movaps	%xmm2, 16(%rdx)
100005cd7:	0f 28 51 21 	movaps	33(%rcx), %xmm2
100005cdb:	0f 28 cb 	movaps	%xmm3, %xmm1
100005cde:	48 8d 76 10 	leaq	16(%rsi), %rsi
100005ce2:	49 83 e8 10 	subq	$16, %r8
100005ce6:	76 20 	jbe	32 <___intel_ssse3_strncpy+0x2D18>
100005ce8:	0f 28 ca 	movaps	%xmm2, %xmm1
100005ceb:	0f 29 62 20 	movaps	%xmm4, 32(%rdx)
100005cef:	48 8d 76 10 	leaq	16(%rsi), %rsi
100005cf3:	49 83 e8 10 	subq	$16, %r8
100005cf7:	76 0f 	jbe	15 <___intel_ssse3_strncpy+0x2D18>
100005cf9:	0f 28 cf 	movaps	%xmm7, %xmm1
100005cfc:	0f 29 6a 30 	movaps	%xmm5, 48(%rdx)
100005d00:	48 8d 76 10 	leaq	16(%rsi), %rsi
100005d04:	4d 8d 40 f0 	leaq	-16(%r8), %r8
100005d08:	0f 28 34 32 	movaps	(%rdx,%rsi), %xmm6
100005d0c:	66 0f 73 de 01 	psrldq	$1, %xmm6
100005d11:	66 0f 3a 0f f1 0f 	palignr	$15, %xmm1, %xmm6
100005d17:	0f 29 34 32 	movaps	%xmm6, (%rdx,%rsi)
100005d1b:	48 8d 76 01 	leaq	1(%rsi), %rsi
100005d1f:	e9 fc ef ff ff 	jmp	-4100 <___intel_ssse3_strncpy+0x1D30>
100005d24:	0f 1f 44 00 00 	nopl	(%rax,%rax)
100005d29:	0f 1f 80 00 00 00 00 	nopl	(%rax)
100005d30:	90 	nop
100005d31:	90 	nop
100005d32:	90 	nop
100005d33:	90 	nop
100005d34:	90 	nop
100005d35:	90 	nop
100005d36:	90 	nop
100005d37:	90 	nop
100005d38:	90 	nop
100005d39:	90 	nop
100005d3a:	90 	nop
100005d3b:	90 	nop
100005d3c:	90 	nop
100005d3d:	90 	nop
100005d3e:	90 	nop
100005d3f:	90 	nop
100005d40:	56 	pushq	%rsi
100005d41:	57 	pushq	%rdi
100005d42:	41 54 	pushq	%r12
100005d44:	48 81 ec a0 00 00 00 	subq	$160, %rsp
100005d4b:	49 89 c8 	movq	%rcx, %r8
100005d4e:	4d 89 c1 	movq	%r8, %r9
100005d51:	45 32 e4 	xorb	%r12b, %r12b
100005d54:	49 83 e1 0f 	andq	$15, %r9
100005d58:	40 32 ff 	xorb	%dil, %dil
100005d5b:	4d 2b c1 	subq	%r9, %r8
100005d5e:	44 0f 29 7c 24 10 	movaps	%xmm15, 16(%rsp)
100005d64:	44 0f 29 74 24 30 	movaps	%xmm14, 48(%rsp)
100005d6a:	44 0f 29 6c 24 40 	movaps	%xmm13, 64(%rsp)
100005d70:	44 0f 29 64 24 50 	movaps	%xmm12, 80(%rsp)
100005d76:	44 0f 29 5c 24 60 	movaps	%xmm11, 96(%rsp)
100005d7c:	44 0f 29 54 24 70 	movaps	%xmm10, 112(%rsp)
100005d82:	44 0f 29 8c 24 80 00 00 00 	movaps	%xmm9, 128(%rsp)
100005d8b:	44 0f 29 84 24 90 00 00 00 	movaps	%xmm8, 144(%rsp)
100005d94:	0f 29 3c 24 	movaps	%xmm7, (%rsp)
100005d98:	0f 29 74 24 20 	movaps	%xmm6, 32(%rsp)
100005d9d:	66 41 0f 6f 08 	movdqa	(%r8), %xmm1
100005da2:	48 8d 15 d7 15 00 00 	leaq	5591(%rip), %rdx
100005da9:	42 0f b7 14 4a 	movzwl	(%rdx,%r9,2), %edx
100005dae:	48 8d 05 05 00 00 00 	leaq	5(%rip), %rax
100005db5:	48 03 c2 	addq	%rdx, %rax
100005db8:	ff e0 	jmpq	*%rax
100005dba:	66 0f 73 d9 0f 	psrldq	$15, %xmm1
100005dbf:	66 0f 6f 05 f9 15 00 00 	movdqa	5625(%rip), %xmm0
100005dc7:	66 0f 3a 0f c8 01 	palignr	$1, %xmm0, %xmm1
100005dcd:	e9 39 01 00 00 	jmp	313 <___intel_sse4_atoi+0x1CB>
100005dd2:	66 0f 73 d9 0e 	psrldq	$14, %xmm1
100005dd7:	66 0f 6f 05 e1 15 00 00 	movdqa	5601(%rip), %xmm0
100005ddf:	66 0f 3a 0f c8 02 	palignr	$2, %xmm0, %xmm1
100005de5:	e9 21 01 00 00 	jmp	289 <___intel_sse4_atoi+0x1CB>
100005dea:	66 0f 73 d9 0d 	psrldq	$13, %xmm1
100005def:	66 0f 6f 05 c9 15 00 00 	movdqa	5577(%rip), %xmm0
100005df7:	66 0f 3a 0f c8 03 	palignr	$3, %xmm0, %xmm1
100005dfd:	e9 09 01 00 00 	jmp	265 <___intel_sse4_atoi+0x1CB>
100005e02:	66 0f 73 d9 0c 	psrldq	$12, %xmm1
100005e07:	66 0f 6f 05 b1 15 00 00 	movdqa	5553(%rip), %xmm0
100005e0f:	66 0f 3a 0f c8 04 	palignr	$4, %xmm0, %xmm1
100005e15:	e9 f1 00 00 00 	jmp	241 <___intel_sse4_atoi+0x1CB>
100005e1a:	66 0f 73 d9 0b 	psrldq	$11, %xmm1
100005e1f:	66 0f 6f 05 99 15 00 00 	movdqa	5529(%rip), %xmm0
100005e27:	66 0f 3a 0f c8 05 	palignr	$5, %xmm0, %xmm1
100005e2d:	e9 d9 00 00 00 	jmp	217 <___intel_sse4_atoi+0x1CB>
100005e32:	66 0f 73 d9 0a 	psrldq	$10, %xmm1
100005e37:	66 0f 6f 05 81 15 00 00 	movdqa	5505(%rip), %xmm0
100005e3f:	66 0f 3a 0f c8 06 	palignr	$6, %xmm0, %xmm1
100005e45:	e9 c1 00 00 00 	jmp	193 <___intel_sse4_atoi+0x1CB>
100005e4a:	66 0f 73 d9 09 	psrldq	$9, %xmm1
100005e4f:	66 0f 6f 05 69 15 00 00 	movdqa	5481(%rip), %xmm0
100005e57:	66 0f 3a 0f c8 07 	palignr	$7, %xmm0, %xmm1
100005e5d:	e9 a9 00 00 00 	jmp	169 <___intel_sse4_atoi+0x1CB>
100005e62:	66 0f 73 d9 08 	psrldq	$8, %xmm1
100005e67:	66 0f 6f 05 51 15 00 00 	movdqa	5457(%rip), %xmm0
100005e6f:	66 0f 3a 0f c8 08 	palignr	$8, %xmm0, %xmm1
100005e75:	e9 91 00 00 00 	jmp	145 <___intel_sse4_atoi+0x1CB>
100005e7a:	66 0f 73 d9 07 	psrldq	$7, %xmm1
100005e7f:	66 0f 6f 05 39 15 00 00 	movdqa	5433(%rip), %xmm0
100005e87:	66 0f 3a 0f c8 09 	palignr	$9, %xmm0, %xmm1
100005e8d:	eb 7c 	jmp	124 <___intel_sse4_atoi+0x1CB>
100005e8f:	66 0f 73 d9 06 	psrldq	$6, %xmm1
100005e94:	66 0f 6f 05 24 15 00 00 	movdqa	5412(%rip), %xmm0
100005e9c:	66 0f 3a 0f c8 0a 	palignr	$10, %xmm0, %xmm1
100005ea2:	eb 67 	jmp	103 <___intel_sse4_atoi+0x1CB>
100005ea4:	66 0f 73 d9 05 	psrldq	$5, %xmm1
100005ea9:	66 0f 6f 05 0f 15 00 00 	movdqa	5391(%rip), %xmm0
100005eb1:	66 0f 3a 0f c8 0b 	palignr	$11, %xmm0, %xmm1
100005eb7:	eb 52 	jmp	82 <___intel_sse4_atoi+0x1CB>
100005eb9:	66 0f 73 d9 04 	psrldq	$4, %xmm1
100005ebe:	66 0f 6f 05 fa 14 00 00 	movdqa	5370(%rip), %xmm0
100005ec6:	66 0f 3a 0f c8 0c 	palignr	$12, %xmm0, %xmm1
100005ecc:	eb 3d 	jmp	61 <___intel_sse4_atoi+0x1CB>
100005ece:	66 0f 73 d9 03 	psrldq	$3, %xmm1
100005ed3:	66 0f 6f 05 e5 14 00 00 	movdqa	5349(%rip), %xmm0
100005edb:	66 0f 3a 0f c8 0d 	palignr	$13, %xmm0, %xmm1
100005ee1:	eb 28 	jmp	40 <___intel_sse4_atoi+0x1CB>
100005ee3:	66 0f 73 d9 02 	psrldq	$2, %xmm1
100005ee8:	66 0f 6f 05 d0 14 00 00 	movdqa	5328(%rip), %xmm0
100005ef0:	66 0f 3a 0f c8 0e 	palignr	$14, %xmm0, %xmm1
100005ef6:	eb 13 	jmp	19 <___intel_sse4_atoi+0x1CB>
100005ef8:	66 0f 73 d9 01 	psrldq	$1, %xmm1
100005efd:	66 0f 6f 05 bb 14 00 00 	movdqa	5307(%rip), %xmm0
100005f05:	66 0f 3a 0f c8 0f 	palignr	$15, %xmm0, %xmm1
100005f0b:	48 8d 15 4e 16 00 00 	leaq	5710(%rip), %rdx
100005f12:	66 0f 6f 02 	movdqa	(%rdx), %xmm0
100005f16:	eb 09 	jmp	9 <___intel_sse4_atoi+0x1E1>
100005f18:	49 83 c0 10 	addq	$16, %r8
100005f1c:	66 41 0f 6f 08 	movdqa	(%r8), %xmm1
100005f21:	66 0f 3a 63 c1 12 	pcmpistri	$18, %xmm1, %xmm0
100005f27:	73 ef 	jae	-17 <___intel_sse4_atoi+0x1D8>
100005f29:	66 0f 3a 63 c1 12 	pcmpistri	$18, %xmm1, %xmm0
100005f2f:	41 89 cb 	movl	%ecx, %r11d
100005f32:	4f 8d 14 18 	leaq	(%r8,%r11), %r10
100005f36:	41 8a 12 	movb	(%r10), %dl
100005f39:	80 fa 2b 	cmpb	$43, %dl
100005f3c:	0f 84 e7 04 00 00 	je	1255 <___intel_sse4_atoi+0x6E9>
100005f42:	80 fa 2d 	cmpb	$45, %dl
100005f45:	75 0a 	jne	10 <___intel_sse4_atoi+0x211>
100005f47:	49 ff c3 	incq	%r11
100005f4a:	41 b4 01 	movb	$1, %r12b
100005f4d:	4f 8d 14 18 	leaq	(%r8,%r11), %r10
100005f51:	4d 89 d9 	movq	%r11, %r9
100005f54:	49 83 e1 0f 	andq	$15, %r9
100005f58:	66 0f 3a 63 c1 12 	pcmpistri	$18, %xmm1, %xmm0
100005f5e:	74 0b 	je	11 <___intel_sse4_atoi+0x22B>
100005f60:	f3 43 0f 6f 0c 03 	movdqu	(%r11,%r8), %xmm1
100005f66:	e9 7f 00 00 00 	jmp	127 <___intel_sse4_atoi+0x2AA>
100005f6b:	48 8d 15 2e 14 00 00 	leaq	5166(%rip), %rdx
100005f72:	42 0f b6 14 0a 	movzbl	(%rdx,%r9), %edx
100005f77:	48 8d 05 05 00 00 00 	leaq	5(%rip), %rax
100005f7e:	48 03 c2 	addq	%rdx, %rax
100005f81:	ff e0 	jmpq	*%rax
100005f83:	66 0f 73 d9 0f 	psrldq	$15, %xmm1
100005f88:	eb 60 	jmp	96 <___intel_sse4_atoi+0x2AA>
100005f8a:	66 0f 73 d9 0e 	psrldq	$14, %xmm1
100005f8f:	eb 59 	jmp	89 <___intel_sse4_atoi+0x2AA>
100005f91:	66 0f 73 d9 0d 	psrldq	$13, %xmm1
100005f96:	eb 52 	jmp	82 <___intel_sse4_atoi+0x2AA>
100005f98:	66 0f 73 d9 0c 	psrldq	$12, %xmm1
100005f9d:	eb 4b 	jmp	75 <___intel_sse4_atoi+0x2AA>
100005f9f:	66 0f 73 d9 0b 	psrldq	$11, %xmm1
100005fa4:	eb 44 	jmp	68 <___intel_sse4_atoi+0x2AA>
100005fa6:	66 0f 73 d9 0a 	psrldq	$10, %xmm1
100005fab:	eb 3d 	jmp	61 <___intel_sse4_atoi+0x2AA>
100005fad:	66 0f 73 d9 09 	psrldq	$9, %xmm1
100005fb2:	eb 36 	jmp	54 <___intel_sse4_atoi+0x2AA>
100005fb4:	66 0f 73 d9 08 	psrldq	$8, %xmm1
100005fb9:	eb 2f 	jmp	47 <___intel_sse4_atoi+0x2AA>
100005fbb:	66 0f 73 d9 07 	psrldq	$7, %xmm1
100005fc0:	eb 28 	jmp	40 <___intel_sse4_atoi+0x2AA>
100005fc2:	66 0f 73 d9 06 	psrldq	$6, %xmm1
100005fc7:	eb 21 	jmp	33 <___intel_sse4_atoi+0x2AA>
100005fc9:	66 0f 73 d9 05 	psrldq	$5, %xmm1
100005fce:	eb 1a 	jmp	26 <___intel_sse4_atoi+0x2AA>
100005fd0:	66 0f 73 d9 04 	psrldq	$4, %xmm1
100005fd5:	eb 13 	jmp	19 <___intel_sse4_atoi+0x2AA>
100005fd7:	66 0f 73 d9 03 	psrldq	$3, %xmm1
100005fdc:	eb 0c 	jmp	12 <___intel_sse4_atoi+0x2AA>
100005fde:	66 0f 73 d9 02 	psrldq	$2, %xmm1
100005fe3:	eb 05 	jmp	5 <___intel_sse4_atoi+0x2AA>
100005fe5:	66 0f 73 d9 01 	psrldq	$1, %xmm1
100005fea:	48 8d 15 7f 15 00 00 	leaq	5503(%rip), %rdx
100005ff1:	66 0f 6f 12 	movdqa	(%rdx), %xmm2
100005ff5:	66 0f 3a 62 d1 46 	pcmpistrm	$70, %xmm1, %xmm2
100005ffb:	66 0f 6f f0 	movdqa	%xmm0, %xmm6
100005fff:	66 44 0f d7 c6 	pmovmskb	%xmm6, %r8d
100006004:	44 89 c1 	movl	%r8d, %ecx
100006007:	f7 d1 	notl	%ecx
100006009:	ff c9 	decl	%ecx
10000600b:	44 23 c1 	andl	%ecx, %r8d
10000600e:	0f 84 8c 01 00 00 	je	396 <___intel_sse4_atoi+0x460>
100006014:	48 8d 15 65 15 00 00 	leaq	5477(%rip), %rdx
10000601b:	49 0f bf c8 	movswq	%r8w, %rcx
10000601f:	85 c9 	testl	%ecx, %ecx
100006021:	66 0f 6f 2a 	movdqa	(%rdx), %xmm5
100006025:	0f 8e 22 02 00 00 	jle	546 <___intel_sse4_atoi+0x50D>
10000602b:	45 0f bd c0 	bsrl	%r8d, %r8d
10000602f:	48 8d 15 5a 15 00 00 	leaq	5466(%rip), %rdx
100006036:	48 8d 0d 63 15 00 00 	leaq	5475(%rip), %rcx
10000603d:	4c 8d 0d 6c 15 00 00 	leaq	5484(%rip), %r9
100006044:	4d 63 c0 	movslq	%r8d, %r8
100006047:	66 0f 6f 02 	movdqa	(%rdx), %xmm0
10000604b:	66 0f 6f 11 	movdqa	(%rcx), %xmm2
10000604f:	66 41 0f 6f 19 	movdqa	(%r9), %xmm3
100006054:	66 0f db ce 	pand	%xmm6, %xmm1
100006058:	66 0f db ee 	pand	%xmm6, %xmm5
10000605c:	66 0f f8 cd 	psubb	%xmm5, %xmm1
100006060:	40 84 ff 	testb	%dil, %dil
100006063:	66 0f 38 04 c8 	pmaddubsw	%xmm0, %xmm1
100006068:	66 0f f5 ca 	pmaddwd	%xmm2, %xmm1
10000606c:	66 0f 38 40 cb 	pmulld	%xmm3, %xmm1
100006071:	66 0f 38 02 c9 	phaddd	%xmm1, %xmm1
100006076:	75 11 	jne	17 <___intel_sse4_atoi+0x349>
100006078:	49 83 f8 08 	cmpq	$8, %r8
10000607c:	73 0b 	jae	11 <___intel_sse4_atoi+0x349>
10000607e:	66 0f 3a 16 c9 00 	pextrd	$0, %xmm1, %ecx
100006084:	48 63 c9 	movslq	%ecx, %rcx
100006087:	eb 21 	jmp	33 <___intel_sse4_atoi+0x36A>
100006089:	48 8d 0d 30 15 00 00 	leaq	5424(%rip), %rcx
100006090:	66 0f 62 c9 	punpckldq	%xmm1, %xmm1
100006094:	66 0f 38 28 09 	pmuldq	(%rcx), %xmm1
100006099:	66 48 0f 3a 16 c9 00 	pextrq	$0, %xmm1, %rcx
1000060a0:	66 48 0f 3a 16 ca 01 	pextrq	$1, %xmm1, %rdx
1000060a7:	48 03 ca 	addq	%rdx, %rcx
1000060aa:	49 c1 e0 02 	shlq	$2, %r8
1000060ae:	4c 8d 0d 2b 13 00 00 	leaq	4907(%rip), %r9
1000060b5:	40 84 ff 	testb	%dil, %dil
1000060b8:	4f 63 14 01 	movslq	(%r9,%r8), %r10
1000060bc:	74 19 	je	25 <___intel_sse4_atoi+0x397>
1000060be:	48 89 f0 	movq	%rsi, %rax
1000060c1:	33 d2 	xorl	%edx, %edx
1000060c3:	49 f7 f2 	divq	%r10
1000060c6:	49 f7 d8 	negq	%r8
1000060c9:	4b 63 74 01 18 	movslq	24(%r9,%r8), %rsi
1000060ce:	48 0f af f1 	imulq	%rcx, %rsi
1000060d2:	48 03 c6 	addq	%rsi, %rax
1000060d5:	eb 08 	jmp	8 <___intel_sse4_atoi+0x39F>
1000060d7:	48 89 c8 	movq	%rcx, %rax
1000060da:	33 d2 	xorl	%edx, %edx
1000060dc:	49 f7 f2 	divq	%r10
1000060df:	45 84 e4 	testb	%r12b, %r12b
1000060e2:	74 68 	je	104 <___intel_sse4_atoi+0x40C>
1000060e4:	48 f7 d8 	negq	%rax
1000060e7:	48 85 c0 	testq	%rax, %rax
1000060ea:	7e 69 	jle	105 <___intel_sse4_atoi+0x415>
1000060ec:	e8 5f 03 00 00 	callq	863
1000060f1:	0f 28 74 24 20 	movaps	32(%rsp), %xmm6
1000060f6:	0f 28 3c 24 	movaps	(%rsp), %xmm7
1000060fa:	44 0f 28 84 24 90 00 00 00 	movaps	144(%rsp), %xmm8
100006103:	44 0f 28 8c 24 80 00 00 00 	movaps	128(%rsp), %xmm9
10000610c:	44 0f 28 54 24 70 	movaps	112(%rsp), %xmm10
100006112:	44 0f 28 5c 24 60 	movaps	96(%rsp), %xmm11
100006118:	44 0f 28 64 24 50 	movaps	80(%rsp), %xmm12
10000611e:	44 0f 28 6c 24 40 	movaps	64(%rsp), %xmm13
100006124:	44 0f 28 74 24 30 	movaps	48(%rsp), %xmm14
10000612a:	44 0f 28 7c 24 10 	movaps	16(%rsp), %xmm15
100006130:	c7 00 22 00 00 00 	movl	$34, (%rax)
100006136:	48 b8 00 00 00 00 00 00 00 80 	movabsq	$-9223372036854775808, %rax
100006140:	48 81 c4 a0 00 00 00 	addq	$160, %rsp
100006147:	41 5c 	popq	%r12
100006149:	5f 	popq	%rdi
10000614a:	5e 	popq	%rsi
10000614b:	c3 	retq
10000614c:	48 85 c0 	testq	%rax, %rax
10000614f:	0f 8c 98 00 00 00 	jl	152 <___intel_sse4_atoi+0x4AD>
100006155:	0f 28 74 24 20 	movaps	32(%rsp), %xmm6
10000615a:	0f 28 3c 24 	movaps	(%rsp), %xmm7
10000615e:	44 0f 28 84 24 90 00 00 00 	movaps	144(%rsp), %xmm8
100006167:	44 0f 28 8c 24 80 00 00 00 	movaps	128(%rsp), %xmm9
100006170:	44 0f 28 54 24 70 	movaps	112(%rsp), %xmm10
100006176:	44 0f 28 5c 24 60 	movaps	96(%rsp), %xmm11
10000617c:	44 0f 28 64 24 50 	movaps	80(%rsp), %xmm12
100006182:	44 0f 28 6c 24 40 	movaps	64(%rsp), %xmm13
100006188:	44 0f 28 74 24 30 	movaps	48(%rsp), %xmm14
10000618e:	44 0f 28 7c 24 10 	movaps	16(%rsp), %xmm15
100006194:	48 81 c4 a0 00 00 00 	addq	$160, %rsp
10000619b:	41 5c 	popq	%r12
10000619d:	5f 	popq	%rdi
10000619e:	5e 	popq	%rsi
10000619f:	c3 	retq
1000061a0:	0f 28 74 24 20 	movaps	32(%rsp), %xmm6
1000061a5:	33 c0 	xorl	%eax, %eax
1000061a7:	0f 28 3c 24 	movaps	(%rsp), %xmm7
1000061ab:	44 0f 28 84 24 90 00 00 00 	movaps	144(%rsp), %xmm8
1000061b4:	44 0f 28 8c 24 80 00 00 00 	movaps	128(%rsp), %xmm9
1000061bd:	44 0f 28 54 24 70 	movaps	112(%rsp), %xmm10
1000061c3:	44 0f 28 5c 24 60 	movaps	96(%rsp), %xmm11
1000061c9:	44 0f 28 64 24 50 	movaps	80(%rsp), %xmm12
1000061cf:	44 0f 28 6c 24 40 	movaps	64(%rsp), %xmm13
1000061d5:	44 0f 28 74 24 30 	movaps	48(%rsp), %xmm14
1000061db:	44 0f 28 7c 24 10 	movaps	16(%rsp), %xmm15
1000061e1:	48 81 c4 a0 00 00 00 	addq	$160, %rsp
1000061e8:	41 5c 	popq	%r12
1000061ea:	5f 	popq	%rdi
1000061eb:	5e 	popq	%rsi
1000061ec:	c3 	retq
1000061ed:	e8 5e 02 00 00 	callq	606
1000061f2:	0f 28 74 24 20 	movaps	32(%rsp), %xmm6
1000061f7:	0f 28 3c 24 	movaps	(%rsp), %xmm7
1000061fb:	44 0f 28 84 24 90 00 00 00 	movaps	144(%rsp), %xmm8
100006204:	44 0f 28 8c 24 80 00 00 00 	movaps	128(%rsp), %xmm9
10000620d:	44 0f 28 54 24 70 	movaps	112(%rsp), %xmm10
100006213:	44 0f 28 5c 24 60 	movaps	96(%rsp), %xmm11
100006219:	44 0f 28 64 24 50 	movaps	80(%rsp), %xmm12
10000621f:	44 0f 28 6c 24 40 	movaps	64(%rsp), %xmm13
100006225:	44 0f 28 74 24 30 	movaps	48(%rsp), %xmm14
10000622b:	44 0f 28 7c 24 10 	movaps	16(%rsp), %xmm15
100006231:	c7 00 22 00 00 00 	movl	$34, (%rax)
100006237:	48 b8 ff ff ff ff ff ff ff 7f 	movabsq	$9223372036854775807, %rax
100006241:	48 81 c4 a0 00 00 00 	addq	$160, %rsp
100006248:	41 5c 	popq	%r12
10000624a:	5f 	popq	%rdi
10000624b:	5e 	popq	%rsi
10000624c:	c3 	retq
10000624d:	4d 2b d1 	subq	%r9, %r10
100006250:	44 89 c9 	movl	%r9d, %ecx
100006253:	66 41 0f 6f 62 10 	movdqa	16(%r10), %xmm4
100006259:	66 0f 3a 62 d4 46 	pcmpistrm	$70, %xmm4, %xmm2
10000625f:	66 0f 6f d8 	movdqa	%xmm0, %xmm3
100006263:	66 44 0f d7 c3 	pmovmskb	%xmm3, %r8d
100006268:	41 d3 e8 	shrl	%cl, %r8d
10000626b:	44 89 c2 	movl	%r8d, %edx
10000626e:	f7 d2 	notl	%edx
100006270:	ff ca 	decl	%edx
100006272:	44 23 c2 	andl	%edx, %r8d
100006275:	75 2d 	jne	45 <___intel_sse4_atoi+0x564>
100006277:	48 8d 15 12 13 00 00 	leaq	4882(%rip), %rdx
10000627e:	41 b8 0f 00 00 00 	movl	$15, %r8d
100006284:	48 8d 0d 15 13 00 00 	leaq	4885(%rip), %rcx
10000628b:	4c 8d 0d 1e 13 00 00 	leaq	4894(%rip), %r9
100006292:	66 0f 6f 02 	movdqa	(%rdx), %xmm0
100006296:	66 0f 6f 11 	movdqa	(%rcx), %xmm2
10000629a:	66 41 0f 6f 19 	movdqa	(%r9), %xmm3
10000629f:	e9 b0 fd ff ff 	jmp	-592 <___intel_sse4_atoi+0x314>
1000062a4:	45 0f bd c0 	bsrl	%r8d, %r8d
1000062a8:	4d 63 c0 	movslq	%r8d, %r8
1000062ab:	40 b7 01 	movb	$1, %dil
1000062ae:	4b 8d 04 01 	leaq	(%r9,%r8), %rax
1000062b2:	48 83 f8 0f 	cmpq	$15, %rax
1000062b6:	75 29 	jne	41 <___intel_sse4_atoi+0x5A1>
1000062b8:	f3 43 0f 6f 64 0a 10 	movdqu	16(%r10,%r9), %xmm4
1000062bf:	66 0f 3a 62 d4 46 	pcmpistrm	$70, %xmm4, %xmm2
1000062c5:	66 0f d7 c0 	pmovmskb	%xmm0, %eax
1000062c9:	66 0f db e0 	pand	%xmm0, %xmm4
1000062cd:	66 0f db c5 	pand	%xmm5, %xmm0
1000062d1:	66 0f f8 e0 	psubb	%xmm0, %xmm4
1000062d5:	44 0f bd c0 	bsrl	%eax, %r8d
1000062d9:	4d 63 c0 	movslq	%r8d, %r8
1000062dc:	e9 8f 00 00 00 	jmp	143 <___intel_sse4_atoi+0x630>
1000062e1:	66 0f 6f c5 	movdqa	%xmm5, %xmm0
1000062e5:	66 0f db c3 	pand	%xmm3, %xmm0
1000062e9:	66 0f f8 e0 	psubb	%xmm0, %xmm4
1000062ed:	66 0f db e3 	pand	%xmm3, %xmm4
1000062f1:	48 8d 15 b8 10 00 00 	leaq	4280(%rip), %rdx
1000062f8:	42 0f b6 14 0a 	movzbl	(%rdx,%r9), %edx
1000062fd:	48 8d 05 05 00 00 00 	leaq	5(%rip), %rax
100006304:	48 03 c2 	addq	%rdx, %rax
100006307:	ff e0 	jmpq	*%rax
100006309:	66 0f 73 dc 0f 	psrldq	$15, %xmm4
10000630e:	eb 60 	jmp	96 <___intel_sse4_atoi+0x630>
100006310:	66 0f 73 dc 0e 	psrldq	$14, %xmm4
100006315:	eb 59 	jmp	89 <___intel_sse4_atoi+0x630>
100006317:	66 0f 73 dc 0d 	psrldq	$13, %xmm4
10000631c:	eb 52 	jmp	82 <___intel_sse4_atoi+0x630>
10000631e:	66 0f 73 dc 0c 	psrldq	$12, %xmm4
100006323:	eb 4b 	jmp	75 <___intel_sse4_atoi+0x630>
100006325:	66 0f 73 dc 0b 	psrldq	$11, %xmm4
10000632a:	eb 44 	jmp	68 <___intel_sse4_atoi+0x630>
10000632c:	66 0f 73 dc 0a 	psrldq	$10, %xmm4
100006331:	eb 3d 	jmp	61 <___intel_sse4_atoi+0x630>
100006333:	66 0f 73 dc 09 	psrldq	$9, %xmm4
100006338:	eb 36 	jmp	54 <___intel_sse4_atoi+0x630>
10000633a:	66 0f 73 dc 08 	psrldq	$8, %xmm4
10000633f:	eb 2f 	jmp	47 <___intel_sse4_atoi+0x630>
100006341:	66 0f 73 dc 07 	psrldq	$7, %xmm4
100006346:	eb 28 	jmp	40 <___intel_sse4_atoi+0x630>
100006348:	66 0f 73 dc 06 	psrldq	$6, %xmm4
10000634d:	eb 21 	jmp	33 <___intel_sse4_atoi+0x630>
10000634f:	66 0f 73 dc 05 	psrldq	$5, %xmm4
100006354:	eb 1a 	jmp	26 <___intel_sse4_atoi+0x630>
100006356:	66 0f 73 dc 04 	psrldq	$4, %xmm4
10000635b:	eb 13 	jmp	19 <___intel_sse4_atoi+0x630>
10000635d:	66 0f 73 dc 03 	psrldq	$3, %xmm4
100006362:	eb 0c 	jmp	12 <___intel_sse4_atoi+0x630>
100006364:	66 0f 73 dc 02 	psrldq	$2, %xmm4
100006369:	eb 05 	jmp	5 <___intel_sse4_atoi+0x630>
10000636b:	66 0f 73 dc 01 	psrldq	$1, %xmm4
100006370:	49 83 f8 02 	cmpq	$2, %r8
100006374:	77 42 	ja	66 <___intel_sse4_atoi+0x678>
100006376:	48 8d 05 13 12 00 00 	leaq	4627(%rip), %rax
10000637d:	48 8d 15 1c 12 00 00 	leaq	4636(%rip), %rdx
100006384:	48 8d 0d 25 12 00 00 	leaq	4645(%rip), %rcx
10000638b:	66 0f 6f 00 	movdqa	(%rax), %xmm0
10000638f:	66 0f 6f 12 	movdqa	(%rdx), %xmm2
100006393:	66 0f 38 04 e0 	pmaddubsw	%xmm0, %xmm4
100006398:	66 0f f5 e2 	pmaddwd	%xmm2, %xmm4
10000639c:	66 0f 6f 19 	movdqa	(%rcx), %xmm3
1000063a0:	66 0f 38 40 e3 	pmulld	%xmm3, %xmm4
1000063a5:	66 0f 38 02 e4 	phaddd	%xmm4, %xmm4
1000063aa:	66 0f 3a 16 e6 00 	pextrd	$0, %xmm4, %esi
1000063b0:	48 63 f6 	movslq	%esi, %rsi
1000063b3:	e9 9c fc ff ff 	jmp	-868 <___intel_sse4_atoi+0x314>
1000063b8:	e8 93 00 00 00 	callq	147
1000063bd:	45 84 e4 	testb	%r12b, %r12b
1000063c0:	48 ba 00 00 00 00 00 00 00 80 	movabsq	$-9223372036854775808, %rdx
1000063ca:	c7 00 22 00 00 00 	movl	$34, (%rax)
1000063d0:	48 b8 ff ff ff ff ff ff ff 7f 	movabsq	$9223372036854775807, %rax
1000063da:	0f 28 74 24 20 	movaps	32(%rsp), %xmm6
1000063df:	48 0f 45 c2 	cmovneq	%rdx, %rax
1000063e3:	0f 28 3c 24 	movaps	(%rsp), %xmm7
1000063e7:	44 0f 28 84 24 90 00 00 00 	movaps	144(%rsp), %xmm8
1000063f0:	44 0f 28 8c 24 80 00 00 00 	movaps	128(%rsp), %xmm9
1000063f9:	44 0f 28 54 24 70 	movaps	112(%rsp), %xmm10
1000063ff:	44 0f 28 5c 24 60 	movaps	96(%rsp), %xmm11
100006405:	44 0f 28 64 24 50 	movaps	80(%rsp), %xmm12
10000640b:	44 0f 28 6c 24 40 	movaps	64(%rsp), %xmm13
100006411:	44 0f 28 74 24 30 	movaps	48(%rsp), %xmm14
100006417:	44 0f 28 7c 24 10 	movaps	16(%rsp), %xmm15
10000641d:	48 81 c4 a0 00 00 00 	addq	$160, %rsp
100006424:	41 5c 	popq	%r12
100006426:	5f 	popq	%rdi
100006427:	5e 	popq	%rsi
100006428:	c3 	retq
100006429:	49 ff c3 	incq	%r11
10000642c:	4f 8d 14 18 	leaq	(%r8,%r11), %r10
100006430:	e9 1c fb ff ff 	jmp	-1252 <___intel_sse4_atoi+0x211>
100006435:	0f 1f 40 00 	nopl	(%rax)
100006439:	0f 1f 80 00 00 00 00 	nopl	(%rax)
100006440:	90 	nop
100006441:	90 	nop
100006442:	90 	nop
100006443:	90 	nop
100006444:	90 	nop
100006445:	90 	nop
100006446:	90 	nop
100006447:	90 	nop
100006448:	90 	nop
100006449:	90 	nop
10000644a:	90 	nop
10000644b:	90 	nop
10000644c:	90 	nop
10000644d:	90 	nop
10000644e:	90 	nop
10000644f:	90 	nop

_main:
100000ab0:	55 	pushq	%rbp
100000ab1:	48 89 e5 	movq	%rsp, %rbp
100000ab4:	48 83 e4 80 	andq	$-128, %rsp
100000ab8:	41 54 	pushq	%r12
100000aba:	41 55 	pushq	%r13
100000abc:	41 56 	pushq	%r14
100000abe:	41 57 	pushq	%r15
100000ac0:	53 	pushq	%rbx
100000ac1:	48 81 ec d8 00 00 00 	subq	$216, %rsp
100000ac8:	48 89 f3 	movq	%rsi, %rbx
100000acb:	33 f6 	xorl	%esi, %esi
100000acd:	bf 03 00 00 00 	movl	$3, %edi
100000ad2:	e8 49 20 00 00 	callq	8265 <___intel_new_feature_proc_init>
100000ad7:	c5 f8 ae 1c 24 	vstmxcsr	(%rsp)
100000adc:	81 0c 24 40 80 00 00 	orl	$32832, (%rsp)
100000ae3:	48 8b 4b 08 	movq	8(%rbx), %rcx
100000ae7:	c5 f8 ae 14 24 	vldmxcsr	(%rsp)
100000aec:	e8 4f 52 00 00 	callq	21071 <___intel_sse4_atoi>
100000af1:	bf d2 04 00 00 	movl	$1234, %edi
100000af6:	89 c3 	movl	%eax, %ebx
100000af8:	e8 a7 59 00 00 	callq	22951
100000afd:	41 89 de 	movl	%ebx, %r14d
100000b00:	4d 03 f6 	addq	%r14, %r14
100000b03:	4c 89 f7 	movq	%r14, %rdi
100000b06:	e8 7b 59 00 00 	callq	22907
100000b0b:	49 89 c5 	movq	%rax, %r13
100000b0e:	4c 89 f7 	movq	%r14, %rdi
100000b11:	e8 70 59 00 00 	callq	22896
100000b16:	48 89 44 24 30 	movq	%rax, 48(%rsp)
100000b1b:	4c 89 f7 	movq	%r14, %rdi
100000b1e:	e8 63 59 00 00 	callq	22883
100000b23:	49 89 c7 	movq	%rax, %r15
100000b26:	4c 89 f7 	movq	%r14, %rdi
100000b29:	e8 58 59 00 00 	callq	22872
100000b2e:	49 89 c4 	movq	%rax, %r12
100000b31:	4c 89 f7 	movq	%r14, %rdi
100000b34:	e8 4d 59 00 00 	callq	22861
100000b39:	49 89 c6 	movq	%rax, %r14
100000b3c:	4d 85 ed 	testq	%r13, %r13
100000b3f:	0f 84 02 08 00 00 	je	2050 <_main+0x897>
100000b45:	48 83 7c 24 30 00 	cmpq	$0, 48(%rsp)
100000b4b:	0f 84 f6 07 00 00 	je	2038 <_main+0x897>
100000b51:	4d 85 ff 	testq	%r15, %r15
100000b54:	0f 84 ed 07 00 00 	je	2029 <_main+0x897>
100000b5a:	4d 85 e4 	testq	%r12, %r12
100000b5d:	0f 84 e4 07 00 00 	je	2020 <_main+0x897>
100000b63:	4d 85 f6 	testq	%r14, %r14
100000b66:	0f 84 db 07 00 00 	je	2011 <_main+0x897>
100000b6c:	33 c9 	xorl	%ecx, %ecx
100000b6e:	85 db 	testl	%ebx, %ebx
100000b70:	76 55 	jbe	85 <_main+0x117>
100000b72:	48 63 d3 	movslq	%ebx, %rdx
100000b75:	b8 01 00 00 00 	movl	$1, %eax
100000b7a:	4c 89 64 24 10 	movq	%r12, 16(%rsp)
100000b7f:	4c 89 74 24 08 	movq	%r14, 8(%rsp)
100000b84:	49 89 d6 	movq	%rdx, %r14
100000b87:	4c 89 7c 24 40 	movq	%r15, 64(%rsp)
100000b8c:	49 89 cf 	movq	%rcx, %r15
100000b8f:	89 5c 24 50 	movl	%ebx, 80(%rsp)
100000b93:	89 c3 	movl	%eax, %ebx
100000b95:	4c 8b 64 24 30 	movq	48(%rsp), %r12
100000b9a:	66 43 89 5c 7d 00 	movw	%bx, (%r13,%r15,2)
100000ba0:	e8 f3 58 00 00 	callq	22771
100000ba5:	66 43 89 04 7c 	movw	%ax, (%r12,%r15,2)
100000baa:	49 ff c7 	incq	%r15
100000bad:	4d 3b fe 	cmpq	%r14, %r15
100000bb0:	72 e8 	jb	-24 <_main+0xEA>
100000bb2:	8b 5c 24 50 	movl	80(%rsp), %ebx
100000bb6:	85 db 	testl	%ebx, %ebx
100000bb8:	4c 8b 74 24 08 	movq	8(%rsp), %r14
100000bbd:	4c 8b 64 24 10 	movq	16(%rsp), %r12
100000bc2:	4c 8b 7c 24 40 	movq	64(%rsp), %r15
100000bc7:	0f 86 d2 00 00 00 	jbe	210 <_main+0x1EF>
100000bcd:	8d 43 07 	leal	7(%rbx), %eax
100000bd0:	c1 f8 02 	sarl	$2, %eax
100000bd3:	c1 e8 1d 	shrl	$29, %eax
100000bd6:	8d 4c 18 07 	leal	7(%rax,%rbx), %ecx
100000bda:	48 63 c9 	movslq	%ecx, %rcx
100000bdd:	48 83 e1 f8 	andq	$-8, %rcx
100000be1:	48 83 f9 10 	cmpq	$16, %rcx
100000be5:	0f 8c 89 07 00 00 	jl	1929 <_main+0x8C4>
100000beb:	48 81 f9 b9 04 00 00 	cmpq	$1209, %rcx
100000bf2:	0f 8c 83 07 00 00 	jl	1923 <_main+0x8CB>
100000bf8:	4c 89 fa 	movq	%r15, %rdx
100000bfb:	48 83 e2 1f 	andq	$31, %rdx
100000bff:	85 d2 	testl	%edx, %edx
100000c01:	74 10 	je	16 <_main+0x163>
100000c03:	f6 c2 01 	testb	$1, %dl
100000c06:	0f 85 68 07 00 00 	jne	1896 <_main+0x8C4>
100000c0c:	f7 da 	negl	%edx
100000c0e:	83 c2 20 	addl	$32, %edx
100000c11:	d1 ea 	shrl	%edx
100000c13:	89 d0 	movl	%edx, %eax
100000c15:	48 8d 78 10 	leaq	16(%rax), %rdi
100000c19:	48 3b cf 	cmpq	%rdi, %rcx
100000c1c:	0f 8c 52 07 00 00 	jl	1874 <_main+0x8C4>
100000c22:	41 89 cb 	movl	%ecx, %r11d
100000c25:	44 89 df 	movl	%r11d, %edi
100000c28:	2b fa 	subl	%edx, %edi
100000c2a:	83 e7 0f 	andl	$15, %edi
100000c2d:	44 2b df 	subl	%edi, %r11d
100000c30:	33 ff 	xorl	%edi, %edi
100000c32:	85 d2 	testl	%edx, %edx
100000c34:	49 63 d3 	movslq	%r11d, %rdx
100000c37:	76 21 	jbe	33 <_main+0x1AA>
100000c39:	4c 8b 54 24 30 	movq	48(%rsp), %r10
100000c3e:	45 0f b7 4c 7d 00 	movzwl	(%r13,%rdi,2), %r9d
100000c44:	45 0f b7 04 7a 	movzwl	(%r10,%rdi,2), %r8d
100000c49:	45 0f af c8 	imull	%r8d, %r9d
100000c4d:	66 45 89 0c 7f 	movw	%r9w, (%r15,%rdi,2)
100000c52:	48 ff c7 	incq	%rdi
100000c55:	48 3b f8 	cmpq	%rax, %rdi
100000c58:	72 e4 	jb	-28 <_main+0x18E>
100000c5a:	48 8b 7c 24 30 	movq	48(%rsp), %rdi
100000c5f:	c4 c1 7e 6f 44 45 00 	vmovdqu	(%r13,%rax,2), %ymm0
100000c66:	c5 fd d5 0c 47 	vpmullw	(%rdi,%rax,2), %ymm0, %ymm1
100000c6b:	c4 c1 7e 7f 0c 47 	vmovdqu	%ymm1, (%r15,%rax,2)
100000c71:	48 83 c0 10 	addq	$16, %rax
100000c75:	48 3b c2 	cmpq	%rdx, %rax
100000c78:	72 e5 	jb	-27 <_main+0x1AF>
100000c7a:	48 3b d1 	cmpq	%rcx, %rdx
100000c7d:	73 20 	jae	32 <_main+0x1EF>
100000c7f:	4c 8b 44 24 30 	movq	48(%rsp), %r8
100000c84:	41 0f b7 7c 55 00 	movzwl	(%r13,%rdx,2), %edi
100000c8a:	41 0f b7 04 50 	movzwl	(%r8,%rdx,2), %eax
100000c8f:	0f af f8 	imull	%eax, %edi
100000c92:	66 41 89 3c 57 	movw	%di, (%r15,%rdx,2)
100000c97:	48 ff c2 	incq	%rdx
100000c9a:	48 3b d1 	cmpq	%rcx, %rdx
100000c9d:	72 e5 	jb	-27 <_main+0x1D4>
100000c9f:	41 89 da 	movl	%ebx, %r10d
100000ca2:	33 c9 	xorl	%ecx, %ecx
100000ca4:	41 c1 ea 03 	shrl	$3, %r10d
100000ca8:	33 d2 	xorl	%edx, %edx
100000caa:	45 85 d2 	testl	%r10d, %r10d
100000cad:	0f 86 b5 00 00 00 	jbe	181 <_main+0x2B8>
100000cb3:	44 89 d0 	movl	%r10d, %eax
100000cb6:	4c 8b 44 24 30 	movq	48(%rsp), %r8
100000cbb:	c4 a1 7a 6f 04 2a 	vmovdqu	(%rdx,%r13), %xmm0
100000cc1:	48 83 c1 08 	addq	$8, %rcx
100000cc5:	c4 a1 7a 6f 4c 2a 10 	vmovdqu	16(%rdx,%r13), %xmm1
100000ccc:	4a 8d 3c 22 	leaq	(%rdx,%r12), %rdi
100000cd0:	c4 a1 7a 6f 54 2a 20 	vmovdqu	32(%rdx,%r13), %xmm2
100000cd7:	c4 a1 7a 6f 5c 2a 30 	vmovdqu	48(%rdx,%r13), %xmm3
100000cde:	c4 a1 7a 6f 64 2a 40 	vmovdqu	64(%rdx,%r13), %xmm4
100000ce5:	c4 a1 7a 6f 6c 2a 50 	vmovdqu	80(%rdx,%r13), %xmm5
100000cec:	c4 a1 7a 6f 74 2a 60 	vmovdqu	96(%rdx,%r13), %xmm6
100000cf3:	c4 a1 7a 6f 7c 2a 70 	vmovdqu	112(%rdx,%r13), %xmm7
100000cfa:	c4 21 79 d5 04 02 	vpmullw	(%rdx,%r8), %xmm0, %xmm8
100000d00:	c4 21 71 d5 4c 02 10 	vpmullw	16(%rdx,%r8), %xmm1, %xmm9
100000d07:	c4 21 69 d5 54 02 20 	vpmullw	32(%rdx,%r8), %xmm2, %xmm10
100000d0e:	c4 21 61 d5 5c 02 30 	vpmullw	48(%rdx,%r8), %xmm3, %xmm11
100000d15:	c4 21 59 d5 64 02 40 	vpmullw	64(%rdx,%r8), %xmm4, %xmm12
100000d1c:	c4 21 51 d5 6c 02 50 	vpmullw	80(%rdx,%r8), %xmm5, %xmm13
100000d23:	c4 21 49 d5 74 02 60 	vpmullw	96(%rdx,%r8), %xmm6, %xmm14
100000d2a:	c4 21 41 d5 7c 02 70 	vpmullw	112(%rdx,%r8), %xmm7, %xmm15
100000d31:	48 81 c2 80 00 00 00 	addq	$128, %rdx
100000d38:	c5 7a 7f 07 	vmovdqu	%xmm8, (%rdi)
100000d3c:	c5 7a 7f 4f 10 	vmovdqu	%xmm9, 16(%rdi)
100000d41:	c5 7a 7f 57 20 	vmovdqu	%xmm10, 32(%rdi)
100000d46:	c5 7a 7f 5f 30 	vmovdqu	%xmm11, 48(%rdi)
100000d4b:	c5 7a 7f 67 40 	vmovdqu	%xmm12, 64(%rdi)
100000d50:	c5 7a 7f 6f 50 	vmovdqu	%xmm13, 80(%rdi)
100000d55:	c5 7a 7f 77 60 	vmovdqu	%xmm14, 96(%rdi)
100000d5a:	c5 7a 7f 7f 70 	vmovdqu	%xmm15, 112(%rdi)
100000d5f:	48 3b c8 	cmpq	%rax, %rcx
100000d62:	0f 82 53 ff ff ff 	jb	-173 <_main+0x20B>
100000d68:	89 d8 	movl	%ebx, %eax
100000d6a:	33 c9 	xorl	%ecx, %ecx
100000d6c:	c1 e8 04 	shrl	$4, %eax
100000d6f:	33 d2 	xorl	%edx, %edx
100000d71:	89 44 24 18 	movl	%eax, 24(%rsp)
100000d75:	85 c0 	testl	%eax, %eax
100000d77:	0f 86 de 00 00 00 	jbe	222 <_main+0x3AB>
100000d7d:	8b 44 24 18 	movl	24(%rsp), %eax
100000d81:	48 8b 7c 24 30 	movq	48(%rsp), %rdi
100000d86:	c4 a1 7e 6f 04 2a 	vmovdqu	(%rdx,%r13), %ymm0
100000d8c:	48 83 c1 08 	addq	$8, %rcx
100000d90:	c4 a1 7e 6f 54 2a 20 	vmovdqu	32(%rdx,%r13), %ymm2
100000d97:	c4 a1 7e 6f 64 2a 40 	vmovdqu	64(%rdx,%r13), %ymm4
100000d9e:	c4 a1 7e 6f 74 2a 60 	vmovdqu	96(%rdx,%r13), %ymm6
100000da5:	c4 21 7e 6f 84 2a 80 00 00 00 	vmovdqu	128(%rdx,%r13), %ymm8
100000daf:	c4 21 7e 6f 94 2a a0 00 00 00 	vmovdqu	160(%rdx,%r13), %ymm10
100000db9:	c4 21 7e 6f a4 2a c0 00 00 00 	vmovdqu	192(%rdx,%r13), %ymm12
100000dc3:	c4 21 7e 6f b4 2a e0 00 00 00 	vmovdqu	224(%rdx,%r13), %ymm14
100000dcd:	c5 fd d5 0c 3a 	vpmullw	(%rdx,%rdi), %ymm0, %ymm1
100000dd2:	c5 ed d5 5c 3a 20 	vpmullw	32(%rdx,%rdi), %ymm2, %ymm3
100000dd8:	c5 dd d5 6c 3a 40 	vpmullw	64(%rdx,%rdi), %ymm4, %ymm5
100000dde:	c5 cd d5 7c 3a 60 	vpmullw	96(%rdx,%rdi), %ymm6, %ymm7
100000de4:	c5 3d d5 8c 3a 80 00 00 00 	vpmullw	128(%rdx,%rdi), %ymm8, %ymm9
100000ded:	c5 2d d5 9c 3a a0 00 00 00 	vpmullw	160(%rdx,%rdi), %ymm10, %ymm11
100000df6:	c5 1d d5 ac 3a c0 00 00 00 	vpmullw	192(%rdx,%rdi), %ymm12, %ymm13
100000dff:	c5 0d d5 bc 3a e0 00 00 00 	vpmullw	224(%rdx,%rdi), %ymm14, %ymm15
100000e08:	c4 a1 7e 7f 0c 32 	vmovdqu	%ymm1, (%rdx,%r14)
100000e0e:	c4 a1 7e 7f 5c 32 20 	vmovdqu	%ymm3, 32(%rdx,%r14)
100000e15:	c4 a1 7e 7f 6c 32 40 	vmovdqu	%ymm5, 64(%rdx,%r14)
100000e1c:	c4 a1 7e 7f 7c 32 60 	vmovdqu	%ymm7, 96(%rdx,%r14)
100000e23:	c4 21 7e 7f 8c 32 80 00 00 00 	vmovdqu	%ymm9, 128(%rdx,%r14)
100000e2d:	c4 21 7e 7f 9c 32 a0 00 00 00 	vmovdqu	%ymm11, 160(%rdx,%r14)
100000e37:	c4 21 7e 7f ac 32 c0 00 00 00 	vmovdqu	%ymm13, 192(%rdx,%r14)
100000e41:	c4 21 7e 7f bc 32 e0 00 00 00 	vmovdqu	%ymm15, 224(%rdx,%r14)
100000e4b:	48 81 c2 00 01 00 00 	addq	$256, %rdx
100000e52:	48 3b c8 	cmpq	%rax, %rcx
100000e55:	0f 82 2b ff ff ff 	jb	-213 <_main+0x2D6>
100000e5b:	33 d2 	xorl	%edx, %edx
100000e5d:	85 db 	testl	%ebx, %ebx
100000e5f:	76 2a 	jbe	42 <_main+0x3DB>
100000e61:	48 63 c3 	movslq	%ebx, %rax
100000e64:	41 0f bf 3c 57 	movswl	(%r15,%rdx,2), %edi
100000e69:	41 0f bf 0c 54 	movswl	(%r12,%rdx,2), %ecx
100000e6e:	3b f9 	cmpl	%ecx, %edi
100000e70:	0f 85 d1 04 00 00 	jne	1233 <_main+0x897>
100000e76:	41 0f bf 0c 56 	movswl	(%r14,%rdx,2), %ecx
100000e7b:	3b f9 	cmpl	%ecx, %edi
100000e7d:	0f 85 c4 04 00 00 	jne	1220 <_main+0x897>
100000e83:	48 ff c2 	incq	%rdx
100000e86:	48 3b d0 	cmpq	%rax, %rdx
100000e89:	72 d9 	jb	-39 <_main+0x3B4>
100000e8b:	33 c9 	xorl	%ecx, %ecx
100000e8d:	8d 43 07 	leal	7(%rbx), %eax
100000e90:	c1 f8 02 	sarl	$2, %eax
100000e93:	45 33 c0 	xorl	%r8d, %r8d
100000e96:	c1 e8 1d 	shrl	$29, %eax
100000e99:	4c 89 7c 24 40 	movq	%r15, 64(%rsp)
100000e9e:	44 89 14 24 	movl	%r10d, (%rsp)
100000ea2:	4c 89 74 24 08 	movq	%r14, 8(%rsp)
100000ea7:	8d 74 03 07 	leal	7(%rbx,%rax), %esi
100000eab:	48 63 f6 	movslq	%esi, %rsi
100000eae:	4c 89 f8 	movq	%r15, %rax
100000eb1:	48 83 e6 f8 	andq	$-8, %rsi
100000eb5:	48 83 e0 1f 	andq	$31, %rax
100000eb9:	89 f2 	movl	%esi, %edx
100000ebb:	41 89 c3 	movl	%eax, %r11d
100000ebe:	89 d7 	movl	%edx, %edi
100000ec0:	41 f7 db 	negl	%r11d
100000ec3:	83 e7 f0 	andl	$-16, %edi
100000ec6:	41 83 c3 20 	addl	$32, %r11d
100000eca:	4c 63 cf 	movslq	%edi, %r9
100000ecd:	89 c7 	movl	%eax, %edi
100000ecf:	41 d1 eb 	shrl	%r11d
100000ed2:	83 e7 01 	andl	$1, %edi
100000ed5:	44 89 5c 24 28 	movl	%r11d, 40(%rsp)
100000eda:	41 89 c6 	movl	%eax, %r14d
100000edd:	89 7c 24 48 	movl	%edi, 72(%rsp)
100000ee1:	4c 89 4c 24 20 	movq	%r9, 32(%rsp)
100000ee6:	49 89 c9 	movq	%rcx, %r9
100000ee9:	4c 89 64 24 10 	movq	%r12, 16(%rsp)
100000eee:	4c 89 6c 24 38 	movq	%r13, 56(%rsp)
100000ef3:	41 89 d5 	movl	%edx, %r13d
100000ef6:	49 89 cf 	movq	%rcx, %r15
100000ef9:	c5 f8 77 	vzeroupper
100000efc:	48 8d 7c 24 60 	leaq	96(%rsp), %rdi
100000f01:	41 ff c0 	incl	%r8d
100000f04:	0f 01 f9 	rdtscp
100000f07:	48 c1 e2 20 	shlq	$32, %rdx
100000f0b:	48 0b c2 	orq	%rdx, %rax
100000f0e:	89 0f 	movl	%ecx, (%rdi)
100000f10:	49 89 c4 	movq	%rax, %r12
100000f13:	85 db 	testl	%ebx, %ebx
100000f15:	0f 86 ea 00 00 00 	jbe	234 <_main+0x555>
100000f1b:	48 83 fe 10 	cmpq	$16, %rsi
100000f1f:	0f 8c 3c 04 00 00 	jl	1084 <_main+0x8B1>
100000f25:	48 81 fe b9 04 00 00 	cmpq	$1209, %rsi
100000f2c:	0f 8c 36 04 00 00 	jl	1078 <_main+0x8B8>
100000f32:	45 89 f2 	movl	%r14d, %r10d
100000f35:	45 85 f6 	testl	%r14d, %r14d
100000f38:	74 10 	je	16 <_main+0x49A>
100000f3a:	83 7c 24 48 00 	cmpl	$0, 72(%rsp)
100000f3f:	0f 85 1c 04 00 00 	jne	1052 <_main+0x8B1>
100000f45:	44 8b 54 24 28 	movl	40(%rsp), %r10d
100000f4a:	44 89 d2 	movl	%r10d, %edx
100000f4d:	48 8d 7a 10 	leaq	16(%rdx), %rdi
100000f51:	48 3b f7 	cmpq	%rdi, %rsi
100000f54:	0f 8c 07 04 00 00 	jl	1031 <_main+0x8B1>
100000f5a:	44 89 ef 	movl	%r13d, %edi
100000f5d:	33 c0 	xorl	%eax, %eax
100000f5f:	41 2b fa 	subl	%r10d, %edi
100000f62:	83 e7 0f 	andl	$15, %edi
100000f65:	f7 df 	negl	%edi
100000f67:	41 03 fd 	addl	%r13d, %edi
100000f6a:	48 63 ff 	movslq	%edi, %rdi
100000f6d:	45 85 d2 	testl	%r10d, %r10d
100000f70:	76 3b 	jbe	59 <_main+0x4FD>
100000f72:	4c 89 4c 24 58 	movq	%r9, 88(%rsp)
100000f77:	89 5c 24 50 	movl	%ebx, 80(%rsp)
100000f7b:	4c 8b 4c 24 40 	movq	64(%rsp), %r9
100000f80:	4c 8b 54 24 30 	movq	48(%rsp), %r10
100000f85:	4c 8b 5c 24 38 	movq	56(%rsp), %r11
100000f8a:	41 0f b7 1c 43 	movzwl	(%r11,%rax,2), %ebx
100000f8f:	41 0f b7 0c 42 	movzwl	(%r10,%rax,2), %ecx
100000f94:	0f af d9 	imull	%ecx, %ebx
100000f97:	66 41 89 1c 41 	movw	%bx, (%r9,%rax,2)
100000f9c:	48 ff c0 	incq	%rax
100000f9f:	48 3b c2 	cmpq	%rdx, %rax
100000fa2:	72 e6 	jb	-26 <_main+0x4DA>
100000fa4:	4c 8b 4c 24 58 	movq	88(%rsp), %r9
100000fa9:	8b 5c 24 50 	movl	80(%rsp), %ebx
100000fad:	4c 8b 54 24 40 	movq	64(%rsp), %r10
100000fb2:	4c 8b 5c 24 30 	movq	48(%rsp), %r11
100000fb7:	48 8b 44 24 38 	movq	56(%rsp), %rax
100000fbc:	c5 fe 6f 04 50 	vmovdqu	(%rax,%rdx,2), %ymm0
100000fc1:	c4 c1 7d d5 0c 53 	vpmullw	(%r11,%rdx,2), %ymm0, %ymm1
100000fc7:	c4 c1 7e 7f 0c 52 	vmovdqu	%ymm1, (%r10,%rdx,2)
100000fcd:	48 83 c2 10 	addq	$16, %rdx
100000fd1:	48 3b d7 	cmpq	%rdi, %rdx
100000fd4:	72 e6 	jb	-26 <_main+0x50C>
100000fd6:	48 3b fe 	cmpq	%rsi, %rdi
100000fd9:	73 2a 	jae	42 <_main+0x555>
100000fdb:	48 8b 44 24 40 	movq	64(%rsp), %rax
100000fe0:	48 8b 54 24 30 	movq	48(%rsp), %rdx
100000fe5:	48 8b 4c 24 38 	movq	56(%rsp), %rcx
100000fea:	44 0f b7 1c 79 	movzwl	(%rcx,%rdi,2), %r11d
100000fef:	44 0f b7 14 7a 	movzwl	(%rdx,%rdi,2), %r10d
100000ff4:	45 0f af da 	imull	%r10d, %r11d
100000ff8:	66 44 89 1c 78 	movw	%r11w, (%rax,%rdi,2)
100000ffd:	48 ff c7 	incq	%rdi
100001000:	48 3b fe 	cmpq	%rsi, %rdi
100001003:	72 e5 	jb	-27 <_main+0x53A>
100001005:	c5 f8 77 	vzeroupper
100001008:	48 8d 7c 24 64 	leaq	100(%rsp), %rdi
10000100d:	0f 01 f9 	rdtscp
100001010:	48 c1 e2 20 	shlq	$32, %rdx
100001014:	48 0b c2 	orq	%rdx, %rax
100001017:	89 0f 	movl	%ecx, (%rdi)
100001019:	49 2b c4 	subq	%r12, %rax
10000101c:	49 3b c7 	cmpq	%r15, %rax
10000101f:	4c 0f 4f f8 	cmovgq	%rax, %r15
100001023:	4c 03 c8 	addq	%rax, %r9
100001026:	41 81 f8 a0 86 01 00 	cmpl	$100000, %r8d
10000102d:	0f 82 c6 fe ff ff 	jb	-314 <_main+0x449>
100001033:	4c 89 c9 	movq	%r9, %rcx
100001036:	48 8d 3d 23 55 00 00 	leaq	21795(%rip), %rdi
10000103d:	48 89 c8 	movq	%rcx, %rax
100001040:	89 de 	movl	%ebx, %esi
100001042:	48 99 	cqto
100001044:	49 f7 f8 	idivq	%r8
100001047:	48 89 ca 	movq	%rcx, %rdx
10000104a:	41 89 c1 	movl	%eax, %r9d
10000104d:	33 c0 	xorl	%eax, %eax
10000104f:	4c 89 f9 	movq	%r15, %rcx
100001052:	4c 8b 74 24 08 	movq	8(%rsp), %r14
100001057:	4c 8b 64 24 10 	movq	16(%rsp), %r12
10000105c:	4c 8b 6c 24 38 	movq	56(%rsp), %r13
100001061:	e8 26 54 00 00 	callq	21542
100001066:	44 8b 14 24 	movl	(%rsp), %r10d
10000106a:	41 8d 42 07 	leal	7(%r10), %eax
10000106e:	c1 e8 03 	shrl	$3, %eax
100001071:	45 33 c9 	xorl	%r9d, %r9d
100001074:	48 8b 74 24 30 	movq	48(%rsp), %rsi
100001079:	45 33 ff 	xorl	%r15d, %r15d
10000107c:	4c 89 74 24 08 	movq	%r14, 8(%rsp)
100001081:	45 33 c0 	xorl	%r8d, %r8d
100001084:	4c 89 6c 24 38 	movq	%r13, 56(%rsp)
100001089:	41 89 c6 	movl	%eax, %r14d
10000108c:	89 5c 24 50 	movl	%ebx, 80(%rsp)
100001090:	4d 89 e5 	movq	%r12, %r13
100001093:	45 89 d4 	movl	%r10d, %r12d
100001096:	48 8d 7c 24 10 	leaq	16(%rsp), %rdi
10000109b:	41 ff c0 	incl	%r8d
10000109e:	0f 01 f9 	rdtscp
1000010a1:	48 c1 e2 20 	shlq	$32, %rdx
1000010a5:	48 0b c2 	orq	%rdx, %rax
1000010a8:	89 0f 	movl	%ecx, (%rdi)
1000010aa:	48 89 c3 	movq	%rax, %rbx
1000010ad:	45 85 e4 	testl	%r12d, %r12d
1000010b0:	0f 86 be 00 00 00 	jbe	190 <_main+0x6C4>
1000010b6:	4c 8b 5c 24 38 	movq	56(%rsp), %r11
1000010bb:	33 d2 	xorl	%edx, %edx
1000010bd:	8d 3c d5 00 00 00 00 	leal	(,%rdx,8), %edi
1000010c4:	ff c2 	incl	%edx
1000010c6:	48 63 ff 	movslq	%edi, %rdi
1000010c9:	48 c1 e7 04 	shlq	$4, %rdi
1000010cd:	c4 c1 7a 6f 04 3b 	vmovdqu	(%r11,%rdi), %xmm0
1000010d3:	c4 c1 7a 6f 54 3b 10 	vmovdqu	16(%r11,%rdi), %xmm2
1000010da:	c4 c1 7a 6f 64 3b 20 	vmovdqu	32(%r11,%rdi), %xmm4
1000010e1:	c4 c1 7a 6f 74 3b 30 	vmovdqu	48(%r11,%rdi), %xmm6
1000010e8:	c4 41 7a 6f 44 3b 40 	vmovdqu	64(%r11,%rdi), %xmm8
1000010ef:	c4 41 7a 6f 54 3b 50 	vmovdqu	80(%r11,%rdi), %xmm10
1000010f6:	c4 41 7a 6f 64 3b 60 	vmovdqu	96(%r11,%rdi), %xmm12
1000010fd:	c4 41 7a 6f 74 3b 70 	vmovdqu	112(%r11,%rdi), %xmm14
100001104:	c5 f9 d5 0c 3e 	vpmullw	(%rsi,%rdi), %xmm0, %xmm1
100001109:	c5 e9 d5 5c 3e 10 	vpmullw	16(%rsi,%rdi), %xmm2, %xmm3
10000110f:	c5 d9 d5 6c 3e 20 	vpmullw	32(%rsi,%rdi), %xmm4, %xmm5
100001115:	c5 c9 d5 7c 3e 30 	vpmullw	48(%rsi,%rdi), %xmm6, %xmm7
10000111b:	c5 39 d5 4c 3e 40 	vpmullw	64(%rsi,%rdi), %xmm8, %xmm9
100001121:	c5 29 d5 5c 3e 50 	vpmullw	80(%rsi,%rdi), %xmm10, %xmm11
100001127:	c5 19 d5 6c 3e 60 	vpmullw	96(%rsi,%rdi), %xmm12, %xmm13
10000112d:	c5 09 d5 7c 3e 70 	vpmullw	112(%rsi,%rdi), %xmm14, %xmm15
100001133:	c4 c1 7a 7f 4c 3d 00 	vmovdqu	%xmm1, (%r13,%rdi)
10000113a:	c4 c1 7a 7f 5c 3d 10 	vmovdqu	%xmm3, 16(%r13,%rdi)
100001141:	c4 c1 7a 7f 6c 3d 20 	vmovdqu	%xmm5, 32(%r13,%rdi)
100001148:	c4 c1 7a 7f 7c 3d 30 	vmovdqu	%xmm7, 48(%r13,%rdi)
10000114f:	c4 41 7a 7f 4c 3d 40 	vmovdqu	%xmm9, 64(%r13,%rdi)
100001156:	c4 41 7a 7f 5c 3d 50 	vmovdqu	%xmm11, 80(%r13,%rdi)
10000115d:	c4 41 7a 7f 6c 3d 60 	vmovdqu	%xmm13, 96(%r13,%rdi)
100001164:	c4 41 7a 7f 7c 3d 70 	vmovdqu	%xmm15, 112(%r13,%rdi)
10000116b:	41 3b d6 	cmpl	%r14d, %edx
10000116e:	0f 8c 49 ff ff ff 	jl	-183 <_main+0x60D>
100001174:	48 8d 7c 24 14 	leaq	20(%rsp), %rdi
100001179:	0f 01 f9 	rdtscp
10000117c:	48 c1 e2 20 	shlq	$32, %rdx
100001180:	48 0b c2 	orq	%rdx, %rax
100001183:	89 0f 	movl	%ecx, (%rdi)
100001185:	48 2b c3 	subq	%rbx, %rax
100001188:	49 3b c7 	cmpq	%r15, %rax
10000118b:	4c 0f 4f f8 	cmovgq	%rax, %r15
10000118f:	4c 03 c8 	addq	%rax, %r9
100001192:	41 81 f8 a0 86 01 00 	cmpl	$100000, %r8d
100001199:	0f 82 f7 fe ff ff 	jb	-265 <_main+0x5E6>
10000119f:	4c 89 c8 	movq	%r9, %rax
1000011a2:	48 8d 3d d7 53 00 00 	leaq	21463(%rip), %rdi
1000011a9:	4c 89 f9 	movq	%r15, %rcx
1000011ac:	48 99 	cqto
1000011ae:	49 f7 f8 	idivq	%r8
1000011b1:	8b 5c 24 50 	movl	80(%rsp), %ebx
1000011b5:	89 de 	movl	%ebx, %esi
1000011b7:	4c 89 ca 	movq	%r9, %rdx
1000011ba:	41 89 c1 	movl	%eax, %r9d
1000011bd:	33 c0 	xorl	%eax, %eax
1000011bf:	4c 8b 74 24 08 	movq	8(%rsp), %r14
1000011c4:	4c 8b 6c 24 38 	movq	56(%rsp), %r13
1000011c9:	e8 be 52 00 00 	callq	21182
1000011ce:	8b 44 24 18 	movl	24(%rsp), %eax
1000011d2:	45 33 ff 	xorl	%r15d, %r15d
1000011d5:	48 8b 74 24 30 	movq	48(%rsp), %rsi
1000011da:	45 33 e4 	xorl	%r12d, %r12d
1000011dd:	4c 89 6c 24 38 	movq	%r13, 56(%rsp)
1000011e2:	45 33 c0 	xorl	%r8d, %r8d
1000011e5:	89 5c 24 50 	movl	%ebx, 80(%rsp)
1000011e9:	44 8d 48 07 	leal	7(%rax), %r9d
1000011ed:	41 c1 e9 03 	shrl	$3, %r9d
1000011f1:	41 89 c5 	movl	%eax, %r13d
1000011f4:	48 8d 3c 24 	leaq	(%rsp), %rdi
1000011f8:	41 ff c0 	incl	%r8d
1000011fb:	0f 01 f9 	rdtscp
1000011fe:	48 c1 e2 20 	shlq	$32, %rdx
100001202:	48 0b c2 	orq	%rdx, %rax
100001205:	89 0f 	movl	%ecx, (%rdi)
100001207:	48 89 c3 	movq	%rax, %rbx
10000120a:	45 85 ed 	testl	%r13d, %r13d
10000120d:	0f 86 e1 00 00 00 	jbe	225 <_main+0x844>
100001213:	4c 8b 54 24 38 	movq	56(%rsp), %r10
100001218:	33 c0 	xorl	%eax, %eax
10000121a:	8d 3c c5 00 00 00 00 	leal	(,%rax,8), %edi
100001221:	ff c0 	incl	%eax
100001223:	48 63 ff 	movslq	%edi, %rdi
100001226:	48 c1 e7 05 	shlq	$5, %rdi
10000122a:	c4 c1 7e 6f 04 3a 	vmovdqu	(%r10,%rdi), %ymm0
100001230:	c4 c1 7e 6f 54 3a 20 	vmovdqu	32(%r10,%rdi), %ymm2
100001237:	c4 c1 7e 6f 64 3a 40 	vmovdqu	64(%r10,%rdi), %ymm4
10000123e:	c4 c1 7e 6f 74 3a 60 	vmovdqu	96(%r10,%rdi), %ymm6
100001245:	c4 41 7e 6f 84 3a 80 00 00 00 	vmovdqu	128(%r10,%rdi), %ymm8
10000124f:	c4 41 7e 6f 94 3a a0 00 00 00 	vmovdqu	160(%r10,%rdi), %ymm10
100001259:	c4 41 7e 6f a4 3a c0 00 00 00 	vmovdqu	192(%r10,%rdi), %ymm12
100001263:	c4 41 7e 6f b4 3a e0 00 00 00 	vmovdqu	224(%r10,%rdi), %ymm14
10000126d:	c5 fd d5 0c 3e 	vpmullw	(%rsi,%rdi), %ymm0, %ymm1
100001272:	c5 ed d5 5c 3e 20 	vpmullw	32(%rsi,%rdi), %ymm2, %ymm3
100001278:	c5 dd d5 6c 3e 40 	vpmullw	64(%rsi,%rdi), %ymm4, %ymm5
10000127e:	c5 cd d5 7c 3e 60 	vpmullw	96(%rsi,%rdi), %ymm6, %ymm7
100001284:	c5 3d d5 8c 3e 80 00 00 00 	vpmullw	128(%rsi,%rdi), %ymm8, %ymm9
10000128d:	c5 2d d5 9c 3e a0 00 00 00 	vpmullw	160(%rsi,%rdi), %ymm10, %ymm11
100001296:	c5 1d d5 ac 3e c0 00 00 00 	vpmullw	192(%rsi,%rdi), %ymm12, %ymm13
10000129f:	c5 0d d5 bc 3e e0 00 00 00 	vpmullw	224(%rsi,%rdi), %ymm14, %ymm15
1000012a8:	c4 c1 7e 7f 0c 3e 	vmovdqu	%ymm1, (%r14,%rdi)
1000012ae:	c4 c1 7e 7f 5c 3e 20 	vmovdqu	%ymm3, 32(%r14,%rdi)
1000012b5:	c4 c1 7e 7f 6c 3e 40 	vmovdqu	%ymm5, 64(%r14,%rdi)
1000012bc:	c4 c1 7e 7f 7c 3e 60 	vmovdqu	%ymm7, 96(%r14,%rdi)
1000012c3:	c4 41 7e 7f 8c 3e 80 00 00 00 	vmovdqu	%ymm9, 128(%r14,%rdi)
1000012cd:	c4 41 7e 7f 9c 3e a0 00 00 00 	vmovdqu	%ymm11, 160(%r14,%rdi)
1000012d7:	c4 41 7e 7f ac 3e c0 00 00 00 	vmovdqu	%ymm13, 192(%r14,%rdi)
1000012e1:	c4 41 7e 7f bc 3e e0 00 00 00 	vmovdqu	%ymm15, 224(%r14,%rdi)
1000012eb:	41 3b c1 	cmpl	%r9d, %eax
1000012ee:	0f 8c 26 ff ff ff 	jl	-218 <_main+0x76A>
1000012f4:	c5 f8 77 	vzeroupper
1000012f7:	48 8d 7c 24 04 	leaq	4(%rsp), %rdi
1000012fc:	0f 01 f9 	rdtscp
1000012ff:	48 c1 e2 20 	shlq	$32, %rdx
100001303:	48 0b c2 	orq	%rdx, %rax
100001306:	89 0f 	movl	%ecx, (%rdi)
100001308:	48 2b c3 	subq	%rbx, %rax
10000130b:	49 3b c4 	cmpq	%r12, %rax
10000130e:	4c 0f 4f e0 	cmovgq	%rax, %r12
100001312:	4c 03 f8 	addq	%rax, %r15
100001315:	41 81 f8 a0 86 01 00 	cmpl	$100000, %r8d
10000131c:	0f 82 d2 fe ff ff 	jb	-302 <_main+0x744>
100001322:	4c 89 f8 	movq	%r15, %rax
100001325:	48 8d 3d 74 52 00 00 	leaq	21108(%rip), %rdi
10000132c:	4c 89 e1 	movq	%r12, %rcx
10000132f:	48 99 	cqto
100001331:	49 f7 f8 	idivq	%r8
100001334:	8b 5c 24 50 	movl	80(%rsp), %ebx
100001338:	89 de 	movl	%ebx, %esi
10000133a:	4c 89 fa 	movq	%r15, %rdx
10000133d:	41 89 c1 	movl	%eax, %r9d
100001340:	33 c0 	xorl	%eax, %eax
100001342:	e8 45 51 00 00 	callq	20805
100001347:	c5 f8 77 	vzeroupper
10000134a:	33 c0 	xorl	%eax, %eax
10000134c:	48 81 c4 d8 00 00 00 	addq	$216, %rsp
100001353:	5b 	popq	%rbx
100001354:	41 5f 	popq	%r15
100001356:	41 5e 	popq	%r14
100001358:	41 5d 	popq	%r13
10000135a:	41 5c 	popq	%r12
10000135c:	48 89 ec 	movq	%rbp, %rsp
10000135f:	5d 	popq	%rbp
100001360:	c3 	retq
100001361:	33 ff 	xorl	%edi, %edi
100001363:	e9 6e fc ff ff 	jmp	-914 <_main+0x526>
100001368:	48 8b 7c 24 20 	movq	32(%rsp), %rdi
10000136d:	33 d2 	xorl	%edx, %edx
10000136f:	e9 39 fc ff ff 	jmp	-967 <_main+0x4FD>
100001374:	33 d2 	xorl	%edx, %edx
100001376:	e9 ff f8 ff ff 	jmp	-1793 <_main+0x1CA>
10000137b:	89 ca 	movl	%ecx, %edx
10000137d:	33 c0 	xorl	%eax, %eax
10000137f:	83 e2 f0 	andl	$-16, %edx
100001382:	48 63 d2 	movslq	%edx, %rdx
100001385:	e9 d0 f8 ff ff 	jmp	-1840 <_main+0x1AA>
10000138a:	66 0f 1f 44 00 00 	nopw	(%rax,%rax)

_print128_num:
100001390:	48 83 ec 18 	subq	$24, %rsp
100001394:	48 8d 3d 25 52 00 00 	leaq	21029(%rip), %rdi
10000139b:	c5 fa 7f 04 24 	vmovdqu	%xmm0, (%rsp)
1000013a0:	48 83 c4 e0 	addq	$-32, %rsp
1000013a4:	0f bf 44 24 2a 	movswl	42(%rsp), %eax
1000013a9:	44 0f bf 54 24 2c 	movswl	44(%rsp), %r10d
1000013af:	44 0f bf 5c 24 2e 	movswl	46(%rsp), %r11d
1000013b5:	89 04 24 	movl	%eax, (%rsp)
1000013b8:	33 c0 	xorl	%eax, %eax
1000013ba:	0f bf 74 24 20 	movswl	32(%rsp), %esi
1000013bf:	0f bf 54 24 22 	movswl	34(%rsp), %edx
1000013c4:	0f bf 4c 24 24 	movswl	36(%rsp), %ecx
1000013c9:	44 0f bf 44 24 26 	movswl	38(%rsp), %r8d
1000013cf:	44 0f bf 4c 24 28 	movswl	40(%rsp), %r9d
1000013d5:	44 89 54 24 08 	movl	%r10d, 8(%rsp)
1000013da:	44 89 5c 24 10 	movl	%r11d, 16(%rsp)
1000013df:	e8 a8 50 00 00 	callq	20648
1000013e4:	48 83 c4 20 	addq	$32, %rsp
1000013e8:	48 83 c4 18 	addq	$24, %rsp
1000013ec:	c3 	retq
1000013ed:	0f 1f 00 	nopl	(%rax)

_componentwise_multiply_real_scalar:
1000013f0:	49 89 d1 	movq	%rdx, %r9
1000013f3:	49 89 f0 	movq	%rsi, %r8
1000013f6:	33 f6 	xorl	%esi, %esi
1000013f8:	85 c9 	testl	%ecx, %ecx
1000013fa:	0f 86 2e 01 00 00 	jbe	302 <_componentwise_multiply_real_scalar+0x13E>
100001400:	8d 41 07 	leal	7(%rcx), %eax
100001403:	c1 f8 02 	sarl	$2, %eax
100001406:	c1 e8 1d 	shrl	$29, %eax
100001409:	8d 4c 01 07 	leal	7(%rcx,%rax), %ecx
10000140d:	c1 f9 03 	sarl	$3, %ecx
100001410:	8d 14 f5 00 00 00 00 	leal	(,%rsi,8), %edx
100001417:	48 63 d2 	movslq	%edx, %rdx
10000141a:	48 8d 04 57 	leaq	(%rdi,%rdx,2), %rax
10000141e:	4d 8d 14 51 	leaq	(%r9,%rdx,2), %r10
100001422:	4c 3b d0 	cmpq	%rax, %r10
100001425:	76 0e 	jbe	14 <_componentwise_multiply_real_scalar+0x45>
100001427:	48 f7 d8 	negq	%rax
10000142a:	49 03 c2 	addq	%r10, %rax
10000142d:	48 83 f8 10 	cmpq	$16, %rax
100001431:	7d 10 	jge	16 <_componentwise_multiply_real_scalar+0x53>
100001433:	eb 46 	jmp	70 <_componentwise_multiply_real_scalar+0x8B>
100001435:	49 3b c2 	cmpq	%r10, %rax
100001438:	76 41 	jbe	65 <_componentwise_multiply_real_scalar+0x8B>
10000143a:	49 2b c2 	subq	%r10, %rax
10000143d:	48 83 f8 10 	cmpq	$16, %rax
100001441:	7c 38 	jl	56 <_componentwise_multiply_real_scalar+0x8B>
100001443:	49 8d 04 50 	leaq	(%r8,%rdx,2), %rax
100001447:	4c 3b d0 	cmpq	%rax, %r10
10000144a:	76 0b 	jbe	11 <_componentwise_multiply_real_scalar+0x67>
10000144c:	4c 2b d0 	subq	%rax, %r10
10000144f:	49 83 fa 10 	cmpq	$16, %r10
100001453:	7d 10 	jge	16 <_componentwise_multiply_real_scalar+0x75>
100001455:	eb 24 	jmp	36 <_componentwise_multiply_real_scalar+0x8B>
100001457:	49 3b c2 	cmpq	%r10, %rax
10000145a:	76 1f 	jbe	31 <_componentwise_multiply_real_scalar+0x8B>
10000145c:	49 2b c2 	subq	%r10, %rax
10000145f:	48 83 f8 10 	cmpq	$16, %rax
100001463:	7c 16 	jl	22 <_componentwise_multiply_real_scalar+0x8B>
100001465:	c5 fa 6f 04 57 	vmovdqu	(%rdi,%rdx,2), %xmm0
10000146a:	c4 c1 79 d5 0c 50 	vpmullw	(%r8,%rdx,2), %xmm0, %xmm1
100001470:	c4 c1 7a 7f 0c 51 	vmovdqu	%xmm1, (%r9,%rdx,2)
100001476:	e9 a9 00 00 00 	jmp	169 <_componentwise_multiply_real_scalar+0x134>
10000147b:	44 0f b7 1c 57 	movzwl	(%rdi,%rdx,2), %r11d
100001480:	49 8d 04 51 	leaq	(%r9,%rdx,2), %rax
100001484:	45 0f b7 14 50 	movzwl	(%r8,%rdx,2), %r10d
100001489:	45 0f af da 	imull	%r10d, %r11d
10000148d:	66 44 89 18 	movw	%r11w, (%rax)
100001491:	44 0f b7 5c 57 02 	movzwl	2(%rdi,%rdx,2), %r11d
100001497:	45 0f b7 54 50 02 	movzwl	2(%r8,%rdx,2), %r10d
10000149d:	45 0f af da 	imull	%r10d, %r11d
1000014a1:	66 44 89 58 02 	movw	%r11w, 2(%rax)
1000014a6:	44 0f b7 5c 57 04 	movzwl	4(%rdi,%rdx,2), %r11d
1000014ac:	45 0f b7 54 50 04 	movzwl	4(%r8,%rdx,2), %r10d
1000014b2:	45 0f af da 	imull	%r10d, %r11d
1000014b6:	66 44 89 58 04 	movw	%r11w, 4(%rax)
1000014bb:	44 0f b7 5c 57 06 	movzwl	6(%rdi,%rdx,2), %r11d
1000014c1:	45 0f b7 54 50 06 	movzwl	6(%r8,%rdx,2), %r10d
1000014c7:	45 0f af da 	imull	%r10d, %r11d
1000014cb:	66 44 89 58 06 	movw	%r11w, 6(%rax)
1000014d0:	44 0f b7 5c 57 08 	movzwl	8(%rdi,%rdx,2), %r11d
1000014d6:	45 0f b7 54 50 08 	movzwl	8(%r8,%rdx,2), %r10d
1000014dc:	45 0f af da 	imull	%r10d, %r11d
1000014e0:	66 44 89 58 08 	movw	%r11w, 8(%rax)
1000014e5:	44 0f b7 5c 57 0a 	movzwl	10(%rdi,%rdx,2), %r11d
1000014eb:	45 0f b7 54 50 0a 	movzwl	10(%r8,%rdx,2), %r10d
1000014f1:	45 0f af da 	imull	%r10d, %r11d
1000014f5:	66 44 89 58 0a 	movw	%r11w, 10(%rax)
1000014fa:	44 0f b7 5c 57 0c 	movzwl	12(%rdi,%rdx,2), %r11d
100001500:	45 0f b7 54 50 0c 	movzwl	12(%r8,%rdx,2), %r10d
100001506:	45 0f af da 	imull	%r10d, %r11d
10000150a:	66 44 89 58 0c 	movw	%r11w, 12(%rax)
10000150f:	44 0f b7 54 57 0e 	movzwl	14(%rdi,%rdx,2), %r10d
100001515:	41 0f b7 54 50 0e 	movzwl	14(%r8,%rdx,2), %edx
10000151b:	44 0f af d2 	imull	%edx, %r10d
10000151f:	66 44 89 50 0e 	movw	%r10w, 14(%rax)
100001524:	ff c6 	incl	%esi
100001526:	3b f1 	cmpl	%ecx, %esi
100001528:	0f 82 e2 fe ff ff 	jb	-286 <_componentwise_multiply_real_scalar+0x20>
10000152e:	c3 	retq
10000152f:	90 	nop

_componentwise_multiply_real_sse4:
100001530:	49 89 f0 	movq	%rsi, %r8
100001533:	c1 e9 03 	shrl	$3, %ecx
100001536:	33 f6 	xorl	%esi, %esi
100001538:	33 c0 	xorl	%eax, %eax
10000153a:	85 c9 	testl	%ecx, %ecx
10000153c:	0f 86 ac 00 00 00 	jbe	172 <_componentwise_multiply_real_sse4+0xBE>
100001542:	c5 fa 6f 04 38 	vmovdqu	(%rax,%rdi), %xmm0
100001547:	4c 8d 0c 10 	leaq	(%rax,%rdx), %r9
10000154b:	c4 a1 79 d5 0c 00 	vpmullw	(%rax,%r8), %xmm0, %xmm1
100001551:	48 83 c6 08 	addq	$8, %rsi
100001555:	c4 c1 7a 7f 09 	vmovdqu	%xmm1, (%r9)
10000155a:	c5 fa 6f 54 38 10 	vmovdqu	16(%rax,%rdi), %xmm2
100001560:	c4 a1 69 d5 5c 00 10 	vpmullw	16(%rax,%r8), %xmm2, %xmm3
100001567:	c4 c1 7a 7f 59 10 	vmovdqu	%xmm3, 16(%r9)
10000156d:	c5 fa 6f 64 38 20 	vmovdqu	32(%rax,%rdi), %xmm4
100001573:	c4 a1 59 d5 6c 00 20 	vpmullw	32(%rax,%r8), %xmm4, %xmm5
10000157a:	c4 c1 7a 7f 69 20 	vmovdqu	%xmm5, 32(%r9)
100001580:	c5 fa 6f 74 38 30 	vmovdqu	48(%rax,%rdi), %xmm6
100001586:	c4 a1 49 d5 7c 00 30 	vpmullw	48(%rax,%r8), %xmm6, %xmm7
10000158d:	c4 c1 7a 7f 79 30 	vmovdqu	%xmm7, 48(%r9)
100001593:	c5 7a 6f 44 38 40 	vmovdqu	64(%rax,%rdi), %xmm8
100001599:	c4 21 39 d5 4c 00 40 	vpmullw	64(%rax,%r8), %xmm8, %xmm9
1000015a0:	c4 41 7a 7f 49 40 	vmovdqu	%xmm9, 64(%r9)
1000015a6:	c5 7a 6f 54 38 50 	vmovdqu	80(%rax,%rdi), %xmm10
1000015ac:	c4 21 29 d5 5c 00 50 	vpmullw	80(%rax,%r8), %xmm10, %xmm11
1000015b3:	c4 41 7a 7f 59 50 	vmovdqu	%xmm11, 80(%r9)
1000015b9:	c5 7a 6f 64 38 60 	vmovdqu	96(%rax,%rdi), %xmm12
1000015bf:	c4 21 19 d5 6c 00 60 	vpmullw	96(%rax,%r8), %xmm12, %xmm13
1000015c6:	c4 41 7a 7f 69 60 	vmovdqu	%xmm13, 96(%r9)
1000015cc:	c5 7a 6f 74 38 70 	vmovdqu	112(%rax,%rdi), %xmm14
1000015d2:	c4 21 09 d5 7c 00 70 	vpmullw	112(%rax,%r8), %xmm14, %xmm15
1000015d9:	48 05 80 00 00 00 	addq	$128, %rax
1000015df:	c4 41 7a 7f 79 70 	vmovdqu	%xmm15, 112(%r9)
1000015e5:	48 3b f1 	cmpq	%rcx, %rsi
1000015e8:	0f 82 54 ff ff ff 	jb	-172 <_componentwise_multiply_real_sse4+0x12>
1000015ee:	c3 	retq
1000015ef:	90 	nop

_componentwise_multiply_real_avx2:
1000015f0:	49 89 f0 	movq	%rsi, %r8
1000015f3:	c1 e9 04 	shrl	$4, %ecx
1000015f6:	33 f6 	xorl	%esi, %esi
1000015f8:	33 c0 	xorl	%eax, %eax
1000015fa:	85 c9 	testl	%ecx, %ecx
1000015fc:	0f 86 d0 00 00 00 	jbe	208 <_componentwise_multiply_real_avx2+0xE2>
100001602:	c5 fe 6f 04 38 	vmovdqu	(%rax,%rdi), %ymm0
100001607:	4c 8d 0c 10 	leaq	(%rax,%rdx), %r9
10000160b:	c4 a1 7d d5 0c 00 	vpmullw	(%rax,%r8), %ymm0, %ymm1
100001611:	48 83 c6 08 	addq	$8, %rsi
100001615:	c4 c1 7e 7f 09 	vmovdqu	%ymm1, (%r9)
10000161a:	c5 fe 6f 54 38 20 	vmovdqu	32(%rax,%rdi), %ymm2
100001620:	c4 a1 6d d5 5c 00 20 	vpmullw	32(%rax,%r8), %ymm2, %ymm3
100001627:	c4 c1 7e 7f 59 20 	vmovdqu	%ymm3, 32(%r9)
10000162d:	c5 fe 6f 64 38 40 	vmovdqu	64(%rax,%rdi), %ymm4
100001633:	c4 a1 5d d5 6c 00 40 	vpmullw	64(%rax,%r8), %ymm4, %ymm5
10000163a:	c4 c1 7e 7f 69 40 	vmovdqu	%ymm5, 64(%r9)
100001640:	c5 fe 6f 74 38 60 	vmovdqu	96(%rax,%rdi), %ymm6
100001646:	c4 a1 4d d5 7c 00 60 	vpmullw	96(%rax,%r8), %ymm6, %ymm7
10000164d:	c4 c1 7e 7f 79 60 	vmovdqu	%ymm7, 96(%r9)
100001653:	c5 7e 6f 84 38 80 00 00 00 	vmovdqu	128(%rax,%rdi), %ymm8
10000165c:	c4 21 3d d5 8c 00 80 00 00 00 	vpmullw	128(%rax,%r8), %ymm8, %ymm9
100001666:	c4 41 7e 7f 89 80 00 00 00 	vmovdqu	%ymm9, 128(%r9)
10000166f:	c5 7e 6f 94 38 a0 00 00 00 	vmovdqu	160(%rax,%rdi), %ymm10
100001678:	c4 21 2d d5 9c 00 a0 00 00 00 	vpmullw	160(%rax,%r8), %ymm10, %ymm11
100001682:	c4 41 7e 7f 99 a0 00 00 00 	vmovdqu	%ymm11, 160(%r9)
10000168b:	c5 7e 6f a4 38 c0 00 00 00 	vmovdqu	192(%rax,%rdi), %ymm12
100001694:	c4 21 1d d5 ac 00 c0 00 00 00 	vpmullw	192(%rax,%r8), %ymm12, %ymm13
10000169e:	c4 41 7e 7f a9 c0 00 00 00 	vmovdqu	%ymm13, 192(%r9)
1000016a7:	c5 7e 6f b4 38 e0 00 00 00 	vmovdqu	224(%rax,%rdi), %ymm14
1000016b0:	c4 21 0d d5 bc 00 e0 00 00 00 	vpmullw	224(%rax,%r8), %ymm14, %ymm15
1000016ba:	48 05 00 01 00 00 	addq	$256, %rax
1000016c0:	c4 41 7e 7f b9 e0 00 00 00 	vmovdqu	%ymm15, 224(%r9)
1000016c9:	48 3b f1 	cmpq	%rcx, %rsi
1000016cc:	0f 82 30 ff ff ff 	jb	-208 <_componentwise_multiply_real_avx2+0x12>
1000016d2:	c5 f8 77 	vzeroupper
1000016d5:	c3 	retq
1000016d6:	0f 1f 00 	nopl	(%rax)
1000016d9:	0f 1f 80 00 00 00 00 	nopl	(%rax)

_test_routines:
1000016e0:	55 	pushq	%rbp
1000016e1:	48 89 e5 	movq	%rsp, %rbp
1000016e4:	48 83 e4 e0 	andq	$-32, %rsp
1000016e8:	41 54 	pushq	%r12
1000016ea:	41 55 	pushq	%r13
1000016ec:	41 56 	pushq	%r14
1000016ee:	41 57 	pushq	%r15
1000016f0:	53 	pushq	%rbx
1000016f1:	48 83 ec 58 	subq	$88, %rsp
1000016f5:	41 89 fe 	movl	%edi, %r14d
1000016f8:	89 f7 	movl	%esi, %edi
1000016fa:	e8 a5 4d 00 00 	callq	19877
1000016ff:	45 89 f7 	movl	%r14d, %r15d
100001702:	4d 03 ff 	addq	%r15, %r15
100001705:	4c 89 ff 	movq	%r15, %rdi
100001708:	e8 79 4d 00 00 	callq	19833
10000170d:	49 89 c5 	movq	%rax, %r13
100001710:	4c 89 ff 	movq	%r15, %rdi
100001713:	e8 6e 4d 00 00 	callq	19822
100001718:	48 89 c3 	movq	%rax, %rbx
10000171b:	4c 89 ff 	movq	%r15, %rdi
10000171e:	e8 63 4d 00 00 	callq	19811
100001723:	49 89 c4 	movq	%rax, %r12
100001726:	4c 89 ff 	movq	%r15, %rdi
100001729:	e8 58 4d 00 00 	callq	19800
10000172e:	48 89 44 24 20 	movq	%rax, 32(%rsp)
100001733:	4c 89 ff 	movq	%r15, %rdi
100001736:	e8 4b 4d 00 00 	callq	19787
10000173b:	48 89 44 24 18 	movq	%rax, 24(%rsp)
100001740:	4d 85 ed 	testq	%r13, %r13
100001743:	0f 84 47 08 00 00 	je	2119 <_test_routines+0x8B0>
100001749:	48 85 db 	testq	%rbx, %rbx
10000174c:	0f 84 3e 08 00 00 	je	2110 <_test_routines+0x8B0>
100001752:	4d 85 e4 	testq	%r12, %r12
100001755:	0f 84 35 08 00 00 	je	2101 <_test_routines+0x8B0>
10000175b:	48 83 7c 24 20 00 	cmpq	$0, 32(%rsp)
100001761:	0f 84 29 08 00 00 	je	2089 <_test_routines+0x8B0>
100001767:	48 83 7c 24 18 00 	cmpq	$0, 24(%rsp)
10000176d:	0f 84 1d 08 00 00 	je	2077 <_test_routines+0x8B0>
100001773:	33 d2 	xorl	%edx, %edx
100001775:	45 85 f6 	testl	%r14d, %r14d
100001778:	0f 86 d0 07 00 00 	jbe	2000 <_test_routines+0x86E>
10000177e:	b8 01 00 00 00 	movl	$1, %eax
100001783:	4d 63 fe 	movslq	%r14d, %r15
100001786:	4c 89 24 24 	movq	%r12, (%rsp)
10000178a:	49 89 d4 	movq	%rdx, %r12
10000178d:	44 89 74 24 08 	movl	%r14d, 8(%rsp)
100001792:	41 89 c6 	movl	%eax, %r14d
100001795:	66 47 89 74 65 00 	movw	%r14w, (%r13,%r12,2)
10000179b:	e8 f8 4c 00 00 	callq	19704
1000017a0:	66 42 89 04 63 	movw	%ax, (%rbx,%r12,2)
1000017a5:	49 ff c4 	incq	%r12
1000017a8:	4d 3b e7 	cmpq	%r15, %r12
1000017ab:	72 e8 	jb	-24 <_test_routines+0xB5>
1000017ad:	44 8b 74 24 08 	movl	8(%rsp), %r14d
1000017b2:	41 8d 46 07 	leal	7(%r14), %eax
1000017b6:	c1 f8 02 	sarl	$2, %eax
1000017b9:	c1 e8 1d 	shrl	$29, %eax
1000017bc:	4c 8b 24 24 	movq	(%rsp), %r12
1000017c0:	42 8d 54 30 07 	leal	7(%rax,%r14), %edx
1000017c5:	48 63 d2 	movslq	%edx, %rdx
1000017c8:	48 83 e2 f8 	andq	$-8, %rdx
1000017cc:	48 83 fa 10 	cmpq	$16, %rdx
1000017d0:	0f 8c 62 07 00 00 	jl	1890 <_test_routines+0x858>
1000017d6:	48 81 fa b9 04 00 00 	cmpq	$1209, %rdx
1000017dd:	0f 8c 5c 07 00 00 	jl	1884 <_test_routines+0x85F>
1000017e3:	4c 89 e1 	movq	%r12, %rcx
1000017e6:	48 83 e1 1f 	andq	$31, %rcx
1000017ea:	85 c9 	testl	%ecx, %ecx
1000017ec:	74 10 	je	16 <_test_routines+0x11E>
1000017ee:	f6 c1 01 	testb	$1, %cl
1000017f1:	0f 85 41 07 00 00 	jne	1857 <_test_routines+0x858>
1000017f7:	f7 d9 	negl	%ecx
1000017f9:	83 c1 20 	addl	$32, %ecx
1000017fc:	d1 e9 	shrl	%ecx
1000017fe:	89 c8 	movl	%ecx, %eax
100001800:	48 8d 78 10 	leaq	16(%rax), %rdi
100001804:	48 3b d7 	cmpq	%rdi, %rdx
100001807:	0f 8c 2b 07 00 00 	jl	1835 <_test_routines+0x858>
10000180d:	89 d7 	movl	%edx, %edi
10000180f:	41 89 f8 	movl	%edi, %r8d
100001812:	44 2b c1 	subl	%ecx, %r8d
100001815:	41 83 e0 0f 	andl	$15, %r8d
100001819:	41 2b f8 	subl	%r8d, %edi
10000181c:	48 63 ff 	movslq	%edi, %rdi
10000181f:	85 c9 	testl	%ecx, %ecx
100001821:	b9 00 00 00 00 	movl	$0, %ecx
100001826:	76 1c 	jbe	28 <_test_routines+0x164>
100001828:	45 0f b7 4c 4d 00 	movzwl	(%r13,%rcx,2), %r9d
10000182e:	44 0f b7 04 4b 	movzwl	(%rbx,%rcx,2), %r8d
100001833:	45 0f af c8 	imull	%r8d, %r9d
100001837:	66 45 89 0c 4c 	movw	%r9w, (%r12,%rcx,2)
10000183c:	48 ff c1 	incq	%rcx
10000183f:	48 3b c8 	cmpq	%rax, %rcx
100001842:	72 e4 	jb	-28 <_test_routines+0x148>
100001844:	c4 c1 7e 6f 44 45 00 	vmovdqu	(%r13,%rax,2), %ymm0
10000184b:	c5 fd d5 0c 43 	vpmullw	(%rbx,%rax,2), %ymm0, %ymm1
100001850:	c4 c1 7e 7f 0c 44 	vmovdqu	%ymm1, (%r12,%rax,2)
100001856:	48 83 c0 10 	addq	$16, %rax
10000185a:	48 3b c7 	cmpq	%rdi, %rax
10000185d:	72 e5 	jb	-27 <_test_routines+0x164>
10000185f:	48 3b fa 	cmpq	%rdx, %rdi
100001862:	73 1a 	jae	26 <_test_routines+0x19E>
100001864:	41 0f b7 4c 7d 00 	movzwl	(%r13,%rdi,2), %ecx
10000186a:	0f b7 04 7b 	movzwl	(%rbx,%rdi,2), %eax
10000186e:	0f af c8 	imull	%eax, %ecx
100001871:	66 41 89 0c 7c 	movw	%cx, (%r12,%rdi,2)
100001876:	48 ff c7 	incq	%rdi
100001879:	48 3b fa 	cmpq	%rdx, %rdi
10000187c:	72 e6 	jb	-26 <_test_routines+0x184>
10000187e:	44 89 f0 	movl	%r14d, %eax
100001881:	c1 e8 03 	shrl	$3, %eax
100001884:	89 44 24 10 	movl	%eax, 16(%rsp)
100001888:	85 c0 	testl	%eax, %eax
10000188a:	0f 86 92 06 00 00 	jbe	1682 <_test_routines+0x842>
100001890:	33 c9 	xorl	%ecx, %ecx
100001892:	8b 54 24 10 	movl	16(%rsp), %edx
100001896:	33 c0 	xorl	%eax, %eax
100001898:	4c 8b 44 24 20 	movq	32(%rsp), %r8
10000189d:	c4 a1 7a 6f 04 28 	vmovdqu	(%rax,%r13), %xmm0
1000018a3:	48 83 c1 08 	addq	$8, %rcx
1000018a7:	c4 a1 7a 6f 4c 28 10 	vmovdqu	16(%rax,%r13), %xmm1
1000018ae:	4a 8d 3c 00 	leaq	(%rax,%r8), %rdi
1000018b2:	c4 a1 7a 6f 54 28 20 	vmovdqu	32(%rax,%r13), %xmm2
1000018b9:	c4 a1 7a 6f 5c 28 30 	vmovdqu	48(%rax,%r13), %xmm3
1000018c0:	c4 a1 7a 6f 64 28 40 	vmovdqu	64(%rax,%r13), %xmm4
1000018c7:	c4 a1 7a 6f 6c 28 50 	vmovdqu	80(%rax,%r13), %xmm5
1000018ce:	c4 a1 7a 6f 74 28 60 	vmovdqu	96(%rax,%r13), %xmm6
1000018d5:	c4 a1 7a 6f 7c 28 70 	vmovdqu	112(%rax,%r13), %xmm7
1000018dc:	c5 79 d5 04 18 	vpmullw	(%rax,%rbx), %xmm0, %xmm8
1000018e1:	c5 71 d5 4c 18 10 	vpmullw	16(%rax,%rbx), %xmm1, %xmm9
1000018e7:	c5 69 d5 54 18 20 	vpmullw	32(%rax,%rbx), %xmm2, %xmm10
1000018ed:	c5 61 d5 5c 18 30 	vpmullw	48(%rax,%rbx), %xmm3, %xmm11
1000018f3:	c5 59 d5 64 18 40 	vpmullw	64(%rax,%rbx), %xmm4, %xmm12
1000018f9:	c5 51 d5 6c 18 50 	vpmullw	80(%rax,%rbx), %xmm5, %xmm13
1000018ff:	c5 49 d5 74 18 60 	vpmullw	96(%rax,%rbx), %xmm6, %xmm14
100001905:	c5 41 d5 7c 18 70 	vpmullw	112(%rax,%rbx), %xmm7, %xmm15
10000190b:	48 05 80 00 00 00 	addq	$128, %rax
100001911:	c5 7a 7f 07 	vmovdqu	%xmm8, (%rdi)
100001915:	c5 7a 7f 4f 10 	vmovdqu	%xmm9, 16(%rdi)
10000191a:	c5 7a 7f 57 20 	vmovdqu	%xmm10, 32(%rdi)
10000191f:	c5 7a 7f 5f 30 	vmovdqu	%xmm11, 48(%rdi)
100001924:	c5 7a 7f 67 40 	vmovdqu	%xmm12, 64(%rdi)
100001929:	c5 7a 7f 6f 50 	vmovdqu	%xmm13, 80(%rdi)
10000192e:	c5 7a 7f 77 60 	vmovdqu	%xmm14, 96(%rdi)
100001933:	c5 7a 7f 7f 70 	vmovdqu	%xmm15, 112(%rdi)
100001938:	48 3b ca 	cmpq	%rdx, %rcx
10000193b:	0f 82 5c ff ff ff 	jb	-164 <_test_routines+0x1BD>
100001941:	44 89 f0 	movl	%r14d, %eax
100001944:	c1 e8 04 	shrl	$4, %eax
100001947:	89 04 24 	movl	%eax, (%rsp)
10000194a:	85 c0 	testl	%eax, %eax
10000194c:	0f 86 d8 00 00 00 	jbe	216 <_test_routines+0x34A>
100001952:	33 c9 	xorl	%ecx, %ecx
100001954:	8b 14 24 	movl	(%rsp), %edx
100001957:	33 c0 	xorl	%eax, %eax
100001959:	48 8b 7c 24 18 	movq	24(%rsp), %rdi
10000195e:	c4 a1 7e 6f 04 28 	vmovdqu	(%rax,%r13), %ymm0
100001964:	48 83 c1 08 	addq	$8, %rcx
100001968:	c4 a1 7e 6f 54 28 20 	vmovdqu	32(%rax,%r13), %ymm2
10000196f:	c4 a1 7e 6f 64 28 40 	vmovdqu	64(%rax,%r13), %ymm4
100001976:	c4 a1 7e 6f 74 28 60 	vmovdqu	96(%rax,%r13), %ymm6
10000197d:	c4 21 7e 6f 84 28 80 00 00 00 	vmovdqu	128(%rax,%r13), %ymm8
100001987:	c4 21 7e 6f 94 28 a0 00 00 00 	vmovdqu	160(%rax,%r13), %ymm10
100001991:	c4 21 7e 6f a4 28 c0 00 00 00 	vmovdqu	192(%rax,%r13), %ymm12
10000199b:	c4 21 7e 6f b4 28 e0 00 00 00 	vmovdqu	224(%rax,%r13), %ymm14
1000019a5:	c5 fd d5 0c 18 	vpmullw	(%rax,%rbx), %ymm0, %ymm1
1000019aa:	c5 ed d5 5c 18 20 	vpmullw	32(%rax,%rbx), %ymm2, %ymm3
1000019b0:	c5 dd d5 6c 18 40 	vpmullw	64(%rax,%rbx), %ymm4, %ymm5
1000019b6:	c5 cd d5 7c 18 60 	vpmullw	96(%rax,%rbx), %ymm6, %ymm7
1000019bc:	c5 3d d5 8c 18 80 00 00 00 	vpmullw	128(%rax,%rbx), %ymm8, %ymm9
1000019c5:	c5 2d d5 9c 18 a0 00 00 00 	vpmullw	160(%rax,%rbx), %ymm10, %ymm11
1000019ce:	c5 1d d5 ac 18 c0 00 00 00 	vpmullw	192(%rax,%rbx), %ymm12, %ymm13
1000019d7:	c5 0d d5 bc 18 e0 00 00 00 	vpmullw	224(%rax,%rbx), %ymm14, %ymm15
1000019e0:	c5 fe 7f 0c 38 	vmovdqu	%ymm1, (%rax,%rdi)
1000019e5:	c5 fe 7f 5c 38 20 	vmovdqu	%ymm3, 32(%rax,%rdi)
1000019eb:	c5 fe 7f 6c 38 40 	vmovdqu	%ymm5, 64(%rax,%rdi)
1000019f1:	c5 fe 7f 7c 38 60 	vmovdqu	%ymm7, 96(%rax,%rdi)
1000019f7:	c5 7e 7f 8c 38 80 00 00 00 	vmovdqu	%ymm9, 128(%rax,%rdi)
100001a00:	c5 7e 7f 9c 38 a0 00 00 00 	vmovdqu	%ymm11, 160(%rax,%rdi)
100001a09:	c5 7e 7f ac 38 c0 00 00 00 	vmovdqu	%ymm13, 192(%rax,%rdi)
100001a12:	c5 7e 7f bc 38 e0 00 00 00 	vmovdqu	%ymm15, 224(%rax,%rdi)
100001a1b:	48 05 00 01 00 00 	addq	$256, %rax
100001a21:	48 3b ca 	cmpq	%rdx, %rcx
100001a24:	0f 82 34 ff ff ff 	jb	-204 <_test_routines+0x27E>
100001a2a:	45 85 f6 	testl	%r14d, %r14d
100001a2d:	0f 86 be 04 00 00 	jbe	1214 <_test_routines+0x811>
100001a33:	4d 63 fe 	movslq	%r14d, %r15
100001a36:	48 8b 7c 24 18 	movq	24(%rsp), %rdi
100001a3b:	33 c0 	xorl	%eax, %eax
100001a3d:	4c 8b 44 24 20 	movq	32(%rsp), %r8
100001a42:	41 0f bf 0c 44 	movswl	(%r12,%rax,2), %ecx
100001a47:	41 0f bf 14 40 	movswl	(%r8,%rax,2), %edx
100001a4c:	3b ca 	cmpl	%edx, %ecx
100001a4e:	0f 85 22 05 00 00 	jne	1314 <_test_routines+0x896>
100001a54:	0f bf 14 47 	movswl	(%rdi,%rax,2), %edx
100001a58:	3b ca 	cmpl	%edx, %ecx
100001a5a:	0f 85 16 05 00 00 	jne	1302 <_test_routines+0x896>
100001a60:	48 ff c0 	incq	%rax
100001a63:	49 3b c7 	cmpq	%r15, %rax
100001a66:	72 da 	jb	-38 <_test_routines+0x362>
100001a68:	45 33 ff 	xorl	%r15d, %r15d
100001a6b:	be 01 00 00 00 	movl	$1, %esi
100001a70:	45 33 c0 	xorl	%r8d, %r8d
100001a73:	48 8d 7c 24 38 	leaq	56(%rsp), %rdi
100001a78:	41 89 f1 	movl	%esi, %r9d
100001a7b:	c5 f8 77 	vzeroupper
100001a7e:	0f 01 f9 	rdtscp
100001a81:	48 c1 e2 20 	shlq	$32, %rdx
100001a85:	48 0b c2 	orq	%rdx, %rax
100001a88:	89 0f 	movl	%ecx, (%rdi)
100001a8a:	89 74 24 28 	movl	%esi, 40(%rsp)
100001a8e:	48 89 c6 	movq	%rax, %rsi
100001a91:	41 8d 7e 07 	leal	7(%r14), %edi
100001a95:	c1 ff 02 	sarl	$2, %edi
100001a98:	c1 ef 1d 	shrl	$29, %edi
100001a9b:	46 8d 54 37 07 	leal	7(%rdi,%r14), %r10d
100001aa0:	4d 63 d2 	movslq	%r10d, %r10
100001aa3:	49 83 e2 f8 	andq	$-8, %r10
100001aa7:	49 83 fa 10 	cmpq	$16, %r10
100001aab:	0f 8c 29 04 00 00 	jl	1065 <_test_routines+0x7FA>
100001ab1:	49 81 fa b9 04 00 00 	cmpq	$1209, %r10
100001ab8:	0f 8c 23 04 00 00 	jl	1059 <_test_routines+0x801>
100001abe:	4c 89 e7 	movq	%r12, %rdi
100001ac1:	48 83 e7 1f 	andq	$31, %rdi
100001ac5:	85 ff 	testl	%edi, %edi
100001ac7:	74 13 	je	19 <_test_routines+0x3FC>
100001ac9:	f7 c7 01 00 00 00 	testl	$1, %edi
100001acf:	0f 85 05 04 00 00 	jne	1029 <_test_routines+0x7FA>
100001ad5:	f7 df 	negl	%edi
100001ad7:	83 c7 20 	addl	$32, %edi
100001ada:	d1 ef 	shrl	%edi
100001adc:	89 f8 	movl	%edi, %eax
100001ade:	4c 8d 58 10 	leaq	16(%rax), %r11
100001ae2:	4d 3b d3 	cmpq	%r11, %r10
100001ae5:	0f 8c ef 03 00 00 	jl	1007 <_test_routines+0x7FA>
100001aeb:	44 89 d2 	movl	%r10d, %edx
100001aee:	41 89 d3 	movl	%edx, %r11d
100001af1:	44 2b df 	subl	%edi, %r11d
100001af4:	41 83 e3 0f 	andl	$15, %r11d
100001af8:	41 2b d3 	subl	%r11d, %edx
100001afb:	45 33 db 	xorl	%r11d, %r11d
100001afe:	85 ff 	testl	%edi, %edi
100001b00:	48 63 fa 	movslq	%edx, %rdi
100001b03:	76 1b 	jbe	27 <_test_routines+0x440>
100001b05:	43 0f b7 4c 5d 00 	movzwl	(%r13,%r11,2), %ecx
100001b0b:	42 0f b7 14 5b 	movzwl	(%rbx,%r11,2), %edx
100001b10:	0f af ca 	imull	%edx, %ecx
100001b13:	66 43 89 0c 5c 	movw	%cx, (%r12,%r11,2)
100001b18:	49 ff c3 	incq	%r11
100001b1b:	4c 3b d8 	cmpq	%rax, %r11
100001b1e:	72 e5 	jb	-27 <_test_routines+0x425>
100001b20:	c4 c1 7e 6f 44 45 00 	vmovdqu	(%r13,%rax,2), %ymm0
100001b27:	c5 fd d5 0c 43 	vpmullw	(%rbx,%rax,2), %ymm0, %ymm1
100001b2c:	c4 c1 7e 7f 0c 44 	vmovdqu	%ymm1, (%r12,%rax,2)
100001b32:	48 83 c0 10 	addq	$16, %rax
100001b36:	48 3b c7 	cmpq	%rdi, %rax
100001b39:	72 e5 	jb	-27 <_test_routines+0x440>
100001b3b:	49 3b fa 	cmpq	%r10, %rdi
100001b3e:	73 1c 	jae	28 <_test_routines+0x47C>
100001b40:	41 0f b7 44 7d 00 	movzwl	(%r13,%rdi,2), %eax
100001b46:	44 0f b7 1c 7b 	movzwl	(%rbx,%rdi,2), %r11d
100001b4b:	41 0f af c3 	imull	%r11d, %eax
100001b4f:	66 41 89 04 7c 	movw	%ax, (%r12,%rdi,2)
100001b54:	48 ff c7 	incq	%rdi
100001b57:	49 3b fa 	cmpq	%r10, %rdi
100001b5a:	72 e4 	jb	-28 <_test_routines+0x460>
100001b5c:	4c 89 6c 24 30 	movq	%r13, 48(%rsp)
100001b61:	44 8b 6c 24 28 	movl	40(%rsp), %r13d
100001b66:	c5 f8 77 	vzeroupper
100001b69:	48 8d 7c 24 3c 	leaq	60(%rsp), %rdi
100001b6e:	0f 01 f9 	rdtscp
100001b71:	48 c1 e2 20 	shlq	$32, %rdx
100001b75:	48 0b c2 	orq	%rdx, %rax
100001b78:	89 0f 	movl	%ecx, (%rdi)
100001b7a:	48 2b c6 	subq	%rsi, %rax
100001b7d:	49 3b c0 	cmpq	%r8, %rax
100001b80:	4c 0f 4f c0 	cmovgq	%rax, %r8
100001b84:	4c 03 f8 	addq	%rax, %r15
100001b87:	41 81 fd a0 86 01 00 	cmpl	$100000, %r13d
100001b8e:	73 32 	jae	50 <_test_routines+0x4E2>
100001b90:	41 ff c5 	incl	%r13d
100001b93:	48 8d 7c 24 38 	leaq	56(%rsp), %rdi
100001b98:	45 89 e9 	movl	%r13d, %r9d
100001b9b:	0f 01 f9 	rdtscp
100001b9e:	48 c1 e2 20 	shlq	$32, %rdx
100001ba2:	48 0b c2 	orq	%rdx, %rax
100001ba5:	89 0f 	movl	%ecx, (%rdi)
100001ba7:	48 89 c6 	movq	%rax, %rsi
100001baa:	45 85 f6 	testl	%r14d, %r14d
100001bad:	76 b7 	jbe	-73 <_test_routines+0x486>
100001baf:	0f 1f 40 00 	nopl	(%rax)
100001bb3:	44 89 6c 24 28 	movl	%r13d, 40(%rsp)
100001bb8:	4c 8b 6c 24 30 	movq	48(%rsp), %r13
100001bbd:	e9 cf fe ff ff 	jmp	-305 <_test_routines+0x3B1>
100001bc2:	4c 89 f8 	movq	%r15, %rax
100001bc5:	48 8d 3d 94 49 00 00 	leaq	18836(%rip), %rdi
100001bcc:	4d 63 c9 	movslq	%r9d, %r9
100001bcf:	44 89 f6 	movl	%r14d, %esi
100001bd2:	48 99 	cqto
100001bd4:	4c 89 c1 	movq	%r8, %rcx
100001bd7:	49 f7 f9 	idivq	%r9
100001bda:	4c 89 fa 	movq	%r15, %rdx
100001bdd:	45 89 c8 	movl	%r9d, %r8d
100001be0:	41 89 c1 	movl	%eax, %r9d
100001be3:	33 c0 	xorl	%eax, %eax
100001be5:	4c 8b 6c 24 30 	movq	48(%rsp), %r13
100001bea:	e8 9d 48 00 00 	callq	18589
100001bef:	8b 44 24 10 	movl	16(%rsp), %eax
100001bf3:	45 33 e4 	xorl	%r12d, %r12d
100001bf6:	44 89 74 24 08 	movl	%r14d, 8(%rsp)
100001bfb:	45 33 ff 	xorl	%r15d, %r15d
100001bfe:	4c 89 6c 24 30 	movq	%r13, 48(%rsp)
100001c03:	45 33 c0 	xorl	%r8d, %r8d
100001c06:	4c 8b 74 24 20 	movq	32(%rsp), %r14
100001c0b:	44 8d 48 07 	leal	7(%rax), %r9d
100001c0f:	41 c1 e9 03 	shrl	$3, %r9d
100001c13:	41 89 c5 	movl	%eax, %r13d
100001c16:	48 8d 7c 24 28 	leaq	40(%rsp), %rdi
100001c1b:	41 ff c0 	incl	%r8d
100001c1e:	0f 01 f9 	rdtscp
100001c21:	48 c1 e2 20 	shlq	$32, %rdx
100001c25:	48 0b c2 	orq	%rdx, %rax
100001c28:	89 0f 	movl	%ecx, (%rdi)
100001c2a:	48 89 c6 	movq	%rax, %rsi
100001c2d:	45 85 ed 	testl	%r13d, %r13d
100001c30:	0f 86 bd 00 00 00 	jbe	189 <_test_routines+0x613>
100001c36:	4c 8b 54 24 30 	movq	48(%rsp), %r10
100001c3b:	33 c0 	xorl	%eax, %eax
100001c3d:	8d 3c c5 00 00 00 00 	leal	(,%rax,8), %edi
100001c44:	ff c0 	incl	%eax
100001c46:	48 63 ff 	movslq	%edi, %rdi
100001c49:	48 c1 e7 04 	shlq	$4, %rdi
100001c4d:	c4 c1 7a 6f 04 3a 	vmovdqu	(%r10,%rdi), %xmm0
100001c53:	c4 c1 7a 6f 54 3a 10 	vmovdqu	16(%r10,%rdi), %xmm2
100001c5a:	c4 c1 7a 6f 64 3a 20 	vmovdqu	32(%r10,%rdi), %xmm4
100001c61:	c4 c1 7a 6f 74 3a 30 	vmovdqu	48(%r10,%rdi), %xmm6
100001c68:	c4 41 7a 6f 44 3a 40 	vmovdqu	64(%r10,%rdi), %xmm8
100001c6f:	c4 41 7a 6f 54 3a 50 	vmovdqu	80(%r10,%rdi), %xmm10
100001c76:	c4 41 7a 6f 64 3a 60 	vmovdqu	96(%r10,%rdi), %xmm12
100001c7d:	c4 41 7a 6f 74 3a 70 	vmovdqu	112(%r10,%rdi), %xmm14
100001c84:	c5 f9 d5 0c 3b 	vpmullw	(%rbx,%rdi), %xmm0, %xmm1
100001c89:	c5 e9 d5 5c 3b 10 	vpmullw	16(%rbx,%rdi), %xmm2, %xmm3
100001c8f:	c5 d9 d5 6c 3b 20 	vpmullw	32(%rbx,%rdi), %xmm4, %xmm5
100001c95:	c5 c9 d5 7c 3b 30 	vpmullw	48(%rbx,%rdi), %xmm6, %xmm7
100001c9b:	c5 39 d5 4c 3b 40 	vpmullw	64(%rbx,%rdi), %xmm8, %xmm9
100001ca1:	c5 29 d5 5c 3b 50 	vpmullw	80(%rbx,%rdi), %xmm10, %xmm11
100001ca7:	c5 19 d5 6c 3b 60 	vpmullw	96(%rbx,%rdi), %xmm12, %xmm13
100001cad:	c5 09 d5 7c 3b 70 	vpmullw	112(%rbx,%rdi), %xmm14, %xmm15
100001cb3:	c4 c1 7a 7f 0c 3e 	vmovdqu	%xmm1, (%r14,%rdi)
100001cb9:	c4 c1 7a 7f 5c 3e 10 	vmovdqu	%xmm3, 16(%r14,%rdi)
100001cc0:	c4 c1 7a 7f 6c 3e 20 	vmovdqu	%xmm5, 32(%r14,%rdi)
100001cc7:	c4 c1 7a 7f 7c 3e 30 	vmovdqu	%xmm7, 48(%r14,%rdi)
100001cce:	c4 41 7a 7f 4c 3e 40 	vmovdqu	%xmm9, 64(%r14,%rdi)
100001cd5:	c4 41 7a 7f 5c 3e 50 	vmovdqu	%xmm11, 80(%r14,%rdi)
100001cdc:	c4 41 7a 7f 6c 3e 60 	vmovdqu	%xmm13, 96(%r14,%rdi)
100001ce3:	c4 41 7a 7f 7c 3e 70 	vmovdqu	%xmm15, 112(%r14,%rdi)
100001cea:	41 3b c1 	cmpl	%r9d, %eax
100001ced:	0f 8c 4a ff ff ff 	jl	-182 <_test_routines+0x55D>
100001cf3:	48 8d 7c 24 2c 	leaq	44(%rsp), %rdi
100001cf8:	0f 01 f9 	rdtscp
100001cfb:	48 c1 e2 20 	shlq	$32, %rdx
100001cff:	48 0b c2 	orq	%rdx, %rax
100001d02:	89 0f 	movl	%ecx, (%rdi)
100001d04:	48 2b c6 	subq	%rsi, %rax
100001d07:	49 3b c7 	cmpq	%r15, %rax
100001d0a:	4c 0f 4f f8 	cmovgq	%rax, %r15
100001d0e:	4c 03 e0 	addq	%rax, %r12
100001d11:	41 81 f8 a0 86 01 00 	cmpl	$100000, %r8d
100001d18:	0f 82 f8 fe ff ff 	jb	-264 <_test_routines+0x536>
100001d1e:	4c 89 e0 	movq	%r12, %rax
100001d21:	48 8d 3d 58 48 00 00 	leaq	18520(%rip), %rdi
100001d28:	4c 89 f9 	movq	%r15, %rcx
100001d2b:	48 99 	cqto
100001d2d:	49 f7 f8 	idivq	%r8
100001d30:	44 8b 74 24 08 	movl	8(%rsp), %r14d
100001d35:	44 89 f6 	movl	%r14d, %esi
100001d38:	4c 89 e2 	movq	%r12, %rdx
100001d3b:	41 89 c1 	movl	%eax, %r9d
100001d3e:	33 c0 	xorl	%eax, %eax
100001d40:	4c 8b 6c 24 30 	movq	48(%rsp), %r13
100001d45:	e8 42 47 00 00 	callq	18242
100001d4a:	8b 04 24 	movl	(%rsp), %eax
100001d4d:	45 33 ff 	xorl	%r15d, %r15d
100001d50:	44 89 74 24 08 	movl	%r14d, 8(%rsp)
100001d55:	45 33 e4 	xorl	%r12d, %r12d
100001d58:	4c 89 6c 24 30 	movq	%r13, 48(%rsp)
100001d5d:	45 33 c0 	xorl	%r8d, %r8d
100001d60:	4c 8b 74 24 18 	movq	24(%rsp), %r14
100001d65:	44 8d 48 07 	leal	7(%rax), %r9d
100001d69:	41 c1 e9 03 	shrl	$3, %r9d
100001d6d:	41 89 c5 	movl	%eax, %r13d
100001d70:	48 8d 7c 24 10 	leaq	16(%rsp), %rdi
100001d75:	41 ff c0 	incl	%r8d
100001d78:	0f 01 f9 	rdtscp
100001d7b:	48 c1 e2 20 	shlq	$32, %rdx
100001d7f:	48 0b c2 	orq	%rdx, %rax
100001d82:	89 0f 	movl	%ecx, (%rdi)
100001d84:	48 89 c6 	movq	%rax, %rsi
100001d87:	45 85 ed 	testl	%r13d, %r13d
100001d8a:	0f 86 e1 00 00 00 	jbe	225 <_test_routines+0x791>
100001d90:	4c 8b 54 24 30 	movq	48(%rsp), %r10
100001d95:	33 c0 	xorl	%eax, %eax
100001d97:	8d 3c c5 00 00 00 00 	leal	(,%rax,8), %edi
100001d9e:	ff c0 	incl	%eax
100001da0:	48 63 ff 	movslq	%edi, %rdi
100001da3:	48 c1 e7 05 	shlq	$5, %rdi
100001da7:	c4 c1 7e 6f 04 3a 	vmovdqu	(%r10,%rdi), %ymm0
100001dad:	c4 c1 7e 6f 54 3a 20 	vmovdqu	32(%r10,%rdi), %ymm2
100001db4:	c4 c1 7e 6f 64 3a 40 	vmovdqu	64(%r10,%rdi), %ymm4
100001dbb:	c4 c1 7e 6f 74 3a 60 	vmovdqu	96(%r10,%rdi), %ymm6
100001dc2:	c4 41 7e 6f 84 3a 80 00 00 00 	vmovdqu	128(%r10,%rdi), %ymm8
100001dcc:	c4 41 7e 6f 94 3a a0 00 00 00 	vmovdqu	160(%r10,%rdi), %ymm10
100001dd6:	c4 41 7e 6f a4 3a c0 00 00 00 	vmovdqu	192(%r10,%rdi), %ymm12
100001de0:	c4 41 7e 6f b4 3a e0 00 00 00 	vmovdqu	224(%r10,%rdi), %ymm14
100001dea:	c5 fd d5 0c 3b 	vpmullw	(%rbx,%rdi), %ymm0, %ymm1
100001def:	c5 ed d5 5c 3b 20 	vpmullw	32(%rbx,%rdi), %ymm2, %ymm3
100001df5:	c5 dd d5 6c 3b 40 	vpmullw	64(%rbx,%rdi), %ymm4, %ymm5
100001dfb:	c5 cd d5 7c 3b 60 	vpmullw	96(%rbx,%rdi), %ymm6, %ymm7
100001e01:	c5 3d d5 8c 3b 80 00 00 00 	vpmullw	128(%rbx,%rdi), %ymm8, %ymm9
100001e0a:	c5 2d d5 9c 3b a0 00 00 00 	vpmullw	160(%rbx,%rdi), %ymm10, %ymm11
100001e13:	c5 1d d5 ac 3b c0 00 00 00 	vpmullw	192(%rbx,%rdi), %ymm12, %ymm13
100001e1c:	c5 0d d5 bc 3b e0 00 00 00 	vpmullw	224(%rbx,%rdi), %ymm14, %ymm15
100001e25:	c4 c1 7e 7f 0c 3e 	vmovdqu	%ymm1, (%r14,%rdi)
100001e2b:	c4 c1 7e 7f 5c 3e 20 	vmovdqu	%ymm3, 32(%r14,%rdi)
100001e32:	c4 c1 7e 7f 6c 3e 40 	vmovdqu	%ymm5, 64(%r14,%rdi)
100001e39:	c4 c1 7e 7f 7c 3e 60 	vmovdqu	%ymm7, 96(%r14,%rdi)
100001e40:	c4 41 7e 7f 8c 3e 80 00 00 00 	vmovdqu	%ymm9, 128(%r14,%rdi)
100001e4a:	c4 41 7e 7f 9c 3e a0 00 00 00 	vmovdqu	%ymm11, 160(%r14,%rdi)
100001e54:	c4 41 7e 7f ac 3e c0 00 00 00 	vmovdqu	%ymm13, 192(%r14,%rdi)
100001e5e:	c4 41 7e 7f bc 3e e0 00 00 00 	vmovdqu	%ymm15, 224(%r14,%rdi)
100001e68:	41 3b c1 	cmpl	%r9d, %eax
100001e6b:	0f 8c 26 ff ff ff 	jl	-218 <_test_routines+0x6B7>
100001e71:	c5 f8 77 	vzeroupper
100001e74:	48 8d 7c 24 14 	leaq	20(%rsp), %rdi
100001e79:	0f 01 f9 	rdtscp
100001e7c:	48 c1 e2 20 	shlq	$32, %rdx
100001e80:	48 0b c2 	orq	%rdx, %rax
100001e83:	89 0f 	movl	%ecx, (%rdi)
100001e85:	48 2b c6 	subq	%rsi, %rax
100001e88:	49 3b c4 	cmpq	%r12, %rax
100001e8b:	4c 0f 4f e0 	cmovgq	%rax, %r12
100001e8f:	4c 03 f8 	addq	%rax, %r15
100001e92:	41 81 f8 a0 86 01 00 	cmpl	$100000, %r8d
100001e99:	0f 82 d1 fe ff ff 	jb	-303 <_test_routines+0x690>
100001e9f:	4c 89 f8 	movq	%r15, %rax
100001ea2:	48 8d 3d f7 46 00 00 	leaq	18167(%rip), %rdi
100001ea9:	4c 89 e1 	movq	%r12, %rcx
100001eac:	48 99 	cqto
100001eae:	49 f7 f8 	idivq	%r8
100001eb1:	44 8b 74 24 08 	movl	8(%rsp), %r14d
100001eb6:	44 89 f6 	movl	%r14d, %esi
100001eb9:	4c 89 fa 	movq	%r15, %rdx
100001ebc:	41 89 c1 	movl	%eax, %r9d
100001ebf:	33 c0 	xorl	%eax, %eax
100001ec1:	e8 c6 45 00 00 	callq	17862
100001ec6:	33 c0 	xorl	%eax, %eax
100001ec8:	48 83 c4 58 	addq	$88, %rsp
100001ecc:	5b 	popq	%rbx
100001ecd:	41 5f 	popq	%r15
100001ecf:	41 5e 	popq	%r14
100001ed1:	41 5d 	popq	%r13
100001ed3:	41 5c 	popq	%r12
100001ed5:	48 89 ec 	movq	%rbp, %rsp
100001ed8:	5d 	popq	%rbp
100001ed9:	c3 	retq
100001eda:	33 ff 	xorl	%edi, %edi
100001edc:	e9 5a fc ff ff 	jmp	-934 <_test_routines+0x45B>
100001ee1:	44 89 d7 	movl	%r10d, %edi
100001ee4:	33 c0 	xorl	%eax, %eax
100001ee6:	83 e7 f0 	andl	$-16, %edi
100001ee9:	48 63 ff 	movslq	%edi, %rdi
100001eec:	e9 2f fc ff ff 	jmp	-977 <_test_routines+0x440>
100001ef1:	45 33 ff 	xorl	%r15d, %r15d
100001ef4:	48 8d 7c 24 38 	leaq	56(%rsp), %rdi
100001ef9:	45 33 c0 	xorl	%r8d, %r8d
100001efc:	41 b9 01 00 00 00 	movl	$1, %r9d
100001f02:	c5 f8 77 	vzeroupper
100001f05:	0f 01 f9 	rdtscp
100001f08:	48 c1 e2 20 	shlq	$32, %rdx
100001f0c:	48 0b c2 	orq	%rdx, %rax
100001f0f:	89 0f 	movl	%ecx, (%rdi)
100001f11:	be 01 00 00 00 	movl	$1, %esi
100001f16:	89 74 24 28 	movl	%esi, 40(%rsp)
100001f1a:	48 89 c6 	movq	%rax, %rsi
100001f1d:	e9 3a fc ff ff 	jmp	-966 <_test_routines+0x47C>
100001f22:	44 89 f0 	movl	%r14d, %eax
100001f25:	c1 e8 04 	shrl	$4, %eax
100001f28:	89 04 24 	movl	%eax, (%rsp)
100001f2b:	85 c0 	testl	%eax, %eax
100001f2d:	0f 87 1f fa ff ff 	ja	-1505 <_test_routines+0x272>
100001f33:	e9 fe fa ff ff 	jmp	-1282 <_test_routines+0x356>
100001f38:	33 ff 	xorl	%edi, %edi
100001f3a:	e9 20 f9 ff ff 	jmp	-1760 <_test_routines+0x17F>
100001f3f:	89 d7 	movl	%edx, %edi
100001f41:	33 c0 	xorl	%eax, %eax
100001f43:	83 e7 f0 	andl	$-16, %edi
100001f46:	48 63 ff 	movslq	%edi, %rdi
100001f49:	e9 f6 f8 ff ff 	jmp	-1802 <_test_routines+0x164>
100001f4e:	44 89 f0 	movl	%r14d, %eax
100001f51:	c1 e8 03 	shrl	$3, %eax
100001f54:	89 44 24 10 	movl	%eax, 16(%rsp)
100001f58:	85 c0 	testl	%eax, %eax
100001f5a:	0f 87 30 f9 ff ff 	ja	-1744 <_test_routines+0x1B0>
100001f60:	44 89 f0 	movl	%r14d, %eax
100001f63:	c1 e8 04 	shrl	$4, %eax
100001f66:	89 04 24 	movl	%eax, (%rsp)
100001f69:	85 c0 	testl	%eax, %eax
100001f6b:	0f 87 e1 f9 ff ff 	ja	-1567 <_test_routines+0x272>
100001f71:	e9 7b ff ff ff 	jmp	-133 <_test_routines+0x811>
100001f76:	c5 f8 77 	vzeroupper
100001f79:	b8 ff ff ff ff 	movl	$4294967295, %eax
100001f7e:	48 83 c4 58 	addq	$88, %rsp
100001f82:	5b 	popq	%rbx
100001f83:	41 5f 	popq	%r15
100001f85:	41 5e 	popq	%r14
100001f87:	41 5d 	popq	%r13
100001f89:	41 5c 	popq	%r12
100001f8b:	48 89 ec 	movq	%rbp, %rsp
100001f8e:	5d 	popq	%rbp
100001f8f:	c3 	retq
100001f90:	b8 ff ff ff ff 	movl	$4294967295, %eax
100001f95:	48 83 c4 58 	addq	$88, %rsp
100001f99:	5b 	popq	%rbx
100001f9a:	41 5f 	popq	%r15
100001f9c:	41 5e 	popq	%r14
100001f9e:	41 5d 	popq	%r13
100001fa0:	41 5c 	popq	%r12
100001fa2:	48 89 ec 	movq	%rbp, %rsp
100001fa5:	5d 	popq	%rbp
100001fa6:	c3 	retq
100001fa7:	66 0f 1f 84 00 00 00 00 00 	nopw	(%rax,%rax)
100001fb0:	90 	nop
100001fb1:	90 	nop
100001fb2:	90 	nop
100001fb3:	90 	nop
100001fb4:	90 	nop
100001fb5:	90 	nop
100001fb6:	90 	nop
100001fb7:	90 	nop
100001fb8:	90 	nop
100001fb9:	90 	nop
100001fba:	90 	nop
100001fbb:	90 	nop
100001fbc:	90 	nop
100001fbd:	90 	nop
100001fbe:	90 	nop
100001fbf:	90 	nop

___libirc_get_msg:
100001fc0:	41 54 	pushq	%r12
100001fc2:	41 55 	pushq	%r13
100001fc4:	41 56 	pushq	%r14
100001fc6:	48 81 ec 50 01 00 00 	subq	$336, %rsp
100001fcd:	48 89 94 24 90 00 00 00 	movq	%rdx, 144(%rsp)
100001fd5:	48 89 8c 24 98 00 00 00 	movq	%rcx, 152(%rsp)
100001fdd:	4c 89 84 24 a0 00 00 00 	movq	%r8, 160(%rsp)
100001fe5:	4c 89 8c 24 a8 00 00 00 	movq	%r9, 168(%rsp)
100001fed:	44 0f b6 d8 	movzbl	%al, %r11d
100001ff1:	4a 8d 04 9d 00 00 00 00 	leaq	(,%r11,4), %rax
100001ff9:	4c 8d 1d 2e 00 00 00 	leaq	46(%rip), %r11
100002000:	4c 2b d8 	subq	%rax, %r11
100002003:	48 8d 84 24 2f 01 00 00 	leaq	303(%rsp), %rax
10000200b:	41 ff e3 	jmpq	*%r11
10000200e:	0f 29 78 f1 	movaps	%xmm7, -15(%rax)
100002012:	0f 29 70 e1 	movaps	%xmm6, -31(%rax)
100002016:	0f 29 68 d1 	movaps	%xmm5, -47(%rax)
10000201a:	0f 29 60 c1 	movaps	%xmm4, -63(%rax)
10000201e:	0f 29 58 b1 	movaps	%xmm3, -79(%rax)
100002022:	0f 29 50 a1 	movaps	%xmm2, -95(%rax)
100002026:	0f 29 48 91 	movaps	%xmm1, -111(%rax)
10000202a:	0f 29 40 81 	movaps	%xmm0, -127(%rax)
10000202e:	41 89 fd 	movl	%edi, %r13d
100002031:	41 89 f6 	movl	%esi, %r14d
100002034:	45 85 ed 	testl	%r13d, %r13d
100002037:	0f 84 87 00 00 00 	je	135 <___libirc_get_msg+0x104>
10000203d:	83 3d 2c 69 00 00 00 	cmpl	$0, 26924(%rip)
100002044:	74 5b 	je	91 <___libirc_get_msg+0xE1>
100002046:	48 8d 3d eb 4b 00 00 	leaq	19435(%rip), %rdi
10000204d:	33 f6 	xorl	%esi, %esi
10000204f:	c7 05 17 69 00 00 00 00 00 00 	movl	$0, 26903(%rip)
100002059:	e8 0a 44 00 00 	callq	17418
10000205e:	48 89 05 bb 6e 00 00 	movq	%rax, 28347(%rip)
100002065:	48 83 f8 ff 	cmpq	$-1, %rax
100002069:	0f 84 d6 00 00 00 	je	214 <___libirc_get_msg+0x185>
10000206f:	48 8b 3d aa 6e 00 00 	movq	28330(%rip), %rdi
100002076:	c7 05 f4 68 00 00 00 00 00 00 	movl	$0, 26868(%rip)
100002080:	49 63 c5 	movslq	%r13d, %rax
100002083:	4c 8d 05 1e 65 00 00 	leaq	25886(%rip), %r8
10000208a:	48 c1 e0 04 	shlq	$4, %rax
10000208e:	be 01 00 00 00 	movl	$1, %esi
100002093:	44 89 ea 	movl	%r13d, %edx
100002096:	4a 8b 0c 00 	movq	(%rax,%r8), %rcx
10000209a:	e8 c3 43 00 00 	callq	17347
10000209f:	eb 2a 	jmp	42 <___libirc_get_msg+0x10B>
1000020a1:	8b 05 cd 68 00 00 	movl	26829(%rip), %eax
1000020a7:	85 c0 	testl	%eax, %eax
1000020a9:	0f 84 8e 01 00 00 	je	398 <___libirc_get_msg+0x27D>
1000020af:	4d 63 ed 	movslq	%r13d, %r13
1000020b2:	48 8d 05 ef 64 00 00 	leaq	25839(%rip), %rax
1000020b9:	49 c1 e5 04 	shlq	$4, %r13
1000020bd:	49 8b 44 05 00 	movq	(%r13,%rax), %rax
1000020c2:	eb 07 	jmp	7 <___libirc_get_msg+0x10B>
1000020c4:	48 8d 05 65 45 00 00 	leaq	17765(%rip), %rax
1000020cb:	45 85 f6 	testl	%r14d, %r14d
1000020ce:	7e 67 	jle	103 <___libirc_get_msg+0x177>
1000020d0:	c7 84 24 30 01 00 00 10 00 00 00 	movl	$16, 304(%rsp)
1000020db:	48 8d 94 24 70 01 00 00 	leaq	368(%rsp), %rdx
1000020e3:	c7 84 24 34 01 00 00 30 00 00 00 	movl	$48, 308(%rsp)
1000020ee:	48 8d b4 24 80 00 00 00 	leaq	128(%rsp), %rsi
1000020f6:	48 89 96 b8 00 00 00 	movq	%rdx, 184(%rsi)
1000020fd:	48 89 b6 c0 00 00 00 	movq	%rsi, 192(%rsi)
100002104:	48 8d 3d 15 6a 00 00 	leaq	27157(%rip), %rdi
10000210b:	33 f6 	xorl	%esi, %esi
10000210d:	ba 00 02 00 00 	movl	$512, %edx
100002112:	48 89 c1 	movq	%rax, %rcx
100002115:	4c 8d 84 24 30 01 00 00 	leaq	304(%rsp), %r8
10000211d:	e8 3a 43 00 00 	callq	17210
100002122:	48 8d 05 f7 69 00 00 	leaq	27127(%rip), %rax
100002129:	48 81 c4 50 01 00 00 	addq	$336, %rsp
100002130:	41 5e 	popq	%r14
100002132:	41 5d 	popq	%r13
100002134:	41 5c 	popq	%r12
100002136:	c3 	retq
100002137:	48 81 c4 50 01 00 00 	addq	$336, %rsp
10000213e:	41 5e 	popq	%r14
100002140:	41 5d 	popq	%r13
100002142:	41 5c 	popq	%r12
100002144:	c3 	retq
100002145:	48 8d 3d 94 50 00 00 	leaq	20628(%rip), %rdi
10000214c:	e8 2f 43 00 00 	callq	17199
100002151:	48 85 c0 	testq	%rax, %rax
100002154:	0f 84 47 ff ff ff 	je	-185 <___libirc_get_msg+0xE1>
10000215a:	48 89 c6 	movq	%rax, %rsi
10000215d:	48 8d 3c 24 	leaq	(%rsp), %rdi
100002161:	41 b8 80 00 00 00 	movl	$128, %r8d
100002167:	e8 84 0e 00 00 	callq	3716 <___intel_ssse3_strncpy>
10000216c:	41 bb 2e 00 00 00 	movl	$46, %r11d
100002172:	48 8d 04 24 	leaq	(%rsp), %rax
100002176:	48 89 c1 	movq	%rax, %rcx
100002179:	83 e1 0f 	andl	$15, %ecx
10000217c:	48 83 e0 f0 	andq	$-16, %rax
100002180:	66 0f ef d2 	pxor	%xmm2, %xmm2
100002184:	66 41 0f 6e cb 	movd	%r11d, %xmm1
100002189:	66 0f 38 00 ca 	pshufb	%xmm2, %xmm1
10000218e:	66 0f 6f 00 	movdqa	(%rax), %xmm0
100002192:	66 0f 74 d0 	pcmpeqb	%xmm0, %xmm2
100002196:	66 0f 74 c1 	pcmpeqb	%xmm1, %xmm0
10000219a:	66 44 0f d7 d8 	pmovmskb	%xmm0, %r11d
10000219f:	66 44 0f d7 d2 	pmovmskb	%xmm2, %r10d
1000021a4:	41 d3 eb 	shrl	%cl, %r11d
1000021a7:	41 d3 ea 	shrl	%cl, %r10d
1000021aa:	45 85 db 	testl	%r11d, %r11d
1000021ad:	75 07 	jne	7 <___libirc_get_msg+0x1F6>
1000021af:	45 85 d2 	testl	%r10d, %r10d
1000021b2:	74 1d 	je	29 <___libirc_get_msg+0x211>
1000021b4:	eb 17 	jmp	23 <___libirc_get_msg+0x20D>
1000021b6:	45 0f bc db 	bsfl	%r11d, %r11d
1000021ba:	45 0f bc d2 	bsfl	%r10d, %r10d
1000021be:	74 05 	je	5 <___libirc_get_msg+0x205>
1000021c0:	45 3b da 	cmpl	%r10d, %r11d
1000021c3:	7f 08 	jg	8 <___libirc_get_msg+0x20D>
1000021c5:	48 03 c1 	addq	%rcx, %rax
1000021c8:	49 03 c3 	addq	%r11, %rax
1000021cb:	eb 09 	jmp	9 <___libirc_get_msg+0x216>
1000021cd:	33 c0 	xorl	%eax, %eax
1000021cf:	eb 05 	jmp	5 <___libirc_get_msg+0x216>
1000021d1:	e8 ca 0d 00 00 	callq	3530 <___intel_sse2_strchr>
1000021d6:	49 89 c4 	movq	%rax, %r12
1000021d9:	4d 85 e4 	testq	%r12, %r12
1000021dc:	74 49 	je	73 <___libirc_get_msg+0x267>
1000021de:	48 8d 3d fb 4f 00 00 	leaq	20475(%rip), %rdi
1000021e5:	48 8d 34 24 	leaq	(%rsp), %rsi
1000021e9:	ba 01 00 00 00 	movl	$1, %edx
1000021ee:	41 c6 04 24 00 	movb	$0, (%r12)
1000021f3:	e8 a6 42 00 00 	callq	17062
1000021f8:	48 8d 3d 39 4a 00 00 	leaq	19001(%rip), %rdi
1000021ff:	33 f6 	xorl	%esi, %esi
100002201:	e8 62 42 00 00 	callq	16994
100002206:	48 8d 3d d3 4f 00 00 	leaq	20435(%rip), %rdi
10000220d:	48 8d 34 24 	leaq	(%rsp), %rsi
100002211:	ba 01 00 00 00 	movl	$1, %edx
100002216:	48 89 05 03 6d 00 00 	movq	%rax, 27907(%rip)
10000221d:	41 c6 04 24 2e 	movb	$46, (%r12)
100002222:	e8 77 42 00 00 	callq	17015
100002227:	48 8b 3d f2 6c 00 00 	movq	27890(%rip), %rdi
10000222e:	48 83 ff ff 	cmpq	$-1, %rdi
100002232:	0f 85 3e fe ff ff 	jne	-450 <___libirc_get_msg+0xB6>
100002238:	e9 64 fe ff ff 	jmp	-412 <___libirc_get_msg+0xE1>
10000223d:	48 8b 3d dc 6c 00 00 	movq	27868(%rip), %rdi
100002244:	e9 37 fe ff ff 	jmp	-457 <___libirc_get_msg+0xC0>
100002249:	0f 1f 80 00 00 00 00 	nopl	(%rax)

___libirc_print:
100002250:	41 54 	pushq	%r12
100002252:	41 55 	pushq	%r13
100002254:	53 	pushq	%rbx
100002255:	55 	pushq	%rbp
100002256:	48 81 ec 48 01 00 00 	subq	$328, %rsp
10000225d:	48 89 8c 24 98 00 00 00 	movq	%rcx, 152(%rsp)
100002265:	4c 89 84 24 a0 00 00 00 	movq	%r8, 160(%rsp)
10000226d:	4c 89 8c 24 a8 00 00 00 	movq	%r9, 168(%rsp)
100002275:	44 0f b6 d8 	movzbl	%al, %r11d
100002279:	4a 8d 04 9d 00 00 00 00 	leaq	(,%r11,4), %rax
100002281:	4c 8d 1d 2e 00 00 00 	leaq	46(%rip), %r11
100002288:	4c 2b d8 	subq	%rax, %r11
10000228b:	48 8d 84 24 2f 01 00 00 	leaq	303(%rsp), %rax
100002293:	41 ff e3 	jmpq	*%r11
100002296:	0f 29 78 f1 	movaps	%xmm7, -15(%rax)
10000229a:	0f 29 70 e1 	movaps	%xmm6, -31(%rax)
10000229e:	0f 29 68 d1 	movaps	%xmm5, -47(%rax)
1000022a2:	0f 29 60 c1 	movaps	%xmm4, -63(%rax)
1000022a6:	0f 29 58 b1 	movaps	%xmm3, -79(%rax)
1000022aa:	0f 29 50 a1 	movaps	%xmm2, -95(%rax)
1000022ae:	0f 29 48 91 	movaps	%xmm1, -111(%rax)
1000022b2:	0f 29 40 81 	movaps	%xmm0, -127(%rax)
1000022b6:	41 89 f4 	movl	%esi, %r12d
1000022b9:	41 89 d5 	movl	%edx, %r13d
1000022bc:	89 fd 	movl	%edi, %ebp
1000022be:	45 85 e4 	testl	%r12d, %r12d
1000022c1:	75 21 	jne	33 <___libirc_print+0x94>
1000022c3:	83 fd 01 	cmpl	$1, %ebp
1000022c6:	0f 84 27 01 00 00 	je	295 <___libirc_print+0x1A3>
1000022cc:	bf 0a 00 00 00 	movl	$10, %edi
1000022d1:	e8 bc 41 00 00 	callq	16828
1000022d6:	48 81 c4 48 01 00 00 	addq	$328, %rsp
1000022dd:	5d 	popq	%rbp
1000022de:	5b 	popq	%rbx
1000022df:	41 5d 	popq	%r13
1000022e1:	41 5c 	popq	%r12
1000022e3:	c3 	retq
1000022e4:	83 3d 85 66 00 00 00 	cmpl	$0, 26245(%rip)
1000022eb:	74 3c 	je	60 <___libirc_print+0xD9>
1000022ed:	48 8d 3d 44 49 00 00 	leaq	18756(%rip), %rdi
1000022f4:	33 f6 	xorl	%esi, %esi
1000022f6:	c7 05 70 66 00 00 00 00 00 00 	movl	$0, 26224(%rip)
100002300:	e8 63 41 00 00 	callq	16739
100002305:	48 89 05 14 6c 00 00 	movq	%rax, 27668(%rip)
10000230c:	48 83 f8 ff 	cmpq	$-1, %rax
100002310:	0f 84 ff 00 00 00 	je	255 <___libirc_print+0x1C5>
100002316:	48 8b 3d 03 6c 00 00 	movq	27651(%rip), %rdi
10000231d:	c7 05 4d 66 00 00 00 00 00 00 	movl	$0, 26189(%rip)
100002327:	eb 22 	jmp	34 <___libirc_print+0xFB>
100002329:	8b 05 45 66 00 00 	movl	26181(%rip), %eax
10000232f:	85 c0 	testl	%eax, %eax
100002331:	0f 84 01 02 00 00 	je	513 <___libirc_print+0x2E8>
100002337:	4d 63 e4 	movslq	%r12d, %r12
10000233a:	48 8d 05 67 62 00 00 	leaq	25191(%rip), %rax
100002341:	49 c1 e4 04 	shlq	$4, %r12
100002345:	49 8b 0c 04 	movq	(%r12,%rax), %rcx
100002349:	eb 22 	jmp	34 <___libirc_print+0x11D>
10000234b:	49 63 c4 	movslq	%r12d, %rax
10000234e:	48 8d 1d 53 62 00 00 	leaq	25171(%rip), %rbx
100002355:	48 c1 e0 04 	shlq	$4, %rax
100002359:	be 01 00 00 00 	movl	$1, %esi
10000235e:	44 89 e2 	movl	%r12d, %edx
100002361:	48 8b 0c 18 	movq	(%rax,%rbx), %rcx
100002365:	e8 f8 40 00 00 	callq	16632
10000236a:	48 89 c1 	movq	%rax, %rcx
10000236d:	45 85 ed 	testl	%r13d, %r13d
100002370:	7e 56 	jle	86 <___libirc_print+0x178>
100002372:	c7 84 24 30 01 00 00 18 00 00 00 	movl	$24, 304(%rsp)
10000237d:	48 8d 84 24 70 01 00 00 	leaq	368(%rsp), %rax
100002385:	c7 84 24 34 01 00 00 30 00 00 00 	movl	$48, 308(%rsp)
100002390:	48 8d 94 24 80 00 00 00 	leaq	128(%rsp), %rdx
100002398:	48 89 82 b8 00 00 00 	movq	%rax, 184(%rdx)
10000239f:	48 89 92 c0 00 00 00 	movq	%rdx, 192(%rdx)
1000023a6:	48 8d 3d 73 69 00 00 	leaq	26995(%rip), %rdi
1000023ad:	33 f6 	xorl	%esi, %esi
1000023af:	ba 00 02 00 00 	movl	$512, %edx
1000023b4:	4c 8d 84 24 30 01 00 00 	leaq	304(%rsp), %r8
1000023bc:	e8 9b 40 00 00 	callq	16539
1000023c1:	48 8d 0d 58 69 00 00 	leaq	26968(%rip), %rcx
1000023c8:	83 fd 01 	cmpl	$1, %ebp
1000023cb:	0f 84 38 01 00 00 	je	312 <___libirc_print+0x2B9>
1000023d1:	48 89 cf 	movq	%rcx, %rdi
1000023d4:	33 c0 	xorl	%eax, %eax
1000023d6:	e8 b1 40 00 00 	callq	16561
1000023db:	bf 0a 00 00 00 	movl	$10, %edi
1000023e0:	e8 ad 40 00 00 	callq	16557
1000023e5:	48 81 c4 48 01 00 00 	addq	$328, %rsp
1000023ec:	5d 	popq	%rbp
1000023ed:	5b 	popq	%rbx
1000023ee:	41 5d 	popq	%r13
1000023f0:	41 5c 	popq	%r12
1000023f2:	c3 	retq
1000023f3:	48 8b 05 06 5c 00 00 	movq	23558(%rip), %rax
1000023fa:	bf 0a 00 00 00 	movl	$10, %edi
1000023ff:	48 8b 30 	movq	(%rax), %rsi
100002402:	e8 73 40 00 00 	callq	16499
100002407:	48 81 c4 48 01 00 00 	addq	$328, %rsp
10000240e:	5d 	popq	%rbp
10000240f:	5b 	popq	%rbx
100002410:	41 5d 	popq	%r13
100002412:	41 5c 	popq	%r12
100002414:	c3 	retq
100002415:	48 8d 3d c4 4d 00 00 	leaq	19908(%rip), %rdi
10000241c:	e8 5f 40 00 00 	callq	16479
100002421:	48 85 c0 	testq	%rax, %rax
100002424:	0f 84 ff fe ff ff 	je	-257 <___libirc_print+0xD9>
10000242a:	48 89 c6 	movq	%rax, %rsi
10000242d:	48 8d 3c 24 	leaq	(%rsp), %rdi
100002431:	41 b8 80 00 00 00 	movl	$128, %r8d
100002437:	e8 b4 0b 00 00 	callq	2996 <___intel_ssse3_strncpy>
10000243c:	41 bb 2e 00 00 00 	movl	$46, %r11d
100002442:	48 8d 04 24 	leaq	(%rsp), %rax
100002446:	48 89 c1 	movq	%rax, %rcx
100002449:	83 e1 0f 	andl	$15, %ecx
10000244c:	48 83 e0 f0 	andq	$-16, %rax
100002450:	66 0f ef d2 	pxor	%xmm2, %xmm2
100002454:	66 41 0f 6e cb 	movd	%r11d, %xmm1
100002459:	66 0f 38 00 ca 	pshufb	%xmm2, %xmm1
10000245e:	66 0f 6f 00 	movdqa	(%rax), %xmm0
100002462:	66 0f 74 d0 	pcmpeqb	%xmm0, %xmm2
100002466:	66 0f 74 c1 	pcmpeqb	%xmm1, %xmm0
10000246a:	66 44 0f d7 d8 	pmovmskb	%xmm0, %r11d
10000246f:	66 44 0f d7 d2 	pmovmskb	%xmm2, %r10d
100002474:	41 d3 eb 	shrl	%cl, %r11d
100002477:	41 d3 ea 	shrl	%cl, %r10d
10000247a:	45 85 db 	testl	%r11d, %r11d
10000247d:	75 07 	jne	7 <___libirc_print+0x236>
10000247f:	45 85 d2 	testl	%r10d, %r10d
100002482:	74 1d 	je	29 <___libirc_print+0x251>
100002484:	eb 17 	jmp	23 <___libirc_print+0x24D>
100002486:	45 0f bc db 	bsfl	%r11d, %r11d
10000248a:	45 0f bc d2 	bsfl	%r10d, %r10d
10000248e:	74 05 	je	5 <___libirc_print+0x245>
100002490:	45 3b da 	cmpl	%r10d, %r11d
100002493:	7f 08 	jg	8 <___libirc_print+0x24D>
100002495:	48 03 c1 	addq	%rcx, %rax
100002498:	49 03 c3 	addq	%r11, %rax
10000249b:	eb 09 	jmp	9 <___libirc_print+0x256>
10000249d:	33 c0 	xorl	%eax, %eax
10000249f:	eb 05 	jmp	5 <___libirc_print+0x256>
1000024a1:	e8 fa 0a 00 00 	callq	2810 <___intel_sse2_strchr>
1000024a6:	48 89 c3 	movq	%rax, %rbx
1000024a9:	48 85 db 	testq	%rbx, %rbx
1000024ac:	74 45 	je	69 <___libirc_print+0x2A3>
1000024ae:	48 8d 3d 2b 4d 00 00 	leaq	19755(%rip), %rdi
1000024b5:	48 8d 34 24 	leaq	(%rsp), %rsi
1000024b9:	ba 01 00 00 00 	movl	$1, %edx
1000024be:	c6 03 00 	movb	$0, (%rbx)
1000024c1:	e8 d8 3f 00 00 	callq	16344
1000024c6:	48 8d 3d 6b 47 00 00 	leaq	18283(%rip), %rdi
1000024cd:	33 f6 	xorl	%esi, %esi
1000024cf:	e8 94 3f 00 00 	callq	16276
1000024d4:	48 8d 3d 05 4d 00 00 	leaq	19717(%rip), %rdi
1000024db:	48 8d 34 24 	leaq	(%rsp), %rsi
1000024df:	ba 01 00 00 00 	movl	$1, %edx
1000024e4:	48 89 05 35 6a 00 00 	movq	%rax, 27189(%rip)
1000024eb:	c6 03 2e 	movb	$46, (%rbx)
1000024ee:	e8 ab 3f 00 00 	callq	16299
1000024f3:	48 8b 3d 26 6a 00 00 	movq	27174(%rip), %rdi
1000024fa:	48 83 ff ff 	cmpq	$-1, %rdi
1000024fe:	0f 85 19 fe ff ff 	jne	-487 <___libirc_print+0xCD>
100002504:	e9 20 fe ff ff 	jmp	-480 <___libirc_print+0xD9>
100002509:	48 8b 1d f0 5a 00 00 	movq	23280(%rip), %rbx
100002510:	48 89 ce 	movq	%rcx, %rsi
100002513:	33 c0 	xorl	%eax, %eax
100002515:	48 8b 3b 	movq	(%rbx), %rdi
100002518:	e8 57 3f 00 00 	callq	16215
10000251d:	bf 0a 00 00 00 	movl	$10, %edi
100002522:	48 8b 33 	movq	(%rbx), %rsi
100002525:	e8 50 3f 00 00 	callq	16208
10000252a:	48 81 c4 48 01 00 00 	addq	$328, %rsp
100002531:	5d 	popq	%rbp
100002532:	5b 	popq	%rbx
100002533:	41 5d 	popq	%r13
100002535:	41 5c 	popq	%r12
100002537:	c3 	retq
100002538:	48 8b 3d e1 69 00 00 	movq	27105(%rip), %rdi
10000253f:	e9 07 fe ff ff 	jmp	-505 <___libirc_print+0xFB>
100002544:	0f 1f 44 00 00 	nopl	(%rax,%rax)
100002549:	0f 1f 80 00 00 00 00 	nopl	(%rax)
100002550:	90 	nop
100002551:	90 	nop
100002552:	90 	nop
100002553:	90 	nop
100002554:	90 	nop
100002555:	90 	nop
100002556:	90 	nop
100002557:	90 	nop
100002558:	90 	nop
100002559:	90 	nop
10000255a:	90 	nop
10000255b:	90 	nop
10000255c:	90 	nop
10000255d:	90 	nop
10000255e:	90 	nop
10000255f:	90 	nop

___intel_cpu_features_init_x:
100002560:	50 	pushq	%rax
100002561:	33 c0 	xorl	%eax, %eax
100002563:	e8 18 00 00 00 	callq	24 <___intel_cpu_features_init_body>
100002568:	58 	popq	%rax
100002569:	c3 	retq
10000256a:	66 0f 1f 44 00 00 	nopw	(%rax,%rax)

___intel_cpu_features_init:
100002570:	50 	pushq	%rax
100002571:	b8 01 00 00 00 	movl	$1, %eax
100002576:	e8 05 00 00 00 	callq	5 <___intel_cpu_features_init_body>
10000257b:	58 	popq	%rax
10000257c:	c3 	retq
10000257d:	0f 1f 00 	nopl	(%rax)

___intel_cpu_features_init_body:
100002580:	52 	pushq	%rdx
100002581:	51 	pushq	%rcx
100002582:	53 	pushq	%rbx
100002583:	56 	pushq	%rsi
100002584:	41 51 	pushq	%r9
100002586:	41 54 	pushq	%r12
100002588:	41 56 	pushq	%r14
10000258a:	55 	pushq	%rbp
10000258b:	41 89 c6 	movl	%eax, %r14d
10000258e:	33 c0 	xorl	%eax, %eax
100002590:	0f a2 	cpuid
100002592:	89 44 24 e8 	movl	%eax, -24(%rsp)
100002596:	89 5c 24 ec 	movl	%ebx, -20(%rsp)
10000259a:	89 4c 24 f0 	movl	%ecx, -16(%rsp)
10000259e:	89 54 24 f4 	movl	%edx, -12(%rsp)
1000025a2:	83 7c 24 e8 00 	cmpl	$0, -24(%rsp)
1000025a7:	0f 84 21 04 00 00 	je	1057 <___intel_cpu_features_init_body+0x44E>
1000025ad:	41 83 fe 01 	cmpl	$1, %r14d
1000025b1:	0f 84 2e 04 00 00 	je	1070 <___intel_cpu_features_init_body+0x465>
1000025b7:	b8 01 00 00 00 	movl	$1, %eax
1000025bc:	0f a2 	cpuid
1000025be:	89 d6 	movl	%edx, %esi
1000025c0:	89 cd 	movl	%ecx, %ebp
1000025c2:	83 e6 01 	andl	$1, %esi
1000025c5:	f7 c2 00 80 00 00 	testl	$32768, %edx
1000025cb:	41 89 c4 	movl	%eax, %r12d
1000025ce:	48 8d 34 75 01 00 00 00 	leaq	1(,%rsi,2), %rsi
1000025d6:	4c 8d 4e 04 	leaq	4(%rsi), %r9
1000025da:	49 0f 45 f1 	cmovneq	%r9, %rsi
1000025de:	f7 c2 00 00 80 00 	testl	$8388608, %edx
1000025e4:	4c 8d 56 08 	leaq	8(%rsi), %r10
1000025e8:	49 0f 45 f2 	cmovneq	%r10, %rsi
1000025ec:	f7 c2 00 00 00 01 	testl	$16777216, %edx
1000025f2:	75 28 	jne	40 <___intel_cpu_features_init_body+0x9C>
1000025f4:	f7 c5 00 00 00 40 	testl	$1073741824, %ebp
1000025fa:	4c 8d 8e 00 00 02 00 	leaq	131072(%rsi), %r9
100002601:	49 0f 45 f1 	cmovneq	%r9, %rsi
100002605:	b8 07 00 00 00 	movl	$7, %eax
10000260a:	33 c9 	xorl	%ecx, %ecx
10000260c:	0f a2 	cpuid
10000260e:	41 89 d3 	movl	%edx, %r11d
100002611:	41 89 ca 	movl	%ecx, %r10d
100002614:	41 89 d9 	movl	%ebx, %r9d
100002617:	e9 03 01 00 00 	jmp	259 <___intel_cpu_features_init_body+0x19F>
10000261c:	48 83 c6 10 	addq	$16, %rsi
100002620:	49 89 f1 	movq	%rsi, %r9
100002623:	49 83 c9 20 	orq	$32, %r9
100002627:	f7 c2 00 00 00 02 	testl	$33554432, %edx
10000262d:	49 0f 45 f1 	cmovneq	%r9, %rsi
100002631:	49 89 f2 	movq	%rsi, %r10
100002634:	49 83 ca 40 	orq	$64, %r10
100002638:	f7 c2 00 00 00 04 	testl	$67108864, %edx
10000263e:	49 0f 45 f2 	cmovneq	%r10, %rsi
100002642:	49 89 f3 	movq	%rsi, %r11
100002645:	49 81 cb 80 00 00 00 	orq	$128, %r11
10000264c:	f7 c5 01 00 00 00 	testl	$1, %ebp
100002652:	49 0f 45 f3 	cmovneq	%r11, %rsi
100002656:	49 89 f1 	movq	%rsi, %r9
100002659:	49 81 c9 00 01 00 00 	orq	$256, %r9
100002660:	f7 c5 00 02 00 00 	testl	$512, %ebp
100002666:	49 0f 45 f1 	cmovneq	%r9, %rsi
10000266a:	49 89 f2 	movq	%rsi, %r10
10000266d:	49 81 ca 00 08 00 00 	orq	$2048, %r10
100002674:	f7 c5 00 00 40 00 	testl	$4194304, %ebp
10000267a:	49 0f 45 f2 	cmovneq	%r10, %rsi
10000267e:	48 89 f0 	movq	%rsi, %rax
100002681:	48 0d 00 02 00 00 	orq	$512, %rax
100002687:	f7 c5 00 00 08 00 	testl	$524288, %ebp
10000268d:	48 0f 45 f0 	cmovneq	%rax, %rsi
100002691:	48 89 f2 	movq	%rsi, %rdx
100002694:	48 81 ca 00 04 00 00 	orq	$1024, %rdx
10000269b:	f7 c5 00 00 10 00 	testl	$1048576, %ebp
1000026a1:	48 0f 45 f2 	cmovneq	%rdx, %rsi
1000026a5:	48 89 f1 	movq	%rsi, %rcx
1000026a8:	48 81 c9 00 10 00 00 	orq	$4096, %rcx
1000026af:	f7 c5 00 00 80 00 	testl	$8388608, %ebp
1000026b5:	48 0f 45 f1 	cmovneq	%rcx, %rsi
1000026b9:	48 89 f3 	movq	%rsi, %rbx
1000026bc:	48 81 cb 00 20 00 00 	orq	$8192, %rbx
1000026c3:	f7 c5 02 00 00 00 	testl	$2, %ebp
1000026c9:	48 0f 45 f3 	cmovneq	%rbx, %rsi
1000026cd:	49 89 f1 	movq	%rsi, %r9
1000026d0:	49 81 c9 00 40 00 00 	orq	$16384, %r9
1000026d7:	f7 c5 00 00 00 02 	testl	$33554432, %ebp
1000026dd:	49 0f 45 f1 	cmovneq	%r9, %rsi
1000026e1:	b8 07 00 00 00 	movl	$7, %eax
1000026e6:	33 c9 	xorl	%ecx, %ecx
1000026e8:	0f a2 	cpuid
1000026ea:	41 89 d3 	movl	%edx, %r11d
1000026ed:	41 89 d9 	movl	%ebx, %r9d
1000026f0:	48 ba 00 00 00 00 08 00 00 00 	movabsq	$34359738368, %rdx
1000026fa:	41 89 ca 	movl	%ecx, %r10d
1000026fd:	48 0b d6 	orq	%rsi, %rdx
100002700:	41 f7 c1 00 00 00 20 	testl	$536870912, %r9d
100002707:	48 0f 45 f2 	cmovneq	%rdx, %rsi
10000270b:	48 89 f1 	movq	%rsi, %rcx
10000270e:	48 81 c9 00 00 02 00 	orq	$131072, %rcx
100002715:	f7 c5 00 00 00 40 	testl	$1073741824, %ebp
10000271b:	48 0f 45 f1 	cmovneq	%rcx, %rsi
10000271f:	44 89 c8 	movl	%r9d, %eax
100002722:	48 89 f3 	movq	%rsi, %rbx
100002725:	25 08 01 00 00 	andl	$264, %eax
10000272a:	48 81 cb 00 00 08 00 	orq	$524288, %rbx
100002731:	3d 08 01 00 00 	cmpl	$264, %eax
100002736:	48 0f 44 f3 	cmoveq	%rbx, %rsi
10000273a:	b8 01 00 00 80 	movl	$2147483649, %eax
10000273f:	0f a2 	cpuid
100002741:	48 89 f2 	movq	%rsi, %rdx
100002744:	48 81 ca 00 00 10 00 	orq	$1048576, %rdx
10000274b:	f6 c1 20 	testb	$32, %cl
10000274e:	48 0f 45 f2 	cmovneq	%rdx, %rsi
100002752:	48 89 f1 	movq	%rsi, %rcx
100002755:	48 81 c9 00 00 20 00 	orq	$2097152, %rcx
10000275c:	41 f7 c1 10 00 00 00 	testl	$16, %r9d
100002763:	48 0f 45 f1 	cmovneq	%rcx, %rsi
100002767:	48 89 f0 	movq	%rsi, %rax
10000276a:	48 0d 00 00 40 00 	orq	$4194304, %rax
100002770:	41 f7 c1 00 08 00 00 	testl	$2048, %r9d
100002777:	48 0f 45 f0 	cmovneq	%rax, %rsi
10000277b:	48 89 f2 	movq	%rsi, %rdx
10000277e:	48 81 ca 00 00 00 10 	orq	$268435456, %rdx
100002785:	41 f7 c1 00 00 08 00 	testl	$524288, %r9d
10000278c:	48 0f 45 f2 	cmovneq	%rdx, %rsi
100002790:	48 89 f3 	movq	%rsi, %rbx
100002793:	48 81 cb 00 00 00 20 	orq	$536870912, %rbx
10000279a:	41 f7 c1 00 00 04 00 	testl	$262144, %r9d
1000027a1:	48 0f 45 f3 	cmovneq	%rbx, %rsi
1000027a5:	f7 c5 00 00 00 08 	testl	$134217728, %ebp
1000027ab:	0f 84 c0 01 00 00 	je	448 <___intel_cpu_features_init_body+0x3F1>
1000027b1:	33 c9 	xorl	%ecx, %ecx
1000027b3:	0f 01 d0 	xgetbv
1000027b6:	48 83 ce 01 	orq	$1, %rsi
1000027ba:	89 c2 	movl	%eax, %edx
1000027bc:	83 e2 06 	andl	$6, %edx
1000027bf:	83 fa 06 	cmpl	$6, %edx
1000027c2:	0f 85 a9 01 00 00 	jne	425 <___intel_cpu_features_init_body+0x3F1>
1000027c8:	48 89 f2 	movq	%rsi, %rdx
1000027cb:	48 81 ca 00 00 01 00 	orq	$65536, %rdx
1000027d2:	f7 c5 00 00 00 10 	testl	$268435456, %ebp
1000027d8:	48 0f 45 f2 	cmovneq	%rdx, %rsi
1000027dc:	48 89 f1 	movq	%rsi, %rcx
1000027df:	48 81 c9 00 80 00 00 	orq	$32768, %rcx
1000027e6:	f7 c5 00 00 00 20 	testl	$536870912, %ebp
1000027ec:	48 0f 45 f1 	cmovneq	%rcx, %rsi
1000027f0:	48 89 f3 	movq	%rsi, %rbx
1000027f3:	48 81 cb 00 00 80 00 	orq	$8388608, %rbx
1000027fa:	41 f7 c1 20 00 00 00 	testl	$32, %r9d
100002801:	48 0f 45 f3 	cmovneq	%rbx, %rsi
100002805:	48 89 f2 	movq	%rsi, %rdx
100002808:	48 81 ca 00 00 04 00 	orq	$262144, %rdx
10000280f:	f7 c5 00 10 00 00 	testl	$4096, %ebp
100002815:	89 c5 	movl	%eax, %ebp
100002817:	48 0f 45 f2 	cmovneq	%rdx, %rsi
10000281b:	83 e5 18 	andl	$24, %ebp
10000281e:	83 fd 18 	cmpl	$24, %ebp
100002821:	75 1c 	jne	28 <___intel_cpu_features_init_body+0x2BF>
100002823:	48 83 ce 01 	orq	$1, %rsi
100002827:	48 ba 00 00 00 00 10 00 00 00 	movabsq	$68719476736, %rdx
100002831:	48 0b d6 	orq	%rsi, %rdx
100002834:	41 f7 c1 00 40 00 00 	testl	$16384, %r9d
10000283b:	48 0f 45 f2 	cmovneq	%rdx, %rsi
10000283f:	25 e0 00 00 00 	andl	$224, %eax
100002844:	3d e0 00 00 00 	cmpl	$224, %eax
100002849:	0f 85 22 01 00 00 	jne	290 <___intel_cpu_features_init_body+0x3F1>
10000284f:	48 83 ce 01 	orq	$1, %rsi
100002853:	48 ba 00 00 00 00 04 00 00 00 	movabsq	$17179869184, %rdx
10000285d:	48 89 f0 	movq	%rsi, %rax
100002860:	48 b9 00 00 00 00 01 00 00 00 	movabsq	$4294967296, %rcx
10000286a:	48 0d 00 00 00 08 	orq	$134217728, %rax
100002870:	41 f7 c1 00 00 01 00 	testl	$65536, %r9d
100002877:	48 bb 00 00 00 00 02 00 00 00 	movabsq	$8589934592, %rbx
100002881:	48 0f 45 f0 	cmovneq	%rax, %rsi
100002885:	48 b8 00 00 00 00 20 00 00 00 	movabsq	$137438953472, %rax
10000288f:	48 0b d6 	orq	%rsi, %rdx
100002892:	41 f7 c1 00 00 00 10 	testl	$268435456, %r9d
100002899:	48 0f 45 f2 	cmovneq	%rdx, %rsi
10000289d:	44 89 ca 	movl	%r9d, %edx
1000028a0:	48 0b ce 	orq	%rsi, %rcx
1000028a3:	41 f7 c1 00 00 00 08 	testl	$134217728, %r9d
1000028aa:	48 0f 45 f1 	cmovneq	%rcx, %rsi
1000028ae:	48 b9 00 00 00 00 40 00 00 00 	movabsq	$274877906944, %rcx
1000028b8:	48 0b de 	orq	%rsi, %rbx
1000028bb:	41 f7 c1 00 00 00 04 	testl	$67108864, %r9d
1000028c2:	48 0f 45 f3 	cmovneq	%rbx, %rsi
1000028c6:	81 e2 00 00 00 80 	andl	$2147483648, %edx
1000028cc:	48 89 f5 	movq	%rsi, %rbp
1000028cf:	48 81 cd 00 00 00 01 	orq	$16777216, %rbp
1000028d6:	41 f7 c1 00 00 02 00 	testl	$131072, %r9d
1000028dd:	48 0f 45 f5 	cmovneq	%rbp, %rsi
1000028e1:	48 0b c6 	orq	%rsi, %rax
1000028e4:	41 f7 c1 00 00 00 40 	testl	$1073741824, %r9d
1000028eb:	48 0f 45 f0 	cmovneq	%rax, %rsi
1000028ef:	48 b8 00 00 00 00 00 04 00 00 	movabsq	$4398046511104, %rax
1000028f9:	48 0b ce 	orq	%rsi, %rcx
1000028fc:	81 fa 00 00 00 80 	cmpl	$2147483648, %edx
100002902:	48 0f 44 f1 	cmoveq	%rcx, %rsi
100002906:	48 89 f3 	movq	%rsi, %rbx
100002909:	48 81 cb 00 00 00 40 	orq	$1073741824, %rbx
100002910:	41 f7 c1 00 00 20 00 	testl	$2097152, %r9d
100002917:	49 b9 00 00 00 00 80 00 00 00 	movabsq	$549755813888, %r9
100002921:	48 0f 45 f3 	cmovneq	%rbx, %rsi
100002925:	4c 0b ce 	orq	%rsi, %r9
100002928:	41 f7 c2 02 00 00 00 	testl	$2, %r10d
10000292f:	49 0f 45 f1 	cmovneq	%r9, %rsi
100002933:	48 0b c6 	orq	%rsi, %rax
100002936:	41 f7 c2 00 40 00 00 	testl	$16384, %r10d
10000293d:	49 ba 00 00 00 00 00 02 00 00 	movabsq	$2199023255552, %r10
100002947:	48 0f 45 f0 	cmovneq	%rax, %rsi
10000294b:	48 b8 00 00 00 00 00 01 00 00 	movabsq	$1099511627776, %rax
100002955:	4c 0b d6 	orq	%rsi, %r10
100002958:	41 f7 c3 04 00 00 00 	testl	$4, %r11d
10000295f:	49 0f 45 f2 	cmovneq	%r10, %rsi
100002963:	48 0b c6 	orq	%rsi, %rax
100002966:	41 f7 c3 08 00 00 00 	testl	$8, %r11d
10000296d:	48 0f 45 f0 	cmovneq	%rax, %rsi
100002971:	44 89 e0 	movl	%r12d, %eax
100002974:	c1 e8 0c 	shrl	$12, %eax
100002977:	41 c1 ec 04 	shrl	$4, %r12d
10000297b:	25 f0 00 00 00 	andl	$240, %eax
100002980:	41 83 e4 0f 	andl	$15, %r12d
100002984:	41 03 c4 	addl	%r12d, %eax
100002987:	83 f8 1c 	cmpl	$28, %eax
10000298a:	74 0a 	je	10 <___intel_cpu_features_init_body+0x416>
10000298c:	83 f8 26 	cmpl	$38, %eax
10000298f:	74 05 	je	5 <___intel_cpu_features_init_body+0x416>
100002991:	83 f8 27 	cmpl	$39, %eax
100002994:	75 05 	jne	5 <___intel_cpu_features_init_body+0x41B>
100002996:	48 0f ba ee 1f 	btsq	$31, %rsi
10000299b:	41 83 fe 01 	cmpl	$1, %r14d
10000299f:	74 13 	je	19 <___intel_cpu_features_init_body+0x434>
1000029a1:	48 89 35 a0 65 00 00 	movq	%rsi, 26016(%rip)
1000029a8:	5d 	popq	%rbp
1000029a9:	41 5e 	popq	%r14
1000029ab:	41 5c 	popq	%r12
1000029ad:	41 59 	popq	%r9
1000029af:	5e 	popq	%rsi
1000029b0:	5b 	popq	%rbx
1000029b1:	59 	popq	%rcx
1000029b2:	5a 	popq	%rdx
1000029b3:	c3 	retq
1000029b4:	48 89 35 85 65 00 00 	movq	%rsi, 25989(%rip)
1000029bb:	48 89 35 86 65 00 00 	movq	%rsi, 25990(%rip)
1000029c2:	5d 	popq	%rbp
1000029c3:	41 5e 	popq	%r14
1000029c5:	41 5c 	popq	%r12
1000029c7:	41 59 	popq	%r9
1000029c9:	5e 	popq	%rsi
1000029ca:	5b 	popq	%rbx
1000029cb:	59 	popq	%rcx
1000029cc:	5a 	popq	%rdx
1000029cd:	c3 	retq
1000029ce:	48 c7 05 67 65 00 00 01 00 00 00 	movq	$1, 25959(%rip)
1000029d9:	5d 	popq	%rbp
1000029da:	41 5e 	popq	%r14
1000029dc:	41 5c 	popq	%r12
1000029de:	41 59 	popq	%r9
1000029e0:	5e 	popq	%rsi
1000029e1:	5b 	popq	%rbx
1000029e2:	59 	popq	%rcx
1000029e3:	5a 	popq	%rdx
1000029e4:	c3 	retq
1000029e5:	81 7c 24 ec 47 65 6e 75 	cmpl	$1970169159, -20(%rsp)
1000029ed:	75 df 	jne	-33 <___intel_cpu_features_init_body+0x44E>
1000029ef:	81 7c 24 f4 69 6e 65 49 	cmpl	$1231384169, -12(%rsp)
1000029f7:	75 d5 	jne	-43 <___intel_cpu_features_init_body+0x44E>
1000029f9:	81 7c 24 f0 6e 74 65 6c 	cmpl	$1818588270, -16(%rsp)
100002a01:	75 cb 	jne	-53 <___intel_cpu_features_init_body+0x44E>
100002a03:	e9 af fb ff ff 	jmp	-1105 <___intel_cpu_features_init_body+0x37>
100002a08:	0f 1f 84 00 00 00 00 00 	nopl	(%rax,%rax)
100002a10:	90 	nop
100002a11:	90 	nop
100002a12:	90 	nop
100002a13:	90 	nop
100002a14:	90 	nop
100002a15:	90 	nop
100002a16:	90 	nop
100002a17:	90 	nop
100002a18:	90 	nop
100002a19:	90 	nop
100002a1a:	90 	nop
100002a1b:	90 	nop
100002a1c:	90 	nop
100002a1d:	90 	nop
100002a1e:	90 	nop
100002a1f:	90 	nop

___intel_proc_init_ftzdazule:
100002a20:	48 81 ec 08 02 00 00 	subq	$520, %rsp
100002a27:	89 f2 	movl	%esi, %edx
100002a29:	89 f1 	movl	%esi, %ecx
100002a2b:	83 e2 04 	andl	$4, %edx
100002a2e:	83 e1 02 	andl	$2, %ecx
100002a31:	74 22 	je	34 <___intel_proc_init_ftzdazule+0x35>
100002a33:	f7 c7 02 00 00 00 	testl	$2, %edi
100002a39:	74 38 	je	56 <___intel_proc_init_ftzdazule+0x53>
100002a3b:	85 d2 	testl	%edx, %edx
100002a3d:	74 08 	je	8 <___intel_proc_init_ftzdazule+0x27>
100002a3f:	f7 c7 04 00 00 00 	testl	$4, %edi
100002a45:	74 2c 	je	44 <___intel_proc_init_ftzdazule+0x53>
100002a47:	f7 c6 01 00 00 00 	testl	$1, %esi
100002a4d:	0f 85 a6 00 00 00 	jne	166 <___intel_proc_init_ftzdazule+0xD9>
100002a53:	eb 64 	jmp	100 <___intel_proc_init_ftzdazule+0x99>
100002a55:	85 d2 	testl	%edx, %edx
100002a57:	0f 84 8c 00 00 00 	je	140 <___intel_proc_init_ftzdazule+0xC9>
100002a5d:	f7 c7 04 00 00 00 	testl	$4, %edi
100002a63:	74 0e 	je	14 <___intel_proc_init_ftzdazule+0x53>
100002a65:	f7 c6 01 00 00 00 	testl	$1, %esi
100002a6b:	0f 85 88 00 00 00 	jne	136 <___intel_proc_init_ftzdazule+0xD9>
100002a71:	eb 5b 	jmp	91 <___intel_proc_init_ftzdazule+0xAE>
100002a73:	b8 00 02 00 00 	movl	$512, %eax
100002a78:	66 0f ef c0 	pxor	%xmm0, %xmm0
100002a7c:	0f 29 44 04 f0 	movaps	%xmm0, -16(%rsp,%rax)
100002a81:	0f 29 44 04 e0 	movaps	%xmm0, -32(%rsp,%rax)
100002a86:	0f 29 44 04 d0 	movaps	%xmm0, -48(%rsp,%rax)
100002a8b:	0f 29 44 04 c0 	movaps	%xmm0, -64(%rsp,%rax)
100002a90:	48 83 e8 40 	subq	$64, %rax
100002a94:	75 e6 	jne	-26 <___intel_proc_init_ftzdazule+0x5C>
100002a96:	0f ae 04 24 	fxsave	(%rsp)
100002a9a:	33 ff 	xorl	%edi, %edi
100002a9c:	8b 44 24 1c 	movl	28(%rsp), %eax
100002aa0:	a8 40 	testb	$64, %al
100002aa2:	0f 44 cf 	cmovel	%edi, %ecx
100002aa5:	a9 00 00 02 00 	testl	$131072, %eax
100002aaa:	0f 44 d7 	cmovel	%edi, %edx
100002aad:	f7 c6 01 00 00 00 	testl	$1, %esi
100002ab3:	75 44 	jne	68 <___intel_proc_init_ftzdazule+0xD9>
100002ab5:	85 c9 	testl	%ecx, %ecx
100002ab7:	74 11 	je	17 <___intel_proc_init_ftzdazule+0xAA>
100002ab9:	0f ae 1c 24 	stmxcsr	(%rsp)
100002abd:	8b 04 24 	movl	(%rsp), %eax
100002ac0:	83 c8 40 	orl	$64, %eax
100002ac3:	89 04 24 	movl	%eax, (%rsp)
100002ac6:	0f ae 14 24 	ldmxcsr	(%rsp)
100002aca:	85 d2 	testl	%edx, %edx
100002acc:	74 23 	je	35 <___intel_proc_init_ftzdazule+0xD1>
100002ace:	0f ae 1c 24 	stmxcsr	(%rsp)
100002ad2:	8b 04 24 	movl	(%rsp), %eax
100002ad5:	0d 00 00 02 00 	orl	$131072, %eax
100002ada:	89 04 24 	movl	%eax, (%rsp)
100002add:	0f ae 14 24 	ldmxcsr	(%rsp)
100002ae1:	48 81 c4 08 02 00 00 	addq	$520, %rsp
100002ae8:	c3 	retq
100002ae9:	f7 c6 01 00 00 00 	testl	$1, %esi
100002aef:	75 08 	jne	8 <___intel_proc_init_ftzdazule+0xD9>
100002af1:	48 81 c4 08 02 00 00 	addq	$520, %rsp
100002af8:	c3 	retq
100002af9:	0f ae 1c 24 	stmxcsr	(%rsp)
100002afd:	8b 04 24 	movl	(%rsp), %eax
100002b00:	0d 00 80 00 00 	orl	$32768, %eax
100002b05:	89 04 24 	movl	%eax, (%rsp)
100002b08:	0f ae 14 24 	ldmxcsr	(%rsp)
100002b0c:	eb a7 	jmp	-89 <___intel_proc_init_ftzdazule+0x95>
100002b0e:	66 90 	nop
100002b10:	90 	nop
100002b11:	90 	nop
100002b12:	90 	nop
100002b13:	90 	nop
100002b14:	90 	nop
100002b15:	90 	nop
100002b16:	90 	nop
100002b17:	90 	nop
100002b18:	90 	nop
100002b19:	90 	nop
100002b1a:	90 	nop
100002b1b:	90 	nop
100002b1c:	90 	nop
100002b1d:	90 	nop
100002b1e:	90 	nop
100002b1f:	90 	nop

___intel_new_feature_proc_init:
100002b20:	41 54 	pushq	%r12
100002b22:	41 55 	pushq	%r13
100002b24:	41 56 	pushq	%r14
100002b26:	41 57 	pushq	%r15
100002b28:	48 81 ec 18 04 00 00 	subq	$1048, %rsp
100002b2f:	49 89 f4 	movq	%rsi, %r12
100002b32:	4c 8d 3d 07 64 00 00 	leaq	25607(%rip), %r15
100002b39:	41 89 fe 	movl	%edi, %r14d
100002b3c:	4d 8b 2f 	movq	(%r15), %r13
100002b3f:	4d 85 ed 	testq	%r13, %r13
100002b42:	0f 84 c9 03 00 00 	je	969 <___intel_new_feature_proc_init+0x3F1>
100002b48:	4c 89 e8 	movq	%r13, %rax
100002b4b:	49 23 c4 	andq	%r12, %rax
100002b4e:	49 3b c4 	cmpq	%r12, %rax
100002b51:	0f 84 35 03 00 00 	je	821 <___intel_new_feature_proc_init+0x36C>
100002b57:	49 f7 c4 01 00 00 00 	testq	$1, %r12
100002b5e:	0f 85 8c 03 00 00 	jne	908 <___intel_new_feature_proc_init+0x3D0>
100002b64:	45 33 f6 	xorl	%r14d, %r14d
100002b67:	49 f7 d5 	notq	%r13
100002b6a:	bf 39 00 00 00 	movl	$57, %edi
100002b6f:	33 f6 	xorl	%esi, %esi
100002b71:	33 c0 	xorl	%eax, %eax
100002b73:	4d 23 ec 	andq	%r12, %r13
100002b76:	45 33 ff 	xorl	%r15d, %r15d
100002b79:	e8 42 f4 ff ff 	callq	-3006 <___libirc_get_msg>
100002b7e:	4c 89 fa 	movq	%r15, %rdx
100002b81:	41 bc 01 00 00 00 	movl	$1, %r12d
100002b87:	c6 04 24 00 	movb	$0, (%rsp)
100002b8b:	49 89 d0 	movq	%rdx, %r8
100002b8e:	48 89 9c 24 08 04 00 00 	movq	%rbx, 1032(%rsp)
100002b96:	48 89 ac 24 00 04 00 00 	movq	%rbp, 1024(%rsp)
100002b9e:	4c 89 f5 	movq	%r14, %rbp
100002ba1:	49 89 c6 	movq	%rax, %r14
100002ba4:	bb 01 00 00 00 	movl	$1, %ebx
100002ba9:	41 8d 4c 24 3f 	leal	63(%r12), %ecx
100002bae:	48 d3 e3 	shlq	%cl, %rbx
100002bb1:	41 83 fc 2b 	cmpl	$43, %r12d
100002bb5:	49 0f 47 df 	cmovaq	%r15, %rbx
100002bb9:	4c 85 eb 	testq	%r13, %rbx
100002bbc:	0f 84 bc 01 00 00 	je	444 <___intel_new_feature_proc_init+0x25E>
100002bc2:	48 8d 0d b7 5d 00 00 	leaq	23991(%rip), %rcx
100002bc9:	4a 8b 1c e1 	movq	(%rcx,%r12,8), %rbx
100002bcd:	48 85 db 	testq	%rbx, %rbx
100002bd0:	0f 84 08 03 00 00 	je	776 <___intel_new_feature_proc_init+0x3BE>
100002bd6:	80 3b 00 	cmpb	$0, (%rbx)
100002bd9:	0f 84 ff 02 00 00 	je	767 <___intel_new_feature_proc_init+0x3BE>
100002bdf:	80 3c 24 00 	cmpb	$0, (%rsp)
100002be3:	0f 84 48 01 00 00 	je	328 <___intel_new_feature_proc_init+0x211>
100002be9:	48 85 ed 	testq	%rbp, %rbp
100002bec:	0f 84 3a 01 00 00 	je	314 <___intel_new_feature_proc_init+0x20C>
100002bf2:	48 89 ea 	movq	%rbp, %rdx
100002bf5:	48 89 d1 	movq	%rdx, %rcx
100002bf8:	48 83 e2 f0 	andq	$-16, %rdx
100002bfc:	66 0f ef c0 	pxor	%xmm0, %xmm0
100002c00:	66 0f 74 02 	pcmpeqb	(%rdx), %xmm0
100002c04:	66 0f d7 c0 	pmovmskb	%xmm0, %eax
100002c08:	83 e1 0f 	andl	$15, %ecx
100002c0b:	d3 e8 	shrl	%cl, %eax
100002c0d:	0f bc c0 	bsfl	%eax, %eax
100002c10:	75 0b 	jne	11 <___intel_new_feature_proc_init+0xFD>
100002c12:	48 89 d0 	movq	%rdx, %rax
100002c15:	48 03 d1 	addq	%rcx, %rdx
100002c18:	e8 43 03 00 00 	callq	835 <___intel_sse2_strlen>
100002c1d:	4c 89 f2 	movq	%r14, %rdx
100002c20:	49 89 c1 	movq	%rax, %r9
100002c23:	48 89 d1 	movq	%rdx, %rcx
100002c26:	48 83 e2 f0 	andq	$-16, %rdx
100002c2a:	66 0f ef c0 	pxor	%xmm0, %xmm0
100002c2e:	66 0f 74 02 	pcmpeqb	(%rdx), %xmm0
100002c32:	66 0f d7 c0 	pmovmskb	%xmm0, %eax
100002c36:	83 e1 0f 	andl	$15, %ecx
100002c39:	d3 e8 	shrl	%cl, %eax
100002c3b:	0f bc c0 	bsfl	%eax, %eax
100002c3e:	75 0b 	jne	11 <___intel_new_feature_proc_init+0x12B>
100002c40:	48 89 d0 	movq	%rdx, %rax
100002c43:	48 03 d1 	addq	%rcx, %rdx
100002c46:	e8 15 03 00 00 	callq	789 <___intel_sse2_strlen>
100002c4b:	48 89 da 	movq	%rbx, %rdx
100002c4e:	48 89 c7 	movq	%rax, %rdi
100002c51:	48 89 d1 	movq	%rdx, %rcx
100002c54:	48 83 e2 f0 	andq	$-16, %rdx
100002c58:	66 0f ef c0 	pxor	%xmm0, %xmm0
100002c5c:	66 0f 74 02 	pcmpeqb	(%rdx), %xmm0
100002c60:	66 0f d7 c0 	pmovmskb	%xmm0, %eax
100002c64:	83 e1 0f 	andl	$15, %ecx
100002c67:	d3 e8 	shrl	%cl, %eax
100002c69:	0f bc c0 	bsfl	%eax, %eax
100002c6c:	75 0b 	jne	11 <___intel_new_feature_proc_init+0x159>
100002c6e:	48 89 d0 	movq	%rdx, %rax
100002c71:	48 03 d1 	addq	%rcx, %rdx
100002c74:	e8 e7 02 00 00 	callq	743 <___intel_sse2_strlen>
100002c79:	4d 03 c8 	addq	%r8, %r9
100002c7c:	4c 03 cf 	addq	%rdi, %r9
100002c7f:	49 8d 4c 01 02 	leaq	2(%r9,%rax), %rcx
100002c84:	48 81 f9 00 04 00 00 	cmpq	$1024, %rcx
100002c8b:	0f 83 14 02 00 00 	jae	532 <___intel_new_feature_proc_init+0x385>
100002c91:	49 f7 d8 	negq	%r8
100002c94:	48 8d 3c 24 	leaq	(%rsp), %rdi
100002c98:	49 81 c0 ff 03 00 00 	addq	$1023, %r8
100002c9f:	48 8d 35 be 46 00 00 	leaq	18110(%rip), %rsi
100002ca6:	4c 89 c2 	movq	%r8, %rdx
100002ca9:	b9 00 04 00 00 	movl	$1024, %ecx
100002cae:	e8 a3 37 00 00 	callq	14243
100002cb3:	48 8d 14 24 	leaq	(%rsp), %rdx
100002cb7:	48 89 d1 	movq	%rdx, %rcx
100002cba:	48 83 e2 f0 	andq	$-16, %rdx
100002cbe:	66 0f ef c0 	pxor	%xmm0, %xmm0
100002cc2:	66 0f 74 02 	pcmpeqb	(%rdx), %xmm0
100002cc6:	66 0f d7 c0 	pmovmskb	%xmm0, %eax
100002cca:	83 e1 0f 	andl	$15, %ecx
100002ccd:	d3 e8 	shrl	%cl, %eax
100002ccf:	0f bc c0 	bsfl	%eax, %eax
100002cd2:	75 0b 	jne	11 <___intel_new_feature_proc_init+0x1BF>
100002cd4:	48 89 d0 	movq	%rdx, %rax
100002cd7:	48 03 d1 	addq	%rcx, %rdx
100002cda:	e8 81 02 00 00 	callq	641 <___intel_sse2_strlen>
100002cdf:	48 63 d0 	movslq	%eax, %rdx
100002ce2:	48 8d 3c 24 	leaq	(%rsp), %rdi
100002ce6:	48 f7 da 	negq	%rdx
100002ce9:	48 89 ee 	movq	%rbp, %rsi
100002cec:	48 81 c2 ff 03 00 00 	addq	$1023, %rdx
100002cf3:	b9 00 04 00 00 	movl	$1024, %ecx
100002cf8:	e8 59 37 00 00 	callq	14169
100002cfd:	48 8d 14 24 	leaq	(%rsp), %rdx
100002d01:	48 89 d1 	movq	%rdx, %rcx
100002d04:	48 83 e2 f0 	andq	$-16, %rdx
100002d08:	66 0f ef c0 	pxor	%xmm0, %xmm0
100002d0c:	66 0f 74 02 	pcmpeqb	(%rdx), %xmm0
100002d10:	66 0f d7 c0 	pmovmskb	%xmm0, %eax
100002d14:	83 e1 0f 	andl	$15, %ecx
100002d17:	d3 e8 	shrl	%cl, %eax
100002d19:	0f bc c0 	bsfl	%eax, %eax
100002d1c:	75 0b 	jne	11 <___intel_new_feature_proc_init+0x209>
100002d1e:	48 89 d0 	movq	%rdx, %rax
100002d21:	48 03 d1 	addq	%rcx, %rdx
100002d24:	e8 37 02 00 00 	callq	567 <___intel_sse2_strlen>
100002d29:	4c 63 c0 	movslq	%eax, %r8
100002d2c:	48 89 dd 	movq	%rbx, %rbp
100002d2f:	eb 4d 	jmp	77 <___intel_new_feature_proc_init+0x25E>
100002d31:	49 f7 d8 	negq	%r8
100002d34:	48 8d 3c 24 	leaq	(%rsp), %rdi
100002d38:	49 81 c0 ff 03 00 00 	addq	$1023, %r8
100002d3f:	48 89 de 	movq	%rbx, %rsi
100002d42:	4c 89 c2 	movq	%r8, %rdx
100002d45:	b9 00 04 00 00 	movl	$1024, %ecx
100002d4a:	e8 07 37 00 00 	callq	14087
100002d4f:	48 8d 14 24 	leaq	(%rsp), %rdx
100002d53:	48 89 d1 	movq	%rdx, %rcx
100002d56:	48 83 e2 f0 	andq	$-16, %rdx
100002d5a:	66 0f ef c0 	pxor	%xmm0, %xmm0
100002d5e:	66 0f 74 02 	pcmpeqb	(%rdx), %xmm0
100002d62:	66 0f d7 c0 	pmovmskb	%xmm0, %eax
100002d66:	83 e1 0f 	andl	$15, %ecx
100002d69:	d3 e8 	shrl	%cl, %eax
100002d6b:	0f bc c0 	bsfl	%eax, %eax
100002d6e:	75 0b 	jne	11 <___intel_new_feature_proc_init+0x25B>
100002d70:	48 89 d0 	movq	%rdx, %rax
100002d73:	48 03 d1 	addq	%rcx, %rdx
100002d76:	e8 e5 01 00 00 	callq	485 <___intel_sse2_strlen>
100002d7b:	4c 63 c0 	movslq	%eax, %r8
100002d7e:	41 ff c4 	incl	%r12d
100002d81:	41 83 fc 2b 	cmpl	$43, %r12d
100002d85:	0f 8e 19 fe ff ff 	jle	-487 <___intel_new_feature_proc_init+0x84>
100002d8b:	4c 89 f0 	movq	%r14, %rax
100002d8e:	49 89 ee 	movq	%rbp, %r14
100002d91:	48 8b 9c 24 08 04 00 00 	movq	1032(%rsp), %rbx
100002d99:	4c 89 c2 	movq	%r8, %rdx
100002d9c:	48 8b ac 24 00 04 00 00 	movq	1024(%rsp), %rbp
100002da4:	4d 85 f6 	testq	%r14, %r14
100002da7:	74 65 	je	101 <___intel_new_feature_proc_init+0x2EE>
100002da9:	48 f7 da 	negq	%rdx
100002dac:	48 8d 3c 24 	leaq	(%rsp), %rdi
100002db0:	48 81 c2 ff 03 00 00 	addq	$1023, %rdx
100002db7:	48 89 c6 	movq	%rax, %rsi
100002dba:	b9 00 04 00 00 	movl	$1024, %ecx
100002dbf:	e8 92 36 00 00 	callq	13970
100002dc4:	48 8d 14 24 	leaq	(%rsp), %rdx
100002dc8:	48 89 d1 	movq	%rdx, %rcx
100002dcb:	48 83 e2 f0 	andq	$-16, %rdx
100002dcf:	66 0f ef c0 	pxor	%xmm0, %xmm0
100002dd3:	66 0f 74 02 	pcmpeqb	(%rdx), %xmm0
100002dd7:	66 0f d7 c0 	pmovmskb	%xmm0, %eax
100002ddb:	83 e1 0f 	andl	$15, %ecx
100002dde:	d3 e8 	shrl	%cl, %eax
100002de0:	0f bc c0 	bsfl	%eax, %eax
100002de3:	75 0b 	jne	11 <___intel_new_feature_proc_init+0x2D0>
100002de5:	48 89 d0 	movq	%rdx, %rax
100002de8:	48 03 d1 	addq	%rcx, %rdx
100002deb:	e8 70 01 00 00 	callq	368 <___intel_sse2_strlen>
100002df0:	48 63 d0 	movslq	%eax, %rdx
100002df3:	48 8d 3c 24 	leaq	(%rsp), %rdi
100002df7:	48 f7 da 	negq	%rdx
100002dfa:	4c 89 f6 	movq	%r14, %rsi
100002dfd:	48 81 c2 ff 03 00 00 	addq	$1023, %rdx
100002e04:	b9 00 04 00 00 	movl	$1024, %ecx
100002e09:	e8 48 36 00 00 	callq	13896
100002e0e:	80 3c 24 00 	cmpb	$0, (%rsp)
100002e12:	75 3d 	jne	61 <___intel_new_feature_proc_init+0x331>
100002e14:	33 f6 	xorl	%esi, %esi
100002e16:	bf 01 00 00 00 	movl	$1, %edi
100002e1b:	33 d2 	xorl	%edx, %edx
100002e1d:	33 c0 	xorl	%eax, %eax
100002e1f:	e8 2c f4 ff ff 	callq	-3028 <___libirc_print>
100002e24:	bf 01 00 00 00 	movl	$1, %edi
100002e29:	be 3a 00 00 00 	movl	$58, %esi
100002e2e:	33 d2 	xorl	%edx, %edx
100002e30:	33 c0 	xorl	%eax, %eax
100002e32:	e8 19 f4 ff ff 	callq	-3047 <___libirc_print>
100002e37:	33 f6 	xorl	%esi, %esi
100002e39:	bf 01 00 00 00 	movl	$1, %edi
100002e3e:	33 d2 	xorl	%edx, %edx
100002e40:	33 c0 	xorl	%eax, %eax
100002e42:	e8 09 f4 ff ff 	callq	-3063 <___libirc_print>
100002e47:	bf 01 00 00 00 	movl	$1, %edi
100002e4c:	e8 1d 36 00 00 	callq	13853
100002e51:	33 f6 	xorl	%esi, %esi
100002e53:	bf 01 00 00 00 	movl	$1, %edi
100002e58:	33 d2 	xorl	%edx, %edx
100002e5a:	33 c0 	xorl	%eax, %eax
100002e5c:	e8 ef f3 ff ff 	callq	-3089 <___libirc_print>
100002e61:	bf 01 00 00 00 	movl	$1, %edi
100002e66:	be 38 00 00 00 	movl	$56, %esi
100002e6b:	89 fa 	movl	%edi, %edx
100002e6d:	48 8d 0c 24 	leaq	(%rsp), %rcx
100002e71:	33 c0 	xorl	%eax, %eax
100002e73:	e8 d8 f3 ff ff 	callq	-3112 <___libirc_print>
100002e78:	eb bd 	jmp	-67 <___intel_new_feature_proc_init+0x317>
100002e7a:	33 f6 	xorl	%esi, %esi
100002e7c:	bf 01 00 00 00 	movl	$1, %edi
100002e81:	33 d2 	xorl	%edx, %edx
100002e83:	33 c0 	xorl	%eax, %eax
100002e85:	e8 c6 f3 ff ff 	callq	-3130 <___libirc_print>
100002e8a:	eb 98 	jmp	-104 <___intel_new_feature_proc_init+0x304>
100002e8c:	49 f7 c5 20 00 00 00 	testq	$32, %r13
100002e93:	75 70 	jne	112 <___intel_new_feature_proc_init+0x3E5>
100002e95:	48 81 c4 18 04 00 00 	addq	$1048, %rsp
100002e9c:	41 5f 	popq	%r15
100002e9e:	41 5e 	popq	%r14
100002ea0:	41 5d 	popq	%r13
100002ea2:	41 5c 	popq	%r12
100002ea4:	c3 	retq
100002ea5:	4c 89 c2 	movq	%r8, %rdx
100002ea8:	4c 89 f0 	movq	%r14, %rax
100002eab:	48 f7 da 	negq	%rdx
100002eae:	48 8d 3c 24 	leaq	(%rsp), %rdi
100002eb2:	48 81 c2 ff 03 00 00 	addq	$1023, %rdx
100002eb9:	48 89 c6 	movq	%rax, %rsi
100002ebc:	b9 00 04 00 00 	movl	$1024, %ecx
100002ec1:	49 89 ee 	movq	%rbp, %r14
100002ec4:	48 8b 9c 24 08 04 00 00 	movq	1032(%rsp), %rbx
100002ecc:	48 8b ac 24 00 04 00 00 	movq	1024(%rsp), %rbp
100002ed4:	e8 7d 35 00 00 	callq	13693
100002ed9:	e9 e6 fe ff ff 	jmp	-282 <___intel_new_feature_proc_init+0x2A4>
100002ede:	48 8b 9c 24 08 04 00 00 	movq	1032(%rsp), %rbx
100002ee6:	48 8b ac 24 00 04 00 00 	movq	1024(%rsp), %rbp
100002eee:	eb 8a 	jmp	-118 <___intel_new_feature_proc_init+0x35A>
100002ef0:	33 f6 	xorl	%esi, %esi
100002ef2:	bf 01 00 00 00 	movl	$1, %edi
100002ef7:	33 d2 	xorl	%edx, %edx
100002ef9:	33 c0 	xorl	%eax, %eax
100002efb:	e8 50 f3 ff ff 	callq	-3248 <___libirc_print>
100002f00:	e9 1f ff ff ff 	jmp	-225 <___intel_new_feature_proc_init+0x304>
100002f05:	33 ff 	xorl	%edi, %edi
100002f07:	44 89 f6 	movl	%r14d, %esi
100002f0a:	e8 11 fb ff ff 	callq	-1263 <___intel_proc_init_ftzdazule>
100002f0f:	eb 84 	jmp	-124 <___intel_new_feature_proc_init+0x375>
100002f11:	33 c0 	xorl	%eax, %eax
100002f13:	e8 58 f6 ff ff 	callq	-2472 <___intel_cpu_features_init>
100002f18:	4d 8b 2f 	movq	(%r15), %r13
100002f1b:	4d 85 ed 	testq	%r13, %r13
100002f1e:	0f 85 24 fc ff ff 	jne	-988 <___intel_new_feature_proc_init+0x28>
100002f24:	33 f6 	xorl	%esi, %esi
100002f26:	bf 01 00 00 00 	movl	$1, %edi
100002f2b:	33 d2 	xorl	%edx, %edx
100002f2d:	33 c0 	xorl	%eax, %eax
100002f2f:	e8 1c f3 ff ff 	callq	-3300 <___libirc_print>
100002f34:	bf 01 00 00 00 	movl	$1, %edi
100002f39:	be 3b 00 00 00 	movl	$59, %esi
100002f3e:	33 d2 	xorl	%edx, %edx
100002f40:	33 c0 	xorl	%eax, %eax
100002f42:	e8 09 f3 ff ff 	callq	-3319 <___libirc_print>
100002f47:	e9 eb fe ff ff 	jmp	-277 <___intel_new_feature_proc_init+0x317>
100002f4c:	0f 1f 40 00 	nopl	(%rax)
100002f50:	90 	nop
100002f51:	90 	nop
100002f52:	90 	nop
100002f53:	90 	nop
100002f54:	90 	nop
100002f55:	90 	nop
100002f56:	90 	nop
100002f57:	90 	nop
100002f58:	90 	nop
100002f59:	90 	nop
100002f5a:	90 	nop
100002f5b:	90 	nop
100002f5c:	90 	nop
100002f5d:	90 	nop
100002f5e:	90 	nop
100002f5f:	90 	nop

___intel_sse2_strlen:
100002f60:	66 0f ef c0 	pxor	%xmm0, %xmm0
100002f64:	48 83 c0 10 	addq	$16, %rax
100002f68:	66 0f 6f 08 	movdqa	(%rax), %xmm1
100002f6c:	66 0f 74 c8 	pcmpeqb	%xmm0, %xmm1
100002f70:	66 0f d7 c9 	pmovmskb	%xmm1, %ecx
100002f74:	85 c9 	testl	%ecx, %ecx
100002f76:	74 ec 	je	-20 <___intel_sse2_strlen+0x4>
100002f78:	0f bc c9 	bsfl	%ecx, %ecx
100002f7b:	48 2b ca 	subq	%rdx, %rcx
100002f7e:	48 03 c1 	addq	%rcx, %rax
100002f81:	c3 	retq
100002f82:	0f 1f 80 00 00 00 00 	nopl	(%rax)
100002f89:	0f 1f 80 00 00 00 00 	nopl	(%rax)
100002f90:	90 	nop
100002f91:	90 	nop
100002f92:	90 	nop
100002f93:	90 	nop
100002f94:	90 	nop
100002f95:	90 	nop
100002f96:	90 	nop
100002f97:	90 	nop
100002f98:	90 	nop
100002f99:	90 	nop
100002f9a:	90 	nop
100002f9b:	90 	nop
100002f9c:	90 	nop
100002f9d:	90 	nop
100002f9e:	90 	nop
100002f9f:	90 	nop

___intel_sse2_strchr:
100002fa0:	48 83 c0 10 	addq	$16, %rax
100002fa4:	66 0f ef c0 	pxor	%xmm0, %xmm0
100002fa8:	66 0f 6f 10 	movdqa	(%rax), %xmm2
100002fac:	66 0f 74 c2 	pcmpeqb	%xmm2, %xmm0
100002fb0:	66 0f 74 d1 	pcmpeqb	%xmm1, %xmm2
100002fb4:	66 0f d7 ca 	pmovmskb	%xmm2, %ecx
100002fb8:	85 c9 	testl	%ecx, %ecx
100002fba:	75 0b 	jne	11 <___intel_sse2_strchr+0x27>
100002fbc:	66 0f d7 c8 	pmovmskb	%xmm0, %ecx
100002fc0:	85 c9 	testl	%ecx, %ecx
100002fc2:	74 dc 	je	-36 <___intel_sse2_strchr>
100002fc4:	33 c0 	xorl	%eax, %eax
100002fc6:	c3 	retq
100002fc7:	44 0f bc d1 	bsfl	%ecx, %r10d
100002fcb:	66 0f d7 c8 	pmovmskb	%xmm0, %ecx
100002fcf:	85 c9 	testl	%ecx, %ecx
100002fd1:	74 08 	je	8 <___intel_sse2_strchr+0x3B>
100002fd3:	0f bc c9 	bsfl	%ecx, %ecx
100002fd6:	41 3b ca 	cmpl	%r10d, %ecx
100002fd9:	72 e9 	jb	-23 <___intel_sse2_strchr+0x24>
100002fdb:	49 03 c2 	addq	%r10, %rax
100002fde:	c3 	retq
100002fdf:	90 	nop
100002fe0:	90 	nop
100002fe1:	90 	nop
100002fe2:	90 	nop
100002fe3:	90 	nop
100002fe4:	90 	nop
100002fe5:	90 	nop
100002fe6:	90 	nop
100002fe7:	90 	nop
100002fe8:	90 	nop
100002fe9:	90 	nop
100002fea:	90 	nop
100002feb:	90 	nop
100002fec:	90 	nop
100002fed:	90 	nop
100002fee:	90 	nop
100002fef:	90 	nop

___intel_ssse3_strncpy:
100002ff0:	48 89 f1 	movq	%rsi, %rcx
100002ff3:	48 89 fa 	movq	%rdi, %rdx
100002ff6:	4d 85 c0 	testq	%r8, %r8
100002ff9:	0f 84 a1 21 00 00 	je	8609 <___intel_ssse3_strncpy+0x21B0>
100002fff:	49 83 f8 08 	cmpq	$8, %r8
100003003:	0f 86 37 22 00 00 	jbe	8759 <___intel_ssse3_strncpy+0x2250>
100003009:	80 39 00 	cmpb	$0, (%rcx)
10000300c:	0f 84 9e 1d 00 00 	je	7582 <___intel_ssse3_strncpy+0x1DC0>
100003012:	80 79 01 00 	cmpb	$0, 1(%rcx)
100003016:	0f 84 b4 1d 00 00 	je	7604 <___intel_ssse3_strncpy+0x1DE0>
10000301c:	80 79 02 00 	cmpb	$0, 2(%rcx)
100003020:	0f 84 ca 1d 00 00 	je	7626 <___intel_ssse3_strncpy+0x1E00>
100003026:	80 79 03 00 	cmpb	$0, 3(%rcx)
10000302a:	0f 84 e0 1d 00 00 	je	7648 <___intel_ssse3_strncpy+0x1E20>
100003030:	80 79 04 00 	cmpb	$0, 4(%rcx)
100003034:	0f 84 f6 1d 00 00 	je	7670 <___intel_ssse3_strncpy+0x1E40>
10000303a:	80 79 05 00 	cmpb	$0, 5(%rcx)
10000303e:	0f 84 0c 1e 00 00 	je	7692 <___intel_ssse3_strncpy+0x1E60>
100003044:	80 79 06 00 	cmpb	$0, 6(%rcx)
100003048:	0f 84 22 1e 00 00 	je	7714 <___intel_ssse3_strncpy+0x1E80>
10000304e:	80 79 07 00 	cmpb	$0, 7(%rcx)
100003052:	0f 84 f8 1a 00 00 	je	6904 <___intel_ssse3_strncpy+0x1B60>
100003058:	49 83 f8 10 	cmpq	$16, %r8
10000305c:	0f 82 4e 21 00 00 	jb	8526 <___intel_ssse3_strncpy+0x21C0>
100003062:	80 79 08 00 	cmpb	$0, 8(%rcx)
100003066:	0f 84 24 1e 00 00 	je	7716 <___intel_ssse3_strncpy+0x1EA0>
10000306c:	80 79 09 00 	cmpb	$0, 9(%rcx)
100003070:	0f 84 3a 1e 00 00 	je	7738 <___intel_ssse3_strncpy+0x1EC0>
100003076:	80 79 0a 00 	cmpb	$0, 10(%rcx)
10000307a:	0f 84 50 1e 00 00 	je	7760 <___intel_ssse3_strncpy+0x1EE0>
100003080:	80 79 0b 00 	cmpb	$0, 11(%rcx)
100003084:	0f 84 66 1e 00 00 	je	7782 <___intel_ssse3_strncpy+0x1F00>
10000308a:	80 79 0c 00 	cmpb	$0, 12(%rcx)
10000308e:	0f 84 7c 1e 00 00 	je	7804 <___intel_ssse3_strncpy+0x1F20>
100003094:	80 79 0d 00 	cmpb	$0, 13(%rcx)
100003098:	0f 84 92 1e 00 00 	je	7826 <___intel_ssse3_strncpy+0x1F40>
10000309e:	80 79 0e 00 	cmpb	$0, 14(%rcx)
1000030a2:	0f 84 a8 1e 00 00 	je	7848 <___intel_ssse3_strncpy+0x1F60>
1000030a8:	49 83 f8 10 	cmpq	$16, %r8
1000030ac:	0f 84 fe 1a 00 00 	je	6910 <___intel_ssse3_strncpy+0x1BC0>
1000030b2:	80 79 0f 00 	cmpb	$0, 15(%rcx)
1000030b6:	0f 84 f4 1a 00 00 	je	6900 <___intel_ssse3_strncpy+0x1BC0>
1000030bc:	48 89 ce 	movq	%rcx, %rsi
1000030bf:	48 83 e6 0f 	andq	$15, %rsi
1000030c3:	4c 03 c6 	addq	%rsi, %r8
1000030c6:	48 8d 71 10 	leaq	16(%rcx), %rsi
1000030ca:	48 83 e6 f0 	andq	$-16, %rsi
1000030ce:	66 0f ef c0 	pxor	%xmm0, %xmm0
1000030d2:	4c 8b 09 	movq	(%rcx), %r9
1000030d5:	4c 89 0a 	movq	%r9, (%rdx)
1000030d8:	66 0f 74 06 	pcmpeqb	(%rsi), %xmm0
1000030dc:	4c 8b 49 08 	movq	8(%rcx), %r9
1000030e0:	4c 89 4a 08 	movq	%r9, 8(%rdx)
1000030e4:	66 0f d7 c0 	pmovmskb	%xmm0, %eax
1000030e8:	48 2b f1 	subq	%rcx, %rsi
1000030eb:	49 83 e8 20 	subq	$32, %r8
1000030ef:	0f 86 15 1c 00 00 	jbe	7189 <___intel_ssse3_strncpy+0x1D1A>
1000030f5:	48 85 c0 	testq	%rax, %rax
1000030f8:	0f 85 02 1a 00 00 	jne	6658 <___intel_ssse3_strncpy+0x1B10>
1000030fe:	48 89 d0 	movq	%rdx, %rax
100003101:	48 8d 52 10 	leaq	16(%rdx), %rdx
100003105:	48 83 e2 f0 	andq	$-16, %rdx
100003109:	48 2b c2 	subq	%rdx, %rax
10000310c:	48 03 f0 	addq	%rax, %rsi
10000310f:	48 8d 76 ff 	leaq	-1(%rsi), %rsi
100003113:	81 e6 00 00 00 80 	andl	$2147483648, %esi
100003119:	48 85 f6 	testq	%rsi, %rsi
10000311c:	75 04 	jne	4 <___intel_ssse3_strncpy+0x132>
10000311e:	4d 8d 40 10 	leaq	16(%r8), %r8
100003122:	48 2b c8 	subq	%rax, %rcx
100003125:	48 89 c8 	movq	%rcx, %rax
100003128:	48 83 e0 0f 	andq	$15, %rax
10000312c:	48 c7 c6 00 00 00 00 	movq	$0, %rsi
100003133:	0f 84 8e 00 00 00 	je	142 <___intel_ssse3_strncpy+0x1D7>
100003139:	48 83 f8 08 	cmpq	$8, %rax
10000313d:	73 41 	jae	65 <___intel_ssse3_strncpy+0x190>
10000313f:	48 83 f8 01 	cmpq	$1, %rax
100003143:	0f 84 57 02 00 00 	je	599 <___intel_ssse3_strncpy+0x3B0>
100003149:	48 83 f8 02 	cmpq	$2, %rax
10000314d:	0f 84 dd 03 00 00 	je	989 <___intel_ssse3_strncpy+0x540>
100003153:	48 83 f8 03 	cmpq	$3, %rax
100003157:	0f 84 63 05 00 00 	je	1379 <___intel_ssse3_strncpy+0x6D0>
10000315d:	48 83 f8 04 	cmpq	$4, %rax
100003161:	0f 84 e9 06 00 00 	je	1769 <___intel_ssse3_strncpy+0x860>
100003167:	48 83 f8 05 	cmpq	$5, %rax
10000316b:	0f 84 6f 08 00 00 	je	2159 <___intel_ssse3_strncpy+0x9F0>
100003171:	48 83 f8 06 	cmpq	$6, %rax
100003175:	0f 84 f5 09 00 00 	je	2549 <___intel_ssse3_strncpy+0xB80>
10000317b:	e9 80 0b 00 00 	jmp	2944 <___intel_ssse3_strncpy+0xD10>
100003180:	0f 84 0a 0d 00 00 	je	3338 <___intel_ssse3_strncpy+0xEA0>
100003186:	48 83 f8 09 	cmpq	$9, %rax
10000318a:	0f 84 90 0e 00 00 	je	3728 <___intel_ssse3_strncpy+0x1030>
100003190:	48 83 f8 0a 	cmpq	$10, %rax
100003194:	0f 84 16 10 00 00 	je	4118 <___intel_ssse3_strncpy+0x11C0>
10000319a:	48 83 f8 0b 	cmpq	$11, %rax
10000319e:	0f 84 9c 11 00 00 	je	4508 <___intel_ssse3_strncpy+0x1350>
1000031a4:	48 83 f8 0c 	cmpq	$12, %rax
1000031a8:	0f 84 22 13 00 00 	je	4898 <___intel_ssse3_strncpy+0x14E0>
1000031ae:	48 83 f8 0d 	cmpq	$13, %rax
1000031b2:	0f 84 a8 14 00 00 	je	5288 <___intel_ssse3_strncpy+0x1670>
1000031b8:	48 83 f8 0e 	cmpq	$14, %rax
1000031bc:	0f 84 2e 16 00 00 	je	5678 <___intel_ssse3_strncpy+0x1800>
1000031c2:	e9 b9 17 00 00 	jmp	6073 <___intel_ssse3_strncpy+0x1990>
1000031c7:	0f 28 09 	movaps	(%rcx), %xmm1
1000031ca:	0f 28 51 10 	movaps	16(%rcx), %xmm2
1000031ce:	0f 29 0a 	movaps	%xmm1, (%rdx)
1000031d1:	66 0f 74 c2 	pcmpeqb	%xmm2, %xmm0
1000031d5:	66 0f d7 c0 	pmovmskb	%xmm0, %eax
1000031d9:	48 8d 76 10 	leaq	16(%rsi), %rsi
1000031dd:	49 83 e8 10 	subq	$16, %r8
1000031e1:	0f 86 23 1b 00 00 	jbe	6947 <___intel_ssse3_strncpy+0x1D1A>
1000031e7:	48 85 c0 	testq	%rax, %rax
1000031ea:	0f 85 10 19 00 00 	jne	6416 <___intel_ssse3_strncpy+0x1B10>
1000031f0:	0f 28 5c 31 10 	movaps	16(%rcx,%rsi), %xmm3
1000031f5:	0f 29 14 32 	movaps	%xmm2, (%rdx,%rsi)
1000031f9:	66 0f 74 c3 	pcmpeqb	%xmm3, %xmm0
1000031fd:	66 0f d7 c0 	pmovmskb	%xmm0, %eax
100003201:	48 8d 76 10 	leaq	16(%rsi), %rsi
100003205:	49 83 e8 10 	subq	$16, %r8
100003209:	0f 86 fb 1a 00 00 	jbe	6907 <___intel_ssse3_strncpy+0x1D1A>
10000320f:	48 85 c0 	testq	%rax, %rax
100003212:	0f 85 e8 18 00 00 	jne	6376 <___intel_ssse3_strncpy+0x1B10>
100003218:	0f 28 64 31 10 	movaps	16(%rcx,%rsi), %xmm4
10000321d:	0f 29 1c 32 	movaps	%xmm3, (%rdx,%rsi)
100003221:	66 0f 74 c4 	pcmpeqb	%xmm4, %xmm0
100003225:	66 0f d7 c0 	pmovmskb	%xmm0, %eax
100003229:	48 8d 76 10 	leaq	16(%rsi), %rsi
10000322d:	49 83 e8 10 	subq	$16, %r8
100003231:	0f 86 d3 1a 00 00 	jbe	6867 <___intel_ssse3_strncpy+0x1D1A>
100003237:	48 85 c0 	testq	%rax, %rax
10000323a:	0f 85 c0 18 00 00 	jne	6336 <___intel_ssse3_strncpy+0x1B10>
100003240:	0f 28 4c 31 10 	movaps	16(%rcx,%rsi), %xmm1
100003245:	0f 29 24 32 	movaps	%xmm4, (%rdx,%rsi)
100003249:	66 0f 74 c1 	pcmpeqb	%xmm1, %xmm0
10000324d:	66 0f d7 c0 	pmovmskb	%xmm0, %eax
100003251:	48 8d 76 10 	leaq	16(%rsi), %rsi
100003255:	49 83 e8 10 	subq	$16, %r8
100003259:	0f 86 ab 1a 00 00 	jbe	6827 <___intel_ssse3_strncpy+0x1D1A>
10000325f:	48 85 c0 	testq	%rax, %rax
100003262:	0f 85 98 18 00 00 	jne	6296 <___intel_ssse3_strncpy+0x1B10>
100003268:	0f 28 54 31 10 	movaps	16(%rcx,%rsi), %xmm2
10000326d:	0f 29 0c 32 	movaps	%xmm1, (%rdx,%rsi)
100003271:	66 0f 74 c2 	pcmpeqb	%xmm2, %xmm0
100003275:	66 0f d7 c0 	pmovmskb	%xmm0, %eax
100003279:	48 8d 76 10 	leaq	16(%rsi), %rsi
10000327d:	49 83 e8 10 	subq	$16, %r8
100003281:	0f 86 83 1a 00 00 	jbe	6787 <___intel_ssse3_strncpy+0x1D1A>
100003287:	48 85 c0 	testq	%rax, %rax
10000328a:	0f 85 70 18 00 00 	jne	6256 <___intel_ssse3_strncpy+0x1B10>
100003290:	0f 28 5c 31 10 	movaps	16(%rcx,%rsi), %xmm3
100003295:	0f 29 14 32 	movaps	%xmm2, (%rdx,%rsi)
100003299:	66 0f 74 c3 	pcmpeqb	%xmm3, %xmm0
10000329d:	66 0f d7 c0 	pmovmskb	%xmm0, %eax
1000032a1:	48 8d 76 10 	leaq	16(%rsi), %rsi
1000032a5:	49 83 e8 10 	subq	$16, %r8
1000032a9:	0f 86 5b 1a 00 00 	jbe	6747 <___intel_ssse3_strncpy+0x1D1A>
1000032af:	48 85 c0 	testq	%rax, %rax
1000032b2:	0f 85 48 18 00 00 	jne	6216 <___intel_ssse3_strncpy+0x1B10>
1000032b8:	0f 29 1c 32 	movaps	%xmm3, (%rdx,%rsi)
1000032bc:	48 89 c8 	movq	%rcx, %rax
1000032bf:	48 8d 4c 31 10 	leaq	16(%rcx,%rsi), %rcx
1000032c4:	48 83 e1 c0 	andq	$-64, %rcx
1000032c8:	48 2b c1 	subq	%rcx, %rax
1000032cb:	48 2b d0 	subq	%rax, %rdx
1000032ce:	4d 8d 44 00 70 	leaq	112(%r8,%rax), %r8
1000032d3:	48 be c0 ff ff ff ff ff ff ff 	movabsq	$-64, %rsi
1000032dd:	0f 28 11 	movaps	(%rcx), %xmm2
1000032e0:	0f 28 e2 	movaps	%xmm2, %xmm4
1000032e3:	0f 28 69 10 	movaps	16(%rcx), %xmm5
1000032e7:	0f 28 59 20 	movaps	32(%rcx), %xmm3
1000032eb:	0f 28 f3 	movaps	%xmm3, %xmm6
1000032ee:	0f 28 79 30 	movaps	48(%rcx), %xmm7
1000032f2:	66 0f da d5 	pminub	%xmm5, %xmm2
1000032f6:	66 0f da df 	pminub	%xmm7, %xmm3
1000032fa:	66 0f da da 	pminub	%xmm2, %xmm3
1000032fe:	66 0f 74 d8 	pcmpeqb	%xmm0, %xmm3
100003302:	66 0f d7 c3 	pmovmskb	%xmm3, %eax
100003306:	48 8d 52 40 	leaq	64(%rdx), %rdx
10000330a:	48 8d 49 40 	leaq	64(%rcx), %rcx
10000330e:	49 83 e8 40 	subq	$64, %r8
100003312:	0f 86 bd 1f 00 00 	jbe	8125 <___intel_ssse3_strncpy+0x22E5>
100003318:	48 85 c0 	testq	%rax, %rax
10000331b:	75 12 	jne	18 <___intel_ssse3_strncpy+0x33F>
10000331d:	0f 29 62 c0 	movaps	%xmm4, -64(%rdx)
100003321:	0f 29 6a d0 	movaps	%xmm5, -48(%rdx)
100003325:	0f 29 72 e0 	movaps	%xmm6, -32(%rdx)
100003329:	0f 29 7a f0 	movaps	%xmm7, -16(%rdx)
10000332d:	eb ae 	jmp	-82 <___intel_ssse3_strncpy+0x2ED>
10000332f:	4d 8d 40 30 	leaq	48(%r8), %r8
100003333:	66 0f 74 c4 	pcmpeqb	%xmm4, %xmm0
100003337:	66 0f d7 c0 	pmovmskb	%xmm0, %eax
10000333b:	48 85 c0 	testq	%rax, %rax
10000333e:	0f 85 bc 17 00 00 	jne	6076 <___intel_ssse3_strncpy+0x1B10>
100003344:	66 0f 74 c5 	pcmpeqb	%xmm5, %xmm0
100003348:	4d 8d 40 f0 	leaq	-16(%r8), %r8
10000334c:	66 0f d7 c0 	pmovmskb	%xmm0, %eax
100003350:	0f 29 62 c0 	movaps	%xmm4, -64(%rdx)
100003354:	48 85 c0 	testq	%rax, %rax
100003357:	48 8d 76 10 	leaq	16(%rsi), %rsi
10000335b:	0f 85 9f 17 00 00 	jne	6047 <___intel_ssse3_strncpy+0x1B10>
100003361:	66 0f 74 c6 	pcmpeqb	%xmm6, %xmm0
100003365:	4d 8d 40 f0 	leaq	-16(%r8), %r8
100003369:	66 0f d7 c0 	pmovmskb	%xmm0, %eax
10000336d:	0f 29 6a d0 	movaps	%xmm5, -48(%rdx)
100003371:	48 85 c0 	testq	%rax, %rax
100003374:	48 8d 76 10 	leaq	16(%rsi), %rsi
100003378:	0f 85 82 17 00 00 	jne	6018 <___intel_ssse3_strncpy+0x1B10>
10000337e:	0f 29 72 e0 	movaps	%xmm6, -32(%rdx)
100003382:	66 0f 74 c7 	pcmpeqb	%xmm7, %xmm0
100003386:	4d 8d 40 f0 	leaq	-16(%r8), %r8
10000338a:	66 0f d7 c0 	pmovmskb	%xmm0, %eax
10000338e:	48 8d 76 10 	leaq	16(%rsi), %rsi
100003392:	e9 69 17 00 00 	jmp	5993 <___intel_ssse3_strncpy+0x1B10>
100003397:	66 0f 1f 84 00 00 00 00 00 	nopw	(%rax,%rax)
1000033a0:	0f 28 49 ff 	movaps	-1(%rcx), %xmm1
1000033a4:	0f 28 51 0f 	movaps	15(%rcx), %xmm2
1000033a8:	66 0f 74 c2 	pcmpeqb	%xmm2, %xmm0
1000033ac:	66 0f d7 c0 	pmovmskb	%xmm0, %eax
1000033b0:	0f 28 da 	movaps	%xmm2, %xmm3
1000033b3:	49 83 e8 10 	subq	$16, %r8
1000033b7:	0f 86 da 1f 00 00 	jbe	8154 <___intel_ssse3_strncpy+0x23A7>
1000033bd:	48 85 c0 	testq	%rax, %rax
1000033c0:	0f 85 42 01 00 00 	jne	322 <___intel_ssse3_strncpy+0x518>
1000033c6:	66 0f 3a 0f d1 01 	palignr	$1, %xmm1, %xmm2
1000033cc:	0f 28 cb 	movaps	%xmm3, %xmm1
1000033cf:	0f 29 12 	movaps	%xmm2, (%rdx)
1000033d2:	0f 28 51 1f 	movaps	31(%rcx), %xmm2
1000033d6:	66 0f 74 c2 	pcmpeqb	%xmm2, %xmm0
1000033da:	48 8d 52 10 	leaq	16(%rdx), %rdx
1000033de:	66 0f d7 c0 	pmovmskb	%xmm0, %eax
1000033e2:	48 8d 49 10 	leaq	16(%rcx), %rcx
1000033e6:	0f 28 da 	movaps	%xmm2, %xmm3
1000033e9:	49 83 e8 10 	subq	$16, %r8
1000033ed:	0f 86 a4 1f 00 00 	jbe	8100 <___intel_ssse3_strncpy+0x23A7>
1000033f3:	48 85 c0 	testq	%rax, %rax
1000033f6:	0f 85 0c 01 00 00 	jne	268 <___intel_ssse3_strncpy+0x518>
1000033fc:	66 0f 3a 0f d1 01 	palignr	$1, %xmm1, %xmm2
100003402:	0f 29 12 	movaps	%xmm2, (%rdx)
100003405:	0f 28 51 1f 	movaps	31(%rcx), %xmm2
100003409:	0f 28 cb 	movaps	%xmm3, %xmm1
10000340c:	66 0f 74 c2 	pcmpeqb	%xmm2, %xmm0
100003410:	48 8d 52 10 	leaq	16(%rdx), %rdx
100003414:	66 0f d7 c0 	pmovmskb	%xmm0, %eax
100003418:	48 8d 49 10 	leaq	16(%rcx), %rcx
10000341c:	0f 28 da 	movaps	%xmm2, %xmm3
10000341f:	49 83 e8 10 	subq	$16, %r8
100003423:	0f 86 6e 1f 00 00 	jbe	8046 <___intel_ssse3_strncpy+0x23A7>
100003429:	48 85 c0 	testq	%rax, %rax
10000342c:	0f 85 d6 00 00 00 	jne	214 <___intel_ssse3_strncpy+0x518>
100003432:	66 0f 3a 0f d1 01 	palignr	$1, %xmm1, %xmm2
100003438:	0f 28 cb 	movaps	%xmm3, %xmm1
10000343b:	0f 29 12 	movaps	%xmm2, (%rdx)
10000343e:	0f 28 51 1f 	movaps	31(%rcx), %xmm2
100003442:	66 0f 74 c2 	pcmpeqb	%xmm2, %xmm0
100003446:	48 8d 52 10 	leaq	16(%rdx), %rdx
10000344a:	66 0f d7 c0 	pmovmskb	%xmm0, %eax
10000344e:	48 8d 49 10 	leaq	16(%rcx), %rcx
100003452:	0f 28 da 	movaps	%xmm2, %xmm3
100003455:	49 83 e8 10 	subq	$16, %r8
100003459:	0f 86 38 1f 00 00 	jbe	7992 <___intel_ssse3_strncpy+0x23A7>
10000345f:	48 85 c0 	testq	%rax, %rax
100003462:	0f 85 a0 00 00 00 	jne	160 <___intel_ssse3_strncpy+0x518>
100003468:	66 0f 3a 0f d1 01 	palignr	$1, %xmm1, %xmm2
10000346e:	0f 28 cb 	movaps	%xmm3, %xmm1
100003471:	0f 29 12 	movaps	%xmm2, (%rdx)
100003474:	48 8d 49 1f 	leaq	31(%rcx), %rcx
100003478:	48 8d 52 10 	leaq	16(%rdx), %rdx
10000347c:	48 89 c8 	movq	%rcx, %rax
10000347f:	48 83 e1 c0 	andq	$-64, %rcx
100003483:	48 2b c1 	subq	%rcx, %rax
100003486:	48 8d 49 f1 	leaq	-15(%rcx), %rcx
10000348a:	48 2b d0 	subq	%rax, %rdx
10000348d:	4c 03 c0 	addq	%rax, %r8
100003490:	0f 28 49 ff 	movaps	-1(%rcx), %xmm1
100003494:	0f 28 51 0f 	movaps	15(%rcx), %xmm2
100003498:	0f 28 59 1f 	movaps	31(%rcx), %xmm3
10000349c:	0f 28 f3 	movaps	%xmm3, %xmm6
10000349f:	0f 28 61 2f 	movaps	47(%rcx), %xmm4
1000034a3:	0f 28 fc 	movaps	%xmm4, %xmm7
1000034a6:	0f 28 69 3f 	movaps	63(%rcx), %xmm5
1000034aa:	66 0f da f2 	pminub	%xmm2, %xmm6
1000034ae:	66 0f da fd 	pminub	%xmm5, %xmm7
1000034b2:	66 0f da fe 	pminub	%xmm6, %xmm7
1000034b6:	66 0f 74 f8 	pcmpeqb	%xmm0, %xmm7
1000034ba:	66 0f d7 c7 	pmovmskb	%xmm7, %eax
1000034be:	0f 28 fd 	movaps	%xmm5, %xmm7
1000034c1:	66 0f 3a 0f ec 01 	palignr	$1, %xmm4, %xmm5
1000034c7:	48 85 c0 	testq	%rax, %rax
1000034ca:	66 0f 3a 0f e3 01 	palignr	$1, %xmm3, %xmm4
1000034d0:	0f 85 d2 fe ff ff 	jne	-302 <___intel_ssse3_strncpy+0x3B8>
1000034d6:	49 83 e8 40 	subq	$64, %r8
1000034da:	0f 86 f1 20 00 00 	jbe	8433 <___intel_ssse3_strncpy+0x25E1>
1000034e0:	66 0f 3a 0f da 01 	palignr	$1, %xmm2, %xmm3
1000034e6:	48 8d 49 40 	leaq	64(%rcx), %rcx
1000034ea:	66 0f 3a 0f d1 01 	palignr	$1, %xmm1, %xmm2
1000034f0:	0f 28 cf 	movaps	%xmm7, %xmm1
1000034f3:	0f 29 6a 30 	movaps	%xmm5, 48(%rdx)
1000034f7:	0f 29 62 20 	movaps	%xmm4, 32(%rdx)
1000034fb:	0f 29 5a 10 	movaps	%xmm3, 16(%rdx)
1000034ff:	0f 29 12 	movaps	%xmm2, (%rdx)
100003502:	48 8d 52 40 	leaq	64(%rdx), %rdx
100003506:	eb 8c 	jmp	-116 <___intel_ssse3_strncpy+0x4A4>
100003508:	0f 28 32 	movaps	(%rdx), %xmm6
10000350b:	66 0f 73 de 0f 	psrldq	$15, %xmm6
100003510:	48 c7 c6 0f 00 00 00 	movq	$15, %rsi
100003517:	66 0f 3a 0f f1 01 	palignr	$1, %xmm1, %xmm6
10000351d:	0f 29 32 	movaps	%xmm6, (%rdx)
100003520:	e9 db 15 00 00 	jmp	5595 <___intel_ssse3_strncpy+0x1B10>
100003525:	0f 1f 40 00 	nopl	(%rax)
100003529:	0f 1f 80 00 00 00 00 	nopl	(%rax)
100003530:	0f 28 49 fe 	movaps	-2(%rcx), %xmm1
100003534:	0f 28 51 0e 	movaps	14(%rcx), %xmm2
100003538:	66 0f 74 c2 	pcmpeqb	%xmm2, %xmm0
10000353c:	66 0f d7 c0 	pmovmskb	%xmm0, %eax
100003540:	0f 28 da 	movaps	%xmm2, %xmm3
100003543:	49 83 e8 10 	subq	$16, %r8
100003547:	0f 86 70 1e 00 00 	jbe	7792 <___intel_ssse3_strncpy+0x23CD>
10000354d:	48 85 c0 	testq	%rax, %rax
100003550:	0f 85 42 01 00 00 	jne	322 <___intel_ssse3_strncpy+0x6A8>
100003556:	66 0f 3a 0f d1 02 	palignr	$2, %xmm1, %xmm2
10000355c:	0f 28 cb 	movaps	%xmm3, %xmm1
10000355f:	0f 29 12 	movaps	%xmm2, (%rdx)
100003562:	0f 28 51 1e 	movaps	30(%rcx), %xmm2
100003566:	66 0f 74 c2 	pcmpeqb	%xmm2, %xmm0
10000356a:	48 8d 52 10 	leaq	16(%rdx), %rdx
10000356e:	66 0f d7 c0 	pmovmskb	%xmm0, %eax
100003572:	48 8d 49 10 	leaq	16(%rcx), %rcx
100003576:	0f 28 da 	movaps	%xmm2, %xmm3
100003579:	49 83 e8 10 	subq	$16, %r8
10000357d:	0f 86 3a 1e 00 00 	jbe	7738 <___intel_ssse3_strncpy+0x23CD>
100003583:	48 85 c0 	testq	%rax, %rax
100003586:	0f 85 0c 01 00 00 	jne	268 <___intel_ssse3_strncpy+0x6A8>
10000358c:	66 0f 3a 0f d1 02 	palignr	$2, %xmm1, %xmm2
100003592:	0f 29 12 	movaps	%xmm2, (%rdx)
100003595:	0f 28 51 1e 	movaps	30(%rcx), %xmm2
100003599:	0f 28 cb 	movaps	%xmm3, %xmm1
10000359c:	66 0f 74 c2 	pcmpeqb	%xmm2, %xmm0
1000035a0:	48 8d 52 10 	leaq	16(%rdx), %rdx
1000035a4:	66 0f d7 c0 	pmovmskb	%xmm0, %eax
1000035a8:	48 8d 49 10 	leaq	16(%rcx), %rcx
1000035ac:	0f 28 da 	movaps	%xmm2, %xmm3
1000035af:	49 83 e8 10 	subq	$16, %r8
1000035b3:	0f 86 04 1e 00 00 	jbe	7684 <___intel_ssse3_strncpy+0x23CD>
1000035b9:	48 85 c0 	testq	%rax, %rax
1000035bc:	0f 85 d6 00 00 00 	jne	214 <___intel_ssse3_strncpy+0x6A8>
1000035c2:	66 0f 3a 0f d1 02 	palignr	$2, %xmm1, %xmm2
1000035c8:	0f 28 cb 	movaps	%xmm3, %xmm1
1000035cb:	0f 29 12 	movaps	%xmm2, (%rdx)
1000035ce:	0f 28 51 1e 	movaps	30(%rcx), %xmm2
1000035d2:	66 0f 74 c2 	pcmpeqb	%xmm2, %xmm0
1000035d6:	48 8d 52 10 	leaq	16(%rdx), %rdx
1000035da:	66 0f d7 c0 	pmovmskb	%xmm0, %eax
1000035de:	48 8d 49 10 	leaq	16(%rcx), %rcx
1000035e2:	0f 28 da 	movaps	%xmm2, %xmm3
1000035e5:	49 83 e8 10 	subq	$16, %r8
1000035e9:	0f 86 ce 1d 00 00 	jbe	7630 <___intel_ssse3_strncpy+0x23CD>
1000035ef:	48 85 c0 	testq	%rax, %rax
1000035f2:	0f 85 a0 00 00 00 	jne	160 <___intel_ssse3_strncpy+0x6A8>
1000035f8:	66 0f 3a 0f d1 02 	palignr	$2, %xmm1, %xmm2
1000035fe:	0f 28 cb 	movaps	%xmm3, %xmm1
100003601:	0f 29 12 	movaps	%xmm2, (%rdx)
100003604:	48 8d 49 1e 	leaq	30(%rcx), %rcx
100003608:	48 8d 52 10 	leaq	16(%rdx), %rdx
10000360c:	48 89 c8 	movq	%rcx, %rax
10000360f:	48 83 e1 c0 	andq	$-64, %rcx
100003613:	48 2b c1 	subq	%rcx, %rax
100003616:	48 8d 49 f2 	leaq	-14(%rcx), %rcx
10000361a:	48 2b d0 	subq	%rax, %rdx
10000361d:	4c 03 c0 	addq	%rax, %r8
100003620:	0f 28 49 fe 	movaps	-2(%rcx), %xmm1
100003624:	0f 28 51 0e 	movaps	14(%rcx), %xmm2
100003628:	0f 28 59 1e 	movaps	30(%rcx), %xmm3
10000362c:	0f 28 f3 	movaps	%xmm3, %xmm6
10000362f:	0f 28 61 2e 	movaps	46(%rcx), %xmm4
100003633:	0f 28 fc 	movaps	%xmm4, %xmm7
100003636:	0f 28 69 3e 	movaps	62(%rcx), %xmm5
10000363a:	66 0f da f2 	pminub	%xmm2, %xmm6
10000363e:	66 0f da fd 	pminub	%xmm5, %xmm7
100003642:	66 0f da fe 	pminub	%xmm6, %xmm7
100003646:	66 0f 74 f8 	pcmpeqb	%xmm0, %xmm7
10000364a:	66 0f d7 c7 	pmovmskb	%xmm7, %eax
10000364e:	0f 28 fd 	movaps	%xmm5, %xmm7
100003651:	66 0f 3a 0f ec 02 	palignr	$2, %xmm4, %xmm5
100003657:	48 85 c0 	testq	%rax, %rax
10000365a:	66 0f 3a 0f e3 02 	palignr	$2, %xmm3, %xmm4
100003660:	0f 85 d2 fe ff ff 	jne	-302 <___intel_ssse3_strncpy+0x548>
100003666:	49 83 e8 40 	subq	$64, %r8
10000366a:	0f 86 de 1f 00 00 	jbe	8158 <___intel_ssse3_strncpy+0x265E>
100003670:	66 0f 3a 0f da 02 	palignr	$2, %xmm2, %xmm3
100003676:	48 8d 49 40 	leaq	64(%rcx), %rcx
10000367a:	66 0f 3a 0f d1 02 	palignr	$2, %xmm1, %xmm2
100003680:	0f 28 cf 	movaps	%xmm7, %xmm1
100003683:	0f 29 6a 30 	movaps	%xmm5, 48(%rdx)
100003687:	0f 29 62 20 	movaps	%xmm4, 32(%rdx)
10000368b:	0f 29 5a 10 	movaps	%xmm3, 16(%rdx)
10000368f:	0f 29 12 	movaps	%xmm2, (%rdx)
100003692:	48 8d 52 40 	leaq	64(%rdx), %rdx
100003696:	eb 8c 	jmp	-116 <___intel_ssse3_strncpy+0x634>
100003698:	0f 28 32 	movaps	(%rdx), %xmm6
10000369b:	66 0f 73 de 0e 	psrldq	$14, %xmm6
1000036a0:	48 c7 c6 0e 00 00 00 	movq	$14, %rsi
1000036a7:	66 0f 3a 0f f1 02 	palignr	$2, %xmm1, %xmm6
1000036ad:	0f 29 32 	movaps	%xmm6, (%rdx)
1000036b0:	e9 4b 14 00 00 	jmp	5195 <___intel_ssse3_strncpy+0x1B10>
1000036b5:	0f 1f 40 00 	nopl	(%rax)
1000036b9:	0f 1f 80 00 00 00 00 	nopl	(%rax)
1000036c0:	0f 28 49 fd 	movaps	-3(%rcx), %xmm1
1000036c4:	0f 28 51 0d 	movaps	13(%rcx), %xmm2
1000036c8:	66 0f 74 c2 	pcmpeqb	%xmm2, %xmm0
1000036cc:	66 0f d7 c0 	pmovmskb	%xmm0, %eax
1000036d0:	0f 28 da 	movaps	%xmm2, %xmm3
1000036d3:	49 83 e8 10 	subq	$16, %r8
1000036d7:	0f 86 06 1d 00 00 	jbe	7430 <___intel_ssse3_strncpy+0x23F3>
1000036dd:	48 85 c0 	testq	%rax, %rax
1000036e0:	0f 85 42 01 00 00 	jne	322 <___intel_ssse3_strncpy+0x838>
1000036e6:	66 0f 3a 0f d1 03 	palignr	$3, %xmm1, %xmm2
1000036ec:	0f 28 cb 	movaps	%xmm3, %xmm1
1000036ef:	0f 29 12 	movaps	%xmm2, (%rdx)
1000036f2:	0f 28 51 1d 	movaps	29(%rcx), %xmm2
1000036f6:	66 0f 74 c2 	pcmpeqb	%xmm2, %xmm0
1000036fa:	48 8d 52 10 	leaq	16(%rdx), %rdx
1000036fe:	66 0f d7 c0 	pmovmskb	%xmm0, %eax
100003702:	48 8d 49 10 	leaq	16(%rcx), %rcx
100003706:	0f 28 da 	movaps	%xmm2, %xmm3
100003709:	49 83 e8 10 	subq	$16, %r8
10000370d:	0f 86 d0 1c 00 00 	jbe	7376 <___intel_ssse3_strncpy+0x23F3>
100003713:	48 85 c0 	testq	%rax, %rax
100003716:	0f 85 0c 01 00 00 	jne	268 <___intel_ssse3_strncpy+0x838>
10000371c:	66 0f 3a 0f d1 03 	palignr	$3, %xmm1, %xmm2
100003722:	0f 29 12 	movaps	%xmm2, (%rdx)
100003725:	0f 28 51 1d 	movaps	29(%rcx), %xmm2
100003729:	0f 28 cb 	movaps	%xmm3, %xmm1
10000372c:	66 0f 74 c2 	pcmpeqb	%xmm2, %xmm0
100003730:	48 8d 52 10 	leaq	16(%rdx), %rdx
100003734:	66 0f d7 c0 	pmovmskb	%xmm0, %eax
100003738:	48 8d 49 10 	leaq	16(%rcx), %rcx
10000373c:	0f 28 da 	movaps	%xmm2, %xmm3
10000373f:	49 83 e8 10 	subq	$16, %r8
100003743:	0f 86 9a 1c 00 00 	jbe	7322 <___intel_ssse3_strncpy+0x23F3>
100003749:	48 85 c0 	testq	%rax, %rax
10000374c:	0f 85 d6 00 00 00 	jne	214 <___intel_ssse3_strncpy+0x838>
100003752:	66 0f 3a 0f d1 03 	palignr	$3, %xmm1, %xmm2
100003758:	0f 28 cb 	movaps	%xmm3, %xmm1
10000375b:	0f 29 12 	movaps	%xmm2, (%rdx)
10000375e:	0f 28 51 1d 	movaps	29(%rcx), %xmm2
100003762:	66 0f 74 c2 	pcmpeqb	%xmm2, %xmm0
100003766:	48 8d 52 10 	leaq	16(%rdx), %rdx
10000376a:	66 0f d7 c0 	pmovmskb	%xmm0, %eax
10000376e:	48 8d 49 10 	leaq	16(%rcx), %rcx
100003772:	0f 28 da 	movaps	%xmm2, %xmm3
100003775:	49 83 e8 10 	subq	$16, %r8
100003779:	0f 86 64 1c 00 00 	jbe	7268 <___intel_ssse3_strncpy+0x23F3>
10000377f:	48 85 c0 	testq	%rax, %rax
100003782:	0f 85 a0 00 00 00 	jne	160 <___intel_ssse3_strncpy+0x838>
100003788:	66 0f 3a 0f d1 03 	palignr	$3, %xmm1, %xmm2
10000378e:	0f 28 cb 	movaps	%xmm3, %xmm1
100003791:	0f 29 12 	movaps	%xmm2, (%rdx)
100003794:	48 8d 49 1d 	leaq	29(%rcx), %rcx
100003798:	48 8d 52 10 	leaq	16(%rdx), %rdx
10000379c:	48 89 c8 	movq	%rcx, %rax
10000379f:	48 83 e1 c0 	andq	$-64, %rcx
1000037a3:	48 2b c1 	subq	%rcx, %rax
1000037a6:	48 8d 49 f3 	leaq	-13(%rcx), %rcx
1000037aa:	48 2b d0 	subq	%rax, %rdx
1000037ad:	4c 03 c0 	addq	%rax, %r8
1000037b0:	0f 28 49 fd 	movaps	-3(%rcx), %xmm1
1000037b4:	0f 28 51 0d 	movaps	13(%rcx), %xmm2
1000037b8:	0f 28 59 1d 	movaps	29(%rcx), %xmm3
1000037bc:	0f 28 f3 	movaps	%xmm3, %xmm6
1000037bf:	0f 28 61 2d 	movaps	45(%rcx), %xmm4
1000037c3:	0f 28 fc 	movaps	%xmm4, %xmm7
1000037c6:	0f 28 69 3d 	movaps	61(%rcx), %xmm5
1000037ca:	66 0f da f2 	pminub	%xmm2, %xmm6
1000037ce:	66 0f da fd 	pminub	%xmm5, %xmm7
1000037d2:	66 0f da fe 	pminub	%xmm6, %xmm7
1000037d6:	66 0f 74 f8 	pcmpeqb	%xmm0, %xmm7
1000037da:	66 0f d7 c7 	pmovmskb	%xmm7, %eax
1000037de:	0f 28 fd 	movaps	%xmm5, %xmm7
1000037e1:	66 0f 3a 0f ec 03 	palignr	$3, %xmm4, %xmm5
1000037e7:	48 85 c0 	testq	%rax, %rax
1000037ea:	66 0f 3a 0f e3 03 	palignr	$3, %xmm3, %xmm4
1000037f0:	0f 85 d2 fe ff ff 	jne	-302 <___intel_ssse3_strncpy+0x6D8>
1000037f6:	49 83 e8 40 	subq	$64, %r8
1000037fa:	0f 86 cb 1e 00 00 	jbe	7883 <___intel_ssse3_strncpy+0x26DB>
100003800:	66 0f 3a 0f da 03 	palignr	$3, %xmm2, %xmm3
100003806:	48 8d 49 40 	leaq	64(%rcx), %rcx
10000380a:	66 0f 3a 0f d1 03 	palignr	$3, %xmm1, %xmm2
100003810:	0f 28 cf 	movaps	%xmm7, %xmm1
100003813:	0f 29 6a 30 	movaps	%xmm5, 48(%rdx)
100003817:	0f 29 62 20 	movaps	%xmm4, 32(%rdx)
10000381b:	0f 29 5a 10 	movaps	%xmm3, 16(%rdx)
10000381f:	0f 29 12 	movaps	%xmm2, (%rdx)
100003822:	48 8d 52 40 	leaq	64(%rdx), %rdx
100003826:	eb 8c 	jmp	-116 <___intel_ssse3_strncpy+0x7C4>
100003828:	0f 28 32 	movaps	(%rdx), %xmm6
10000382b:	66 0f 73 de 0d 	psrldq	$13, %xmm6
100003830:	48 c7 c6 0d 00 00 00 	movq	$13, %rsi
100003837:	66 0f 3a 0f f1 03 	palignr	$3, %xmm1, %xmm6
10000383d:	0f 29 32 	movaps	%xmm6, (%rdx)
100003840:	e9 bb 12 00 00 	jmp	4795 <___intel_ssse3_strncpy+0x1B10>
100003845:	0f 1f 40 00 	nopl	(%rax)
100003849:	0f 1f 80 00 00 00 00 	nopl	(%rax)
100003850:	0f 28 49 fc 	movaps	-4(%rcx), %xmm1
100003854:	0f 28 51 0c 	movaps	12(%rcx), %xmm2
100003858:	66 0f 74 c2 	pcmpeqb	%xmm2, %xmm0
10000385c:	66 0f d7 c0 	pmovmskb	%xmm0, %eax
100003860:	0f 28 da 	movaps	%xmm2, %xmm3
100003863:	49 83 e8 10 	subq	$16, %r8
100003867:	0f 86 9c 1b 00 00 	jbe	7068 <___intel_ssse3_strncpy+0x2419>
10000386d:	48 85 c0 	testq	%rax, %rax
100003870:	0f 85 42 01 00 00 	jne	322 <___intel_ssse3_strncpy+0x9C8>
100003876:	66 0f 3a 0f d1 04 	palignr	$4, %xmm1, %xmm2
10000387c:	0f 28 cb 	movaps	%xmm3, %xmm1
10000387f:	0f 29 12 	movaps	%xmm2, (%rdx)
100003882:	0f 28 51 1c 	movaps	28(%rcx), %xmm2
100003886:	66 0f 74 c2 	pcmpeqb	%xmm2, %xmm0
10000388a:	48 8d 52 10 	leaq	16(%rdx), %rdx
10000388e:	66 0f d7 c0 	pmovmskb	%xmm0, %eax
100003892:	48 8d 49 10 	leaq	16(%rcx), %rcx
100003896:	0f 28 da 	movaps	%xmm2, %xmm3
100003899:	49 83 e8 10 	subq	$16, %r8
10000389d:	0f 86 66 1b 00 00 	jbe	7014 <___intel_ssse3_strncpy+0x2419>
1000038a3:	48 85 c0 	testq	%rax, %rax
1000038a6:	0f 85 0c 01 00 00 	jne	268 <___intel_ssse3_strncpy+0x9C8>
1000038ac:	66 0f 3a 0f d1 04 	palignr	$4, %xmm1, %xmm2
1000038b2:	0f 29 12 	movaps	%xmm2, (%rdx)
1000038b5:	0f 28 51 1c 	movaps	28(%rcx), %xmm2
1000038b9:	0f 28 cb 	movaps	%xmm3, %xmm1
1000038bc:	66 0f 74 c2 	pcmpeqb	%xmm2, %xmm0
1000038c0:	48 8d 52 10 	leaq	16(%rdx), %rdx
1000038c4:	66 0f d7 c0 	pmovmskb	%xmm0, %eax
1000038c8:	48 8d 49 10 	leaq	16(%rcx), %rcx
1000038cc:	0f 28 da 	movaps	%xmm2, %xmm3
1000038cf:	49 83 e8 10 	subq	$16, %r8
1000038d3:	0f 86 30 1b 00 00 	jbe	6960 <___intel_ssse3_strncpy+0x2419>
1000038d9:	48 85 c0 	testq	%rax, %rax
1000038dc:	0f 85 d6 00 00 00 	jne	214 <___intel_ssse3_strncpy+0x9C8>
1000038e2:	66 0f 3a 0f d1 04 	palignr	$4, %xmm1, %xmm2
1000038e8:	0f 28 cb 	movaps	%xmm3, %xmm1
1000038eb:	0f 29 12 	movaps	%xmm2, (%rdx)
1000038ee:	0f 28 51 1c 	movaps	28(%rcx), %xmm2
1000038f2:	66 0f 74 c2 	pcmpeqb	%xmm2, %xmm0
1000038f6:	48 8d 52 10 	leaq	16(%rdx), %rdx
1000038fa:	66 0f d7 c0 	pmovmskb	%xmm0, %eax
1000038fe:	48 8d 49 10 	leaq	16(%rcx), %rcx
100003902:	0f 28 da 	movaps	%xmm2, %xmm3
100003905:	49 83 e8 10 	subq	$16, %r8
100003909:	0f 86 fa 1a 00 00 	jbe	6906 <___intel_ssse3_strncpy+0x2419>
10000390f:	48 85 c0 	testq	%rax, %rax
100003912:	0f 85 a0 00 00 00 	jne	160 <___intel_ssse3_strncpy+0x9C8>
100003918:	66 0f 3a 0f d1 04 	palignr	$4, %xmm1, %xmm2
10000391e:	0f 28 cb 	movaps	%xmm3, %xmm1
100003921:	0f 29 12 	movaps	%xmm2, (%rdx)
100003924:	48 8d 49 1c 	leaq	28(%rcx), %rcx
100003928:	48 8d 52 10 	leaq	16(%rdx), %rdx
10000392c:	48 89 c8 	movq	%rcx, %rax
10000392f:	48 83 e1 c0 	andq	$-64, %rcx
100003933:	48 2b c1 	subq	%rcx, %rax
100003936:	48 8d 49 f4 	leaq	-12(%rcx), %rcx
10000393a:	48 2b d0 	subq	%rax, %rdx
10000393d:	4c 03 c0 	addq	%rax, %r8
100003940:	0f 28 49 fc 	movaps	-4(%rcx), %xmm1
100003944:	0f 28 51 0c 	movaps	12(%rcx), %xmm2
100003948:	0f 28 59 1c 	movaps	28(%rcx), %xmm3
10000394c:	0f 28 f3 	movaps	%xmm3, %xmm6
10000394f:	0f 28 61 2c 	movaps	44(%rcx), %xmm4
100003953:	0f 28 fc 	movaps	%xmm4, %xmm7
100003956:	0f 28 69 3c 	movaps	60(%rcx), %xmm5
10000395a:	66 0f da f2 	pminub	%xmm2, %xmm6
10000395e:	66 0f da fd 	pminub	%xmm5, %xmm7
100003962:	66 0f da fe 	pminub	%xmm6, %xmm7
100003966:	66 0f 74 f8 	pcmpeqb	%xmm0, %xmm7
10000396a:	66 0f d7 c7 	pmovmskb	%xmm7, %eax
10000396e:	0f 28 fd 	movaps	%xmm5, %xmm7
100003971:	66 0f 3a 0f ec 04 	palignr	$4, %xmm4, %xmm5
100003977:	48 85 c0 	testq	%rax, %rax
10000397a:	66 0f 3a 0f e3 04 	palignr	$4, %xmm3, %xmm4
100003980:	0f 85 d2 fe ff ff 	jne	-302 <___intel_ssse3_strncpy+0x868>
100003986:	49 83 e8 40 	subq	$64, %r8
10000398a:	0f 86 b8 1d 00 00 	jbe	7608 <___intel_ssse3_strncpy+0x2758>
100003990:	66 0f 3a 0f da 04 	palignr	$4, %xmm2, %xmm3
100003996:	48 8d 49 40 	leaq	64(%rcx), %rcx
10000399a:	66 0f 3a 0f d1 04 	palignr	$4, %xmm1, %xmm2
1000039a0:	0f 28 cf 	movaps	%xmm7, %xmm1
1000039a3:	0f 29 6a 30 	movaps	%xmm5, 48(%rdx)
1000039a7:	0f 29 62 20 	movaps	%xmm4, 32(%rdx)
1000039ab:	0f 29 5a 10 	movaps	%xmm3, 16(%rdx)
1000039af:	0f 29 12 	movaps	%xmm2, (%rdx)
1000039b2:	48 8d 52 40 	leaq	64(%rdx), %rdx
1000039b6:	eb 8c 	jmp	-116 <___intel_ssse3_strncpy+0x954>
1000039b8:	0f 28 32 	movaps	(%rdx), %xmm6
1000039bb:	66 0f 73 de 0c 	psrldq	$12, %xmm6
1000039c0:	48 c7 c6 0c 00 00 00 	movq	$12, %rsi
1000039c7:	66 0f 3a 0f f1 04 	palignr	$4, %xmm1, %xmm6
1000039cd:	0f 29 32 	movaps	%xmm6, (%rdx)
1000039d0:	e9 2b 11 00 00 	jmp	4395 <___intel_ssse3_strncpy+0x1B10>
1000039d5:	0f 1f 40 00 	nopl	(%rax)
1000039d9:	0f 1f 80 00 00 00 00 	nopl	(%rax)
1000039e0:	0f 28 49 fb 	movaps	-5(%rcx), %xmm1
1000039e4:	0f 28 51 0b 	movaps	11(%rcx), %xmm2
1000039e8:	66 0f 74 c2 	pcmpeqb	%xmm2, %xmm0
1000039ec:	66 0f d7 c0 	pmovmskb	%xmm0, %eax
1000039f0:	0f 28 da 	movaps	%xmm2, %xmm3
1000039f3:	49 83 e8 10 	subq	$16, %r8
1000039f7:	0f 86 32 1a 00 00 	jbe	6706 <___intel_ssse3_strncpy+0x243F>
1000039fd:	48 85 c0 	testq	%rax, %rax
100003a00:	0f 85 42 01 00 00 	jne	322 <___intel_ssse3_strncpy+0xB58>
100003a06:	66 0f 3a 0f d1 05 	palignr	$5, %xmm1, %xmm2
100003a0c:	0f 28 cb 	movaps	%xmm3, %xmm1
100003a0f:	0f 29 12 	movaps	%xmm2, (%rdx)
100003a12:	0f 28 51 1b 	movaps	27(%rcx), %xmm2
100003a16:	66 0f 74 c2 	pcmpeqb	%xmm2, %xmm0
100003a1a:	48 8d 52 10 	leaq	16(%rdx), %rdx
100003a1e:	66 0f d7 c0 	pmovmskb	%xmm0, %eax
100003a22:	48 8d 49 10 	leaq	16(%rcx), %rcx
100003a26:	0f 28 da 	movaps	%xmm2, %xmm3
100003a29:	49 83 e8 10 	subq	$16, %r8
100003a2d:	0f 86 fc 19 00 00 	jbe	6652 <___intel_ssse3_strncpy+0x243F>
100003a33:	48 85 c0 	testq	%rax, %rax
100003a36:	0f 85 0c 01 00 00 	jne	268 <___intel_ssse3_strncpy+0xB58>
100003a3c:	66 0f 3a 0f d1 05 	palignr	$5, %xmm1, %xmm2
100003a42:	0f 29 12 	movaps	%xmm2, (%rdx)
100003a45:	0f 28 51 1b 	movaps	27(%rcx), %xmm2
100003a49:	0f 28 cb 	movaps	%xmm3, %xmm1
100003a4c:	66 0f 74 c2 	pcmpeqb	%xmm2, %xmm0
100003a50:	48 8d 52 10 	leaq	16(%rdx), %rdx
100003a54:	66 0f d7 c0 	pmovmskb	%xmm0, %eax
100003a58:	48 8d 49 10 	leaq	16(%rcx), %rcx
100003a5c:	0f 28 da 	movaps	%xmm2, %xmm3
100003a5f:	49 83 e8 10 	subq	$16, %r8
100003a63:	0f 86 c6 19 00 00 	jbe	6598 <___intel_ssse3_strncpy+0x243F>
100003a69:	48 85 c0 	testq	%rax, %rax
100003a6c:	0f 85 d6 00 00 00 	jne	214 <___intel_ssse3_strncpy+0xB58>
100003a72:	66 0f 3a 0f d1 05 	palignr	$5, %xmm1, %xmm2
100003a78:	0f 28 cb 	movaps	%xmm3, %xmm1
100003a7b:	0f 29 12 	movaps	%xmm2, (%rdx)
100003a7e:	0f 28 51 1b 	movaps	27(%rcx), %xmm2
100003a82:	66 0f 74 c2 	pcmpeqb	%xmm2, %xmm0
100003a86:	48 8d 52 10 	leaq	16(%rdx), %rdx
100003a8a:	66 0f d7 c0 	pmovmskb	%xmm0, %eax
100003a8e:	48 8d 49 10 	leaq	16(%rcx), %rcx
100003a92:	0f 28 da 	movaps	%xmm2, %xmm3
100003a95:	49 83 e8 10 	subq	$16, %r8
100003a99:	0f 86 90 19 00 00 	jbe	6544 <___intel_ssse3_strncpy+0x243F>
100003a9f:	48 85 c0 	testq	%rax, %rax
100003aa2:	0f 85 a0 00 00 00 	jne	160 <___intel_ssse3_strncpy+0xB58>
100003aa8:	66 0f 3a 0f d1 05 	palignr	$5, %xmm1, %xmm2
100003aae:	0f 28 cb 	movaps	%xmm3, %xmm1
100003ab1:	0f 29 12 	movaps	%xmm2, (%rdx)
100003ab4:	48 8d 49 1b 	leaq	27(%rcx), %rcx
100003ab8:	48 8d 52 10 	leaq	16(%rdx), %rdx
100003abc:	48 89 c8 	movq	%rcx, %rax
100003abf:	48 83 e1 c0 	andq	$-64, %rcx
100003ac3:	48 2b c1 	subq	%rcx, %rax
100003ac6:	48 8d 49 f5 	leaq	-11(%rcx), %rcx
100003aca:	48 2b d0 	subq	%rax, %rdx
100003acd:	4c 03 c0 	addq	%rax, %r8
100003ad0:	0f 28 49 fb 	movaps	-5(%rcx), %xmm1
100003ad4:	0f 28 51 0b 	movaps	11(%rcx), %xmm2
100003ad8:	0f 28 59 1b 	movaps	27(%rcx), %xmm3
100003adc:	0f 28 f3 	movaps	%xmm3, %xmm6
100003adf:	0f 28 61 2b 	movaps	43(%rcx), %xmm4
100003ae3:	0f 28 fc 	movaps	%xmm4, %xmm7
100003ae6:	0f 28 69 3b 	movaps	59(%rcx), %xmm5
100003aea:	66 0f da f2 	pminub	%xmm2, %xmm6
100003aee:	66 0f da fd 	pminub	%xmm5, %xmm7
100003af2:	66 0f da fe 	pminub	%xmm6, %xmm7
100003af6:	66 0f 74 f8 	pcmpeqb	%xmm0, %xmm7
100003afa:	66 0f d7 c7 	pmovmskb	%xmm7, %eax
100003afe:	0f 28 fd 	movaps	%xmm5, %xmm7
100003b01:	66 0f 3a 0f ec 05 	palignr	$5, %xmm4, %xmm5
100003b07:	48 85 c0 	testq	%rax, %rax
100003b0a:	66 0f 3a 0f e3 05 	palignr	$5, %xmm3, %xmm4
100003b10:	0f 85 d2 fe ff ff 	jne	-302 <___intel_ssse3_strncpy+0x9F8>
100003b16:	49 83 e8 40 	subq	$64, %r8
100003b1a:	0f 86 a5 1c 00 00 	jbe	7333 <___intel_ssse3_strncpy+0x27D5>
100003b20:	66 0f 3a 0f da 05 	palignr	$5, %xmm2, %xmm3
100003b26:	48 8d 49 40 	leaq	64(%rcx), %rcx
100003b2a:	66 0f 3a 0f d1 05 	palignr	$5, %xmm1, %xmm2
100003b30:	0f 28 cf 	movaps	%xmm7, %xmm1
100003b33:	0f 29 6a 30 	movaps	%xmm5, 48(%rdx)
100003b37:	0f 29 62 20 	movaps	%xmm4, 32(%rdx)
100003b3b:	0f 29 5a 10 	movaps	%xmm3, 16(%rdx)
100003b3f:	0f 29 12 	movaps	%xmm2, (%rdx)
100003b42:	48 8d 52 40 	leaq	64(%rdx), %rdx
100003b46:	eb 8c 	jmp	-116 <___intel_ssse3_strncpy+0xAE4>
100003b48:	0f 28 32 	movaps	(%rdx), %xmm6
100003b4b:	66 0f 73 de 0b 	psrldq	$11, %xmm6
100003b50:	48 c7 c6 0b 00 00 00 	movq	$11, %rsi
100003b57:	66 0f 3a 0f f1 05 	palignr	$5, %xmm1, %xmm6
100003b5d:	0f 29 32 	movaps	%xmm6, (%rdx)
100003b60:	e9 9b 0f 00 00 	jmp	3995 <___intel_ssse3_strncpy+0x1B10>
100003b65:	0f 1f 40 00 	nopl	(%rax)
100003b69:	0f 1f 80 00 00 00 00 	nopl	(%rax)
100003b70:	0f 28 49 fa 	movaps	-6(%rcx), %xmm1
100003b74:	0f 28 51 0a 	movaps	10(%rcx), %xmm2
100003b78:	66 0f 74 c2 	pcmpeqb	%xmm2, %xmm0
100003b7c:	66 0f d7 c0 	pmovmskb	%xmm0, %eax
100003b80:	0f 28 da 	movaps	%xmm2, %xmm3
100003b83:	49 83 e8 10 	subq	$16, %r8
100003b87:	0f 86 c8 18 00 00 	jbe	6344 <___intel_ssse3_strncpy+0x2465>
100003b8d:	48 85 c0 	testq	%rax, %rax
100003b90:	0f 85 42 01 00 00 	jne	322 <___intel_ssse3_strncpy+0xCE8>
100003b96:	66 0f 3a 0f d1 06 	palignr	$6, %xmm1, %xmm2
100003b9c:	0f 28 cb 	movaps	%xmm3, %xmm1
100003b9f:	0f 29 12 	movaps	%xmm2, (%rdx)
100003ba2:	0f 28 51 1a 	movaps	26(%rcx), %xmm2
100003ba6:	66 0f 74 c2 	pcmpeqb	%xmm2, %xmm0
100003baa:	48 8d 52 10 	leaq	16(%rdx), %rdx
100003bae:	66 0f d7 c0 	pmovmskb	%xmm0, %eax
100003bb2:	48 8d 49 10 	leaq	16(%rcx), %rcx
100003bb6:	0f 28 da 	movaps	%xmm2, %xmm3
100003bb9:	49 83 e8 10 	subq	$16, %r8
100003bbd:	0f 86 92 18 00 00 	jbe	6290 <___intel_ssse3_strncpy+0x2465>
100003bc3:	48 85 c0 	testq	%rax, %rax
100003bc6:	0f 85 0c 01 00 00 	jne	268 <___intel_ssse3_strncpy+0xCE8>
100003bcc:	66 0f 3a 0f d1 06 	palignr	$6, %xmm1, %xmm2
100003bd2:	0f 29 12 	movaps	%xmm2, (%rdx)
100003bd5:	0f 28 51 1a 	movaps	26(%rcx), %xmm2
100003bd9:	0f 28 cb 	movaps	%xmm3, %xmm1
100003bdc:	66 0f 74 c2 	pcmpeqb	%xmm2, %xmm0
100003be0:	48 8d 52 10 	leaq	16(%rdx), %rdx
100003be4:	66 0f d7 c0 	pmovmskb	%xmm0, %eax
100003be8:	48 8d 49 10 	leaq	16(%rcx), %rcx
100003bec:	0f 28 da 	movaps	%xmm2, %xmm3
100003bef:	49 83 e8 10 	subq	$16, %r8
100003bf3:	0f 86 5c 18 00 00 	jbe	6236 <___intel_ssse3_strncpy+0x2465>
100003bf9:	48 85 c0 	testq	%rax, %rax
100003bfc:	0f 85 d6 00 00 00 	jne	214 <___intel_ssse3_strncpy+0xCE8>
100003c02:	66 0f 3a 0f d1 06 	palignr	$6, %xmm1, %xmm2
100003c08:	0f 28 cb 	movaps	%xmm3, %xmm1
100003c0b:	0f 29 12 	movaps	%xmm2, (%rdx)
100003c0e:	0f 28 51 1a 	movaps	26(%rcx), %xmm2
100003c12:	66 0f 74 c2 	pcmpeqb	%xmm2, %xmm0
100003c16:	48 8d 52 10 	leaq	16(%rdx), %rdx
100003c1a:	66 0f d7 c0 	pmovmskb	%xmm0, %eax
100003c1e:	48 8d 49 10 	leaq	16(%rcx), %rcx
100003c22:	0f 28 da 	movaps	%xmm2, %xmm3
100003c25:	49 83 e8 10 	subq	$16, %r8
100003c29:	0f 86 26 18 00 00 	jbe	6182 <___intel_ssse3_strncpy+0x2465>
100003c2f:	48 85 c0 	testq	%rax, %rax
100003c32:	0f 85 a0 00 00 00 	jne	160 <___intel_ssse3_strncpy+0xCE8>
100003c38:	66 0f 3a 0f d1 06 	palignr	$6, %xmm1, %xmm2
100003c3e:	0f 28 cb 	movaps	%xmm3, %xmm1
100003c41:	0f 29 12 	movaps	%xmm2, (%rdx)
100003c44:	48 8d 49 1a 	leaq	26(%rcx), %rcx
100003c48:	48 8d 52 10 	leaq	16(%rdx), %rdx
100003c4c:	48 89 c8 	movq	%rcx, %rax
100003c4f:	48 83 e1 c0 	andq	$-64, %rcx
100003c53:	48 2b c1 	subq	%rcx, %rax
100003c56:	48 8d 49 f6 	leaq	-10(%rcx), %rcx
100003c5a:	48 2b d0 	subq	%rax, %rdx
100003c5d:	4c 03 c0 	addq	%rax, %r8
100003c60:	0f 28 49 fa 	movaps	-6(%rcx), %xmm1
100003c64:	0f 28 51 0a 	movaps	10(%rcx), %xmm2
100003c68:	0f 28 59 1a 	movaps	26(%rcx), %xmm3
100003c6c:	0f 28 f3 	movaps	%xmm3, %xmm6
100003c6f:	0f 28 61 2a 	movaps	42(%rcx), %xmm4
100003c73:	0f 28 fc 	movaps	%xmm4, %xmm7
100003c76:	0f 28 69 3a 	movaps	58(%rcx), %xmm5
100003c7a:	66 0f da f2 	pminub	%xmm2, %xmm6
100003c7e:	66 0f da fd 	pminub	%xmm5, %xmm7
100003c82:	66 0f da fe 	pminub	%xmm6, %xmm7
100003c86:	66 0f 74 f8 	pcmpeqb	%xmm0, %xmm7
100003c8a:	66 0f d7 c7 	pmovmskb	%xmm7, %eax
100003c8e:	0f 28 fd 	movaps	%xmm5, %xmm7
100003c91:	66 0f 3a 0f ec 06 	palignr	$6, %xmm4, %xmm5
100003c97:	48 85 c0 	testq	%rax, %rax
100003c9a:	66 0f 3a 0f e3 06 	palignr	$6, %xmm3, %xmm4
100003ca0:	0f 85 d2 fe ff ff 	jne	-302 <___intel_ssse3_strncpy+0xB88>
100003ca6:	49 83 e8 40 	subq	$64, %r8
100003caa:	0f 86 92 1b 00 00 	jbe	7058 <___intel_ssse3_strncpy+0x2852>
100003cb0:	66 0f 3a 0f da 06 	palignr	$6, %xmm2, %xmm3
100003cb6:	48 8d 49 40 	leaq	64(%rcx), %rcx
100003cba:	66 0f 3a 0f d1 06 	palignr	$6, %xmm1, %xmm2
100003cc0:	0f 28 cf 	movaps	%xmm7, %xmm1
100003cc3:	0f 29 6a 30 	movaps	%xmm5, 48(%rdx)
100003cc7:	0f 29 62 20 	movaps	%xmm4, 32(%rdx)
100003ccb:	0f 29 5a 10 	movaps	%xmm3, 16(%rdx)
100003ccf:	0f 29 12 	movaps	%xmm2, (%rdx)
100003cd2:	48 8d 52 40 	leaq	64(%rdx), %rdx
100003cd6:	eb 8c 	jmp	-116 <___intel_ssse3_strncpy+0xC74>
100003cd8:	0f 28 32 	movaps	(%rdx), %xmm6
100003cdb:	66 0f 73 de 0a 	psrldq	$10, %xmm6
100003ce0:	48 c7 c6 0a 00 00 00 	movq	$10, %rsi
100003ce7:	66 0f 3a 0f f1 06 	palignr	$6, %xmm1, %xmm6
100003ced:	0f 29 32 	movaps	%xmm6, (%rdx)
100003cf0:	e9 0b 0e 00 00 	jmp	3595 <___intel_ssse3_strncpy+0x1B10>
100003cf5:	0f 1f 40 00 	nopl	(%rax)
100003cf9:	0f 1f 80 00 00 00 00 	nopl	(%rax)
100003d00:	0f 28 49 f9 	movaps	-7(%rcx), %xmm1
100003d04:	0f 28 51 09 	movaps	9(%rcx), %xmm2
100003d08:	66 0f 74 c2 	pcmpeqb	%xmm2, %xmm0
100003d0c:	66 0f d7 c0 	pmovmskb	%xmm0, %eax
100003d10:	0f 28 da 	movaps	%xmm2, %xmm3
100003d13:	49 83 e8 10 	subq	$16, %r8
100003d17:	0f 86 5e 17 00 00 	jbe	5982 <___intel_ssse3_strncpy+0x248B>
100003d1d:	48 85 c0 	testq	%rax, %rax
100003d20:	0f 85 42 01 00 00 	jne	322 <___intel_ssse3_strncpy+0xE78>
100003d26:	66 0f 3a 0f d1 07 	palignr	$7, %xmm1, %xmm2
100003d2c:	0f 28 cb 	movaps	%xmm3, %xmm1
100003d2f:	0f 29 12 	movaps	%xmm2, (%rdx)
100003d32:	0f 28 51 19 	movaps	25(%rcx), %xmm2
100003d36:	66 0f 74 c2 	pcmpeqb	%xmm2, %xmm0
100003d3a:	48 8d 52 10 	leaq	16(%rdx), %rdx
100003d3e:	66 0f d7 c0 	pmovmskb	%xmm0, %eax
100003d42:	48 8d 49 10 	leaq	16(%rcx), %rcx
100003d46:	0f 28 da 	movaps	%xmm2, %xmm3
100003d49:	49 83 e8 10 	subq	$16, %r8
100003d4d:	0f 86 28 17 00 00 	jbe	5928 <___intel_ssse3_strncpy+0x248B>
100003d53:	48 85 c0 	testq	%rax, %rax
100003d56:	0f 85 0c 01 00 00 	jne	268 <___intel_ssse3_strncpy+0xE78>
100003d5c:	66 0f 3a 0f d1 07 	palignr	$7, %xmm1, %xmm2
100003d62:	0f 29 12 	movaps	%xmm2, (%rdx)
100003d65:	0f 28 51 19 	movaps	25(%rcx), %xmm2
100003d69:	0f 28 cb 	movaps	%xmm3, %xmm1
100003d6c:	66 0f 74 c2 	pcmpeqb	%xmm2, %xmm0
100003d70:	48 8d 52 10 	leaq	16(%rdx), %rdx
100003d74:	66 0f d7 c0 	pmovmskb	%xmm0, %eax
100003d78:	48 8d 49 10 	leaq	16(%rcx), %rcx
100003d7c:	0f 28 da 	movaps	%xmm2, %xmm3
100003d7f:	49 83 e8 10 	subq	$16, %r8
100003d83:	0f 86 f2 16 00 00 	jbe	5874 <___intel_ssse3_strncpy+0x248B>
100003d89:	48 85 c0 	testq	%rax, %rax
100003d8c:	0f 85 d6 00 00 00 	jne	214 <___intel_ssse3_strncpy+0xE78>
100003d92:	66 0f 3a 0f d1 07 	palignr	$7, %xmm1, %xmm2
100003d98:	0f 28 cb 	movaps	%xmm3, %xmm1
100003d9b:	0f 29 12 	movaps	%xmm2, (%rdx)
100003d9e:	0f 28 51 19 	movaps	25(%rcx), %xmm2
100003da2:	66 0f 74 c2 	pcmpeqb	%xmm2, %xmm0
100003da6:	48 8d 52 10 	leaq	16(%rdx), %rdx
100003daa:	66 0f d7 c0 	pmovmskb	%xmm0, %eax
100003dae:	48 8d 49 10 	leaq	16(%rcx), %rcx
100003db2:	0f 28 da 	movaps	%xmm2, %xmm3
100003db5:	49 83 e8 10 	subq	$16, %r8
100003db9:	0f 86 bc 16 00 00 	jbe	5820 <___intel_ssse3_strncpy+0x248B>
100003dbf:	48 85 c0 	testq	%rax, %rax
100003dc2:	0f 85 a0 00 00 00 	jne	160 <___intel_ssse3_strncpy+0xE78>
100003dc8:	66 0f 3a 0f d1 07 	palignr	$7, %xmm1, %xmm2
100003dce:	0f 28 cb 	movaps	%xmm3, %xmm1
100003dd1:	0f 29 12 	movaps	%xmm2, (%rdx)
100003dd4:	48 8d 49 19 	leaq	25(%rcx), %rcx
100003dd8:	48 8d 52 10 	leaq	16(%rdx), %rdx
100003ddc:	48 89 c8 	movq	%rcx, %rax
100003ddf:	48 83 e1 c0 	andq	$-64, %rcx
100003de3:	48 2b c1 	subq	%rcx, %rax
100003de6:	48 8d 49 f7 	leaq	-9(%rcx), %rcx
100003dea:	48 2b d0 	subq	%rax, %rdx
100003ded:	4c 03 c0 	addq	%rax, %r8
100003df0:	0f 28 49 f9 	movaps	-7(%rcx), %xmm1
100003df4:	0f 28 51 09 	movaps	9(%rcx), %xmm2
100003df8:	0f 28 59 19 	movaps	25(%rcx), %xmm3
100003dfc:	0f 28 f3 	movaps	%xmm3, %xmm6
100003dff:	0f 28 61 29 	movaps	41(%rcx), %xmm4
100003e03:	0f 28 fc 	movaps	%xmm4, %xmm7
100003e06:	0f 28 69 39 	movaps	57(%rcx), %xmm5
100003e0a:	66 0f da f2 	pminub	%xmm2, %xmm6
100003e0e:	66 0f da fd 	pminub	%xmm5, %xmm7
100003e12:	66 0f da fe 	pminub	%xmm6, %xmm7
100003e16:	66 0f 74 f8 	pcmpeqb	%xmm0, %xmm7
100003e1a:	66 0f d7 c7 	pmovmskb	%xmm7, %eax
100003e1e:	0f 28 fd 	movaps	%xmm5, %xmm7
100003e21:	66 0f 3a 0f ec 07 	palignr	$7, %xmm4, %xmm5
100003e27:	48 85 c0 	testq	%rax, %rax
100003e2a:	66 0f 3a 0f e3 07 	palignr	$7, %xmm3, %xmm4
100003e30:	0f 85 d2 fe ff ff 	jne	-302 <___intel_ssse3_strncpy+0xD18>
100003e36:	49 83 e8 40 	subq	$64, %r8
100003e3a:	0f 86 7f 1a 00 00 	jbe	6783 <___intel_ssse3_strncpy+0x28CF>
100003e40:	66 0f 3a 0f da 07 	palignr	$7, %xmm2, %xmm3
100003e46:	48 8d 49 40 	leaq	64(%rcx), %rcx
100003e4a:	66 0f 3a 0f d1 07 	palignr	$7, %xmm1, %xmm2
100003e50:	0f 28 cf 	movaps	%xmm7, %xmm1
100003e53:	0f 29 6a 30 	movaps	%xmm5, 48(%rdx)
100003e57:	0f 29 62 20 	movaps	%xmm4, 32(%rdx)
100003e5b:	0f 29 5a 10 	movaps	%xmm3, 16(%rdx)
100003e5f:	0f 29 12 	movaps	%xmm2, (%rdx)
100003e62:	48 8d 52 40 	leaq	64(%rdx), %rdx
100003e66:	eb 8c 	jmp	-116 <___intel_ssse3_strncpy+0xE04>
100003e68:	0f 28 32 	movaps	(%rdx), %xmm6
100003e6b:	66 0f 73 de 09 	psrldq	$9, %xmm6
100003e70:	48 c7 c6 09 00 00 00 	movq	$9, %rsi
100003e77:	66 0f 3a 0f f1 07 	palignr	$7, %xmm1, %xmm6
100003e7d:	0f 29 32 	movaps	%xmm6, (%rdx)
100003e80:	e9 7b 0c 00 00 	jmp	3195 <___intel_ssse3_strncpy+0x1B10>
100003e85:	0f 1f 40 00 	nopl	(%rax)
100003e89:	0f 1f 80 00 00 00 00 	nopl	(%rax)
100003e90:	0f 28 49 f8 	movaps	-8(%rcx), %xmm1
100003e94:	0f 28 51 08 	movaps	8(%rcx), %xmm2
100003e98:	66 0f 74 c2 	pcmpeqb	%xmm2, %xmm0
100003e9c:	66 0f d7 c0 	pmovmskb	%xmm0, %eax
100003ea0:	0f 28 da 	movaps	%xmm2, %xmm3
100003ea3:	49 83 e8 10 	subq	$16, %r8
100003ea7:	0f 86 f4 15 00 00 	jbe	5620 <___intel_ssse3_strncpy+0x24B1>
100003ead:	48 85 c0 	testq	%rax, %rax
100003eb0:	0f 85 42 01 00 00 	jne	322 <___intel_ssse3_strncpy+0x1008>
100003eb6:	66 0f 3a 0f d1 08 	palignr	$8, %xmm1, %xmm2
100003ebc:	0f 28 cb 	movaps	%xmm3, %xmm1
100003ebf:	0f 29 12 	movaps	%xmm2, (%rdx)
100003ec2:	0f 28 51 18 	movaps	24(%rcx), %xmm2
100003ec6:	66 0f 74 c2 	pcmpeqb	%xmm2, %xmm0
100003eca:	48 8d 52 10 	leaq	16(%rdx), %rdx
100003ece:	66 0f d7 c0 	pmovmskb	%xmm0, %eax
100003ed2:	48 8d 49 10 	leaq	16(%rcx), %rcx
100003ed6:	0f 28 da 	movaps	%xmm2, %xmm3
100003ed9:	49 83 e8 10 	subq	$16, %r8
100003edd:	0f 86 be 15 00 00 	jbe	5566 <___intel_ssse3_strncpy+0x24B1>
100003ee3:	48 85 c0 	testq	%rax, %rax
100003ee6:	0f 85 0c 01 00 00 	jne	268 <___intel_ssse3_strncpy+0x1008>
100003eec:	66 0f 3a 0f d1 08 	palignr	$8, %xmm1, %xmm2
100003ef2:	0f 29 12 	movaps	%xmm2, (%rdx)
100003ef5:	0f 28 51 18 	movaps	24(%rcx), %xmm2
100003ef9:	0f 28 cb 	movaps	%xmm3, %xmm1
100003efc:	66 0f 74 c2 	pcmpeqb	%xmm2, %xmm0
100003f00:	48 8d 52 10 	leaq	16(%rdx), %rdx
100003f04:	66 0f d7 c0 	pmovmskb	%xmm0, %eax
100003f08:	48 8d 49 10 	leaq	16(%rcx), %rcx
100003f0c:	0f 28 da 	movaps	%xmm2, %xmm3
100003f0f:	49 83 e8 10 	subq	$16, %r8
100003f13:	0f 86 88 15 00 00 	jbe	5512 <___intel_ssse3_strncpy+0x24B1>
100003f19:	48 85 c0 	testq	%rax, %rax
100003f1c:	0f 85 d6 00 00 00 	jne	214 <___intel_ssse3_strncpy+0x1008>
100003f22:	66 0f 3a 0f d1 08 	palignr	$8, %xmm1, %xmm2
100003f28:	0f 28 cb 	movaps	%xmm3, %xmm1
100003f2b:	0f 29 12 	movaps	%xmm2, (%rdx)
100003f2e:	0f 28 51 18 	movaps	24(%rcx), %xmm2
100003f32:	66 0f 74 c2 	pcmpeqb	%xmm2, %xmm0
100003f36:	48 8d 52 10 	leaq	16(%rdx), %rdx
100003f3a:	66 0f d7 c0 	pmovmskb	%xmm0, %eax
100003f3e:	48 8d 49 10 	leaq	16(%rcx), %rcx
100003f42:	0f 28 da 	movaps	%xmm2, %xmm3
100003f45:	49 83 e8 10 	subq	$16, %r8
100003f49:	0f 86 52 15 00 00 	jbe	5458 <___intel_ssse3_strncpy+0x24B1>
100003f4f:	48 85 c0 	testq	%rax, %rax
100003f52:	0f 85 a0 00 00 00 	jne	160 <___intel_ssse3_strncpy+0x1008>
100003f58:	66 0f 3a 0f d1 08 	palignr	$8, %xmm1, %xmm2
100003f5e:	0f 28 cb 	movaps	%xmm3, %xmm1
100003f61:	0f 29 12 	movaps	%xmm2, (%rdx)
100003f64:	48 8d 49 18 	leaq	24(%rcx), %rcx
100003f68:	48 8d 52 10 	leaq	16(%rdx), %rdx
100003f6c:	48 89 c8 	movq	%rcx, %rax
100003f6f:	48 83 e1 c0 	andq	$-64, %rcx
100003f73:	48 2b c1 	subq	%rcx, %rax
100003f76:	48 8d 49 f8 	leaq	-8(%rcx), %rcx
100003f7a:	48 2b d0 	subq	%rax, %rdx
100003f7d:	4c 03 c0 	addq	%rax, %r8
100003f80:	0f 28 49 f8 	movaps	-8(%rcx), %xmm1
100003f84:	0f 28 51 08 	movaps	8(%rcx), %xmm2
100003f88:	0f 28 59 18 	movaps	24(%rcx), %xmm3
100003f8c:	0f 28 f3 	movaps	%xmm3, %xmm6
100003f8f:	0f 28 61 28 	movaps	40(%rcx), %xmm4
100003f93:	0f 28 fc 	movaps	%xmm4, %xmm7
100003f96:	0f 28 69 38 	movaps	56(%rcx), %xmm5
100003f9a:	66 0f da f2 	pminub	%xmm2, %xmm6
100003f9e:	66 0f da fd 	pminub	%xmm5, %xmm7
100003fa2:	66 0f da fe 	pminub	%xmm6, %xmm7
100003fa6:	66 0f 74 f8 	pcmpeqb	%xmm0, %xmm7
100003faa:	66 0f d7 c7 	pmovmskb	%xmm7, %eax
100003fae:	0f 28 fd 	movaps	%xmm5, %xmm7
100003fb1:	66 0f 3a 0f ec 08 	palignr	$8, %xmm4, %xmm5
100003fb7:	48 85 c0 	testq	%rax, %rax
100003fba:	66 0f 3a 0f e3 08 	palignr	$8, %xmm3, %xmm4
100003fc0:	0f 85 d2 fe ff ff 	jne	-302 <___intel_ssse3_strncpy+0xEA8>
100003fc6:	49 83 e8 40 	subq	$64, %r8
100003fca:	0f 86 6c 19 00 00 	jbe	6508 <___intel_ssse3_strncpy+0x294C>
100003fd0:	66 0f 3a 0f da 08 	palignr	$8, %xmm2, %xmm3
100003fd6:	48 8d 49 40 	leaq	64(%rcx), %rcx
100003fda:	66 0f 3a 0f d1 08 	palignr	$8, %xmm1, %xmm2
100003fe0:	0f 28 cf 	movaps	%xmm7, %xmm1
100003fe3:	0f 29 6a 30 	movaps	%xmm5, 48(%rdx)
100003fe7:	0f 29 62 20 	movaps	%xmm4, 32(%rdx)
100003feb:	0f 29 5a 10 	movaps	%xmm3, 16(%rdx)
100003fef:	0f 29 12 	movaps	%xmm2, (%rdx)
100003ff2:	48 8d 52 40 	leaq	64(%rdx), %rdx
100003ff6:	eb 8c 	jmp	-116 <___intel_ssse3_strncpy+0xF94>
100003ff8:	0f 28 32 	movaps	(%rdx), %xmm6
100003ffb:	66 0f 73 de 08 	psrldq	$8, %xmm6
100004000:	48 c7 c6 08 00 00 00 	movq	$8, %rsi
100004007:	66 0f 3a 0f f1 08 	palignr	$8, %xmm1, %xmm6
10000400d:	0f 29 32 	movaps	%xmm6, (%rdx)
100004010:	e9 eb 0a 00 00 	jmp	2795 <___intel_ssse3_strncpy+0x1B10>
100004015:	0f 1f 40 00 	nopl	(%rax)
100004019:	0f 1f 80 00 00 00 00 	nopl	(%rax)
100004020:	0f 28 49 f7 	movaps	-9(%rcx), %xmm1
100004024:	0f 28 51 07 	movaps	7(%rcx), %xmm2
100004028:	66 0f 74 c2 	pcmpeqb	%xmm2, %xmm0
10000402c:	66 0f d7 c0 	pmovmskb	%xmm0, %eax
100004030:	0f 28 da 	movaps	%xmm2, %xmm3
100004033:	49 83 e8 10 	subq	$16, %r8
100004037:	0f 86 8a 14 00 00 	jbe	5258 <___intel_ssse3_strncpy+0x24D7>
10000403d:	48 85 c0 	testq	%rax, %rax
100004040:	0f 85 42 01 00 00 	jne	322 <___intel_ssse3_strncpy+0x1198>
100004046:	66 0f 3a 0f d1 09 	palignr	$9, %xmm1, %xmm2
10000404c:	0f 28 cb 	movaps	%xmm3, %xmm1
10000404f:	0f 29 12 	movaps	%xmm2, (%rdx)
100004052:	0f 28 51 17 	movaps	23(%rcx), %xmm2
100004056:	66 0f 74 c2 	pcmpeqb	%xmm2, %xmm0
10000405a:	48 8d 52 10 	leaq	16(%rdx), %rdx
10000405e:	66 0f d7 c0 	pmovmskb	%xmm0, %eax
100004062:	48 8d 49 10 	leaq	16(%rcx), %rcx
100004066:	0f 28 da 	movaps	%xmm2, %xmm3
100004069:	49 83 e8 10 	subq	$16, %r8
10000406d:	0f 86 54 14 00 00 	jbe	5204 <___intel_ssse3_strncpy+0x24D7>
100004073:	48 85 c0 	testq	%rax, %rax
100004076:	0f 85 0c 01 00 00 	jne	268 <___intel_ssse3_strncpy+0x1198>
10000407c:	66 0f 3a 0f d1 09 	palignr	$9, %xmm1, %xmm2
100004082:	0f 29 12 	movaps	%xmm2, (%rdx)
100004085:	0f 28 51 17 	movaps	23(%rcx), %xmm2
100004089:	0f 28 cb 	movaps	%xmm3, %xmm1
10000408c:	66 0f 74 c2 	pcmpeqb	%xmm2, %xmm0
100004090:	48 8d 52 10 	leaq	16(%rdx), %rdx
100004094:	66 0f d7 c0 	pmovmskb	%xmm0, %eax
100004098:	48 8d 49 10 	leaq	16(%rcx), %rcx
10000409c:	0f 28 da 	movaps	%xmm2, %xmm3
10000409f:	49 83 e8 10 	subq	$16, %r8
1000040a3:	0f 86 1e 14 00 00 	jbe	5150 <___intel_ssse3_strncpy+0x24D7>
1000040a9:	48 85 c0 	testq	%rax, %rax
1000040ac:	0f 85 d6 00 00 00 	jne	214 <___intel_ssse3_strncpy+0x1198>
1000040b2:	66 0f 3a 0f d1 09 	palignr	$9, %xmm1, %xmm2
1000040b8:	0f 28 cb 	movaps	%xmm3, %xmm1
1000040bb:	0f 29 12 	movaps	%xmm2, (%rdx)
1000040be:	0f 28 51 17 	movaps	23(%rcx), %xmm2
1000040c2:	66 0f 74 c2 	pcmpeqb	%xmm2, %xmm0
1000040c6:	48 8d 52 10 	leaq	16(%rdx), %rdx
1000040ca:	66 0f d7 c0 	pmovmskb	%xmm0, %eax
1000040ce:	48 8d 49 10 	leaq	16(%rcx), %rcx
1000040d2:	0f 28 da 	movaps	%xmm2, %xmm3
1000040d5:	49 83 e8 10 	subq	$16, %r8
1000040d9:	0f 86 e8 13 00 00 	jbe	5096 <___intel_ssse3_strncpy+0x24D7>
1000040df:	48 85 c0 	testq	%rax, %rax
1000040e2:	0f 85 a0 00 00 00 	jne	160 <___intel_ssse3_strncpy+0x1198>
1000040e8:	66 0f 3a 0f d1 09 	palignr	$9, %xmm1, %xmm2
1000040ee:	0f 28 cb 	movaps	%xmm3, %xmm1
1000040f1:	0f 29 12 	movaps	%xmm2, (%rdx)
1000040f4:	48 8d 49 17 	leaq	23(%rcx), %rcx
1000040f8:	48 8d 52 10 	leaq	16(%rdx), %rdx
1000040fc:	48 89 c8 	movq	%rcx, %rax
1000040ff:	48 83 e1 c0 	andq	$-64, %rcx
100004103:	48 2b c1 	subq	%rcx, %rax
100004106:	48 8d 49 f9 	leaq	-7(%rcx), %rcx
10000410a:	48 2b d0 	subq	%rax, %rdx
10000410d:	4c 03 c0 	addq	%rax, %r8
100004110:	0f 28 49 f7 	movaps	-9(%rcx), %xmm1
100004114:	0f 28 51 07 	movaps	7(%rcx), %xmm2
100004118:	0f 28 59 17 	movaps	23(%rcx), %xmm3
10000411c:	0f 28 f3 	movaps	%xmm3, %xmm6
10000411f:	0f 28 61 27 	movaps	39(%rcx), %xmm4
100004123:	0f 28 fc 	movaps	%xmm4, %xmm7
100004126:	0f 28 69 37 	movaps	55(%rcx), %xmm5
10000412a:	66 0f da f2 	pminub	%xmm2, %xmm6
10000412e:	66 0f da fd 	pminub	%xmm5, %xmm7
100004132:	66 0f da fe 	pminub	%xmm6, %xmm7
100004136:	66 0f 74 f8 	pcmpeqb	%xmm0, %xmm7
10000413a:	66 0f d7 c7 	pmovmskb	%xmm7, %eax
10000413e:	0f 28 fd 	movaps	%xmm5, %xmm7
100004141:	66 0f 3a 0f ec 09 	palignr	$9, %xmm4, %xmm5
100004147:	48 85 c0 	testq	%rax, %rax
10000414a:	66 0f 3a 0f e3 09 	palignr	$9, %xmm3, %xmm4
100004150:	0f 85 d2 fe ff ff 	jne	-302 <___intel_ssse3_strncpy+0x1038>
100004156:	49 83 e8 40 	subq	$64, %r8
10000415a:	0f 86 59 18 00 00 	jbe	6233 <___intel_ssse3_strncpy+0x29C9>
100004160:	66 0f 3a 0f da 09 	palignr	$9, %xmm2, %xmm3
100004166:	48 8d 49 40 	leaq	64(%rcx), %rcx
10000416a:	66 0f 3a 0f d1 09 	palignr	$9, %xmm1, %xmm2
100004170:	0f 28 cf 	movaps	%xmm7, %xmm1
100004173:	0f 29 6a 30 	movaps	%xmm5, 48(%rdx)
100004177:	0f 29 62 20 	movaps	%xmm4, 32(%rdx)
10000417b:	0f 29 5a 10 	movaps	%xmm3, 16(%rdx)
10000417f:	0f 29 12 	movaps	%xmm2, (%rdx)
100004182:	48 8d 52 40 	leaq	64(%rdx), %rdx
100004186:	eb 8c 	jmp	-116 <___intel_ssse3_strncpy+0x1124>
100004188:	0f 28 32 	movaps	(%rdx), %xmm6
10000418b:	66 0f 73 de 07 	psrldq	$7, %xmm6
100004190:	48 c7 c6 07 00 00 00 	movq	$7, %rsi
100004197:	66 0f 3a 0f f1 09 	palignr	$9, %xmm1, %xmm6
10000419d:	0f 29 32 	movaps	%xmm6, (%rdx)
1000041a0:	e9 5b 09 00 00 	jmp	2395 <___intel_ssse3_strncpy+0x1B10>
1000041a5:	0f 1f 40 00 	nopl	(%rax)
1000041a9:	0f 1f 80 00 00 00 00 	nopl	(%rax)
1000041b0:	0f 28 49 f6 	movaps	-10(%rcx), %xmm1
1000041b4:	0f 28 51 06 	movaps	6(%rcx), %xmm2
1000041b8:	66 0f 74 c2 	pcmpeqb	%xmm2, %xmm0
1000041bc:	66 0f d7 c0 	pmovmskb	%xmm0, %eax
1000041c0:	0f 28 da 	movaps	%xmm2, %xmm3
1000041c3:	49 83 e8 10 	subq	$16, %r8
1000041c7:	0f 86 20 13 00 00 	jbe	4896 <___intel_ssse3_strncpy+0x24FD>
1000041cd:	48 85 c0 	testq	%rax, %rax
1000041d0:	0f 85 42 01 00 00 	jne	322 <___intel_ssse3_strncpy+0x1328>
1000041d6:	66 0f 3a 0f d1 0a 	palignr	$10, %xmm1, %xmm2
1000041dc:	0f 28 cb 	movaps	%xmm3, %xmm1
1000041df:	0f 29 12 	movaps	%xmm2, (%rdx)
1000041e2:	0f 28 51 16 	movaps	22(%rcx), %xmm2
1000041e6:	66 0f 74 c2 	pcmpeqb	%xmm2, %xmm0
1000041ea:	48 8d 52 10 	leaq	16(%rdx), %rdx
1000041ee:	66 0f d7 c0 	pmovmskb	%xmm0, %eax
1000041f2:	48 8d 49 10 	leaq	16(%rcx), %rcx
1000041f6:	0f 28 da 	movaps	%xmm2, %xmm3
1000041f9:	49 83 e8 10 	subq	$16, %r8
1000041fd:	0f 86 ea 12 00 00 	jbe	4842 <___intel_ssse3_strncpy+0x24FD>
100004203:	48 85 c0 	testq	%rax, %rax
100004206:	0f 85 0c 01 00 00 	jne	268 <___intel_ssse3_strncpy+0x1328>
10000420c:	66 0f 3a 0f d1 0a 	palignr	$10, %xmm1, %xmm2
100004212:	0f 29 12 	movaps	%xmm2, (%rdx)
100004215:	0f 28 51 16 	movaps	22(%rcx), %xmm2
100004219:	0f 28 cb 	movaps	%xmm3, %xmm1
10000421c:	66 0f 74 c2 	pcmpeqb	%xmm2, %xmm0
100004220:	48 8d 52 10 	leaq	16(%rdx), %rdx
100004224:	66 0f d7 c0 	pmovmskb	%xmm0, %eax
100004228:	48 8d 49 10 	leaq	16(%rcx), %rcx
10000422c:	0f 28 da 	movaps	%xmm2, %xmm3
10000422f:	49 83 e8 10 	subq	$16, %r8
100004233:	0f 86 b4 12 00 00 	jbe	4788 <___intel_ssse3_strncpy+0x24FD>
100004239:	48 85 c0 	testq	%rax, %rax
10000423c:	0f 85 d6 00 00 00 	jne	214 <___intel_ssse3_strncpy+0x1328>
100004242:	66 0f 3a 0f d1 0a 	palignr	$10, %xmm1, %xmm2
100004248:	0f 28 cb 	movaps	%xmm3, %xmm1
10000424b:	0f 29 12 	movaps	%xmm2, (%rdx)
10000424e:	0f 28 51 16 	movaps	22(%rcx), %xmm2
100004252:	66 0f 74 c2 	pcmpeqb	%xmm2, %xmm0
100004256:	48 8d 52 10 	leaq	16(%rdx), %rdx
10000425a:	66 0f d7 c0 	pmovmskb	%xmm0, %eax
10000425e:	48 8d 49 10 	leaq	16(%rcx), %rcx
100004262:	0f 28 da 	movaps	%xmm2, %xmm3
100004265:	49 83 e8 10 	subq	$16, %r8
100004269:	0f 86 7e 12 00 00 	jbe	4734 <___intel_ssse3_strncpy+0x24FD>
10000426f:	48 85 c0 	testq	%rax, %rax
100004272:	0f 85 a0 00 00 00 	jne	160 <___intel_ssse3_strncpy+0x1328>
100004278:	66 0f 3a 0f d1 0a 	palignr	$10, %xmm1, %xmm2
10000427e:	0f 28 cb 	movaps	%xmm3, %xmm1
100004281:	0f 29 12 	movaps	%xmm2, (%rdx)
100004284:	48 8d 49 16 	leaq	22(%rcx), %rcx
100004288:	48 8d 52 10 	leaq	16(%rdx), %rdx
10000428c:	48 89 c8 	movq	%rcx, %rax
10000428f:	48 83 e1 c0 	andq	$-64, %rcx
100004293:	48 2b c1 	subq	%rcx, %rax
100004296:	48 8d 49 fa 	leaq	-6(%rcx), %rcx
10000429a:	48 2b d0 	subq	%rax, %rdx
10000429d:	4c 03 c0 	addq	%rax, %r8
1000042a0:	0f 28 49 f6 	movaps	-10(%rcx), %xmm1
1000042a4:	0f 28 51 06 	movaps	6(%rcx), %xmm2
1000042a8:	0f 28 59 16 	movaps	22(%rcx), %xmm3
1000042ac:	0f 28 f3 	movaps	%xmm3, %xmm6
1000042af:	0f 28 61 26 	movaps	38(%rcx), %xmm4
1000042b3:	0f 28 fc 	movaps	%xmm4, %xmm7
1000042b6:	0f 28 69 36 	movaps	54(%rcx), %xmm5
1000042ba:	66 0f da f2 	pminub	%xmm2, %xmm6
1000042be:	66 0f da fd 	pminub	%xmm5, %xmm7
1000042c2:	66 0f da fe 	pminub	%xmm6, %xmm7
1000042c6:	66 0f 74 f8 	pcmpeqb	%xmm0, %xmm7
1000042ca:	66 0f d7 c7 	pmovmskb	%xmm7, %eax
1000042ce:	0f 28 fd 	movaps	%xmm5, %xmm7
1000042d1:	66 0f 3a 0f ec 0a 	palignr	$10, %xmm4, %xmm5
1000042d7:	48 85 c0 	testq	%rax, %rax
1000042da:	66 0f 3a 0f e3 0a 	palignr	$10, %xmm3, %xmm4
1000042e0:	0f 85 d2 fe ff ff 	jne	-302 <___intel_ssse3_strncpy+0x11C8>
1000042e6:	49 83 e8 40 	subq	$64, %r8
1000042ea:	0f 86 46 17 00 00 	jbe	5958 <___intel_ssse3_strncpy+0x2A46>
1000042f0:	66 0f 3a 0f da 0a 	palignr	$10, %xmm2, %xmm3
1000042f6:	48 8d 49 40 	leaq	64(%rcx), %rcx
1000042fa:	66 0f 3a 0f d1 0a 	palignr	$10, %xmm1, %xmm2
100004300:	0f 28 cf 	movaps	%xmm7, %xmm1
100004303:	0f 29 6a 30 	movaps	%xmm5, 48(%rdx)
100004307:	0f 29 62 20 	movaps	%xmm4, 32(%rdx)
10000430b:	0f 29 5a 10 	movaps	%xmm3, 16(%rdx)
10000430f:	0f 29 12 	movaps	%xmm2, (%rdx)
100004312:	48 8d 52 40 	leaq	64(%rdx), %rdx
100004316:	eb 8c 	jmp	-116 <___intel_ssse3_strncpy+0x12B4>
100004318:	0f 28 32 	movaps	(%rdx), %xmm6
10000431b:	66 0f 73 de 06 	psrldq	$6, %xmm6
100004320:	48 c7 c6 06 00 00 00 	movq	$6, %rsi
100004327:	66 0f 3a 0f f1 0a 	palignr	$10, %xmm1, %xmm6
10000432d:	0f 29 32 	movaps	%xmm6, (%rdx)
100004330:	e9 cb 07 00 00 	jmp	1995 <___intel_ssse3_strncpy+0x1B10>
100004335:	0f 1f 40 00 	nopl	(%rax)
100004339:	0f 1f 80 00 00 00 00 	nopl	(%rax)
100004340:	0f 28 49 f5 	movaps	-11(%rcx), %xmm1
100004344:	0f 28 51 05 	movaps	5(%rcx), %xmm2
100004348:	66 0f 74 c2 	pcmpeqb	%xmm2, %xmm0
10000434c:	66 0f d7 c0 	pmovmskb	%xmm0, %eax
100004350:	0f 28 da 	movaps	%xmm2, %xmm3
100004353:	49 83 e8 10 	subq	$16, %r8
100004357:	0f 86 b6 11 00 00 	jbe	4534 <___intel_ssse3_strncpy+0x2523>
10000435d:	48 85 c0 	testq	%rax, %rax
100004360:	0f 85 42 01 00 00 	jne	322 <___intel_ssse3_strncpy+0x14B8>
100004366:	66 0f 3a 0f d1 0b 	palignr	$11, %xmm1, %xmm2
10000436c:	0f 28 cb 	movaps	%xmm3, %xmm1
10000436f:	0f 29 12 	movaps	%xmm2, (%rdx)
100004372:	0f 28 51 15 	movaps	21(%rcx), %xmm2
100004376:	66 0f 74 c2 	pcmpeqb	%xmm2, %xmm0
10000437a:	48 8d 52 10 	leaq	16(%rdx), %rdx
10000437e:	66 0f d7 c0 	pmovmskb	%xmm0, %eax
100004382:	48 8d 49 10 	leaq	16(%rcx), %rcx
100004386:	0f 28 da 	movaps	%xmm2, %xmm3
100004389:	49 83 e8 10 	subq	$16, %r8
10000438d:	0f 86 80 11 00 00 	jbe	4480 <___intel_ssse3_strncpy+0x2523>
100004393:	48 85 c0 	testq	%rax, %rax
100004396:	0f 85 0c 01 00 00 	jne	268 <___intel_ssse3_strncpy+0x14B8>
10000439c:	66 0f 3a 0f d1 0b 	palignr	$11, %xmm1, %xmm2
1000043a2:	0f 29 12 	movaps	%xmm2, (%rdx)
1000043a5:	0f 28 51 15 	movaps	21(%rcx), %xmm2
1000043a9:	0f 28 cb 	movaps	%xmm3, %xmm1
1000043ac:	66 0f 74 c2 	pcmpeqb	%xmm2, %xmm0
1000043b0:	48 8d 52 10 	leaq	16(%rdx), %rdx
1000043b4:	66 0f d7 c0 	pmovmskb	%xmm0, %eax
1000043b8:	48 8d 49 10 	leaq	16(%rcx), %rcx
1000043bc:	0f 28 da 	movaps	%xmm2, %xmm3
1000043bf:	49 83 e8 10 	subq	$16, %r8
1000043c3:	0f 86 4a 11 00 00 	jbe	4426 <___intel_ssse3_strncpy+0x2523>
1000043c9:	48 85 c0 	testq	%rax, %rax
1000043cc:	0f 85 d6 00 00 00 	jne	214 <___intel_ssse3_strncpy+0x14B8>
1000043d2:	66 0f 3a 0f d1 0b 	palignr	$11, %xmm1, %xmm2
1000043d8:	0f 28 cb 	movaps	%xmm3, %xmm1
1000043db:	0f 29 12 	movaps	%xmm2, (%rdx)
1000043de:	0f 28 51 15 	movaps	21(%rcx), %xmm2
1000043e2:	66 0f 74 c2 	pcmpeqb	%xmm2, %xmm0
1000043e6:	48 8d 52 10 	leaq	16(%rdx), %rdx
1000043ea:	66 0f d7 c0 	pmovmskb	%xmm0, %eax
1000043ee:	48 8d 49 10 	leaq	16(%rcx), %rcx
1000043f2:	0f 28 da 	movaps	%xmm2, %xmm3
1000043f5:	49 83 e8 10 	subq	$16, %r8
1000043f9:	0f 86 14 11 00 00 	jbe	4372 <___intel_ssse3_strncpy+0x2523>
1000043ff:	48 85 c0 	testq	%rax, %rax
100004402:	0f 85 a0 00 00 00 	jne	160 <___intel_ssse3_strncpy+0x14B8>
100004408:	66 0f 3a 0f d1 0b 	palignr	$11, %xmm1, %xmm2
10000440e:	0f 28 cb 	movaps	%xmm3, %xmm1
100004411:	0f 29 12 	movaps	%xmm2, (%rdx)
100004414:	48 8d 49 15 	leaq	21(%rcx), %rcx
100004418:	48 8d 52 10 	leaq	16(%rdx), %rdx
10000441c:	48 89 c8 	movq	%rcx, %rax
10000441f:	48 83 e1 c0 	andq	$-64, %rcx
100004423:	48 2b c1 	subq	%rcx, %rax
100004426:	48 8d 49 fb 	leaq	-5(%rcx), %rcx
10000442a:	48 2b d0 	subq	%rax, %rdx
10000442d:	4c 03 c0 	addq	%rax, %r8
100004430:	0f 28 49 f5 	movaps	-11(%rcx), %xmm1
100004434:	0f 28 51 05 	movaps	5(%rcx), %xmm2
100004438:	0f 28 59 15 	movaps	21(%rcx), %xmm3
10000443c:	0f 28 f3 	movaps	%xmm3, %xmm6
10000443f:	0f 28 61 25 	movaps	37(%rcx), %xmm4
100004443:	0f 28 fc 	movaps	%xmm4, %xmm7
100004446:	0f 28 69 35 	movaps	53(%rcx), %xmm5
10000444a:	66 0f da f2 	pminub	%xmm2, %xmm6
10000444e:	66 0f da fd 	pminub	%xmm5, %xmm7
100004452:	66 0f da fe 	pminub	%xmm6, %xmm7
100004456:	66 0f 74 f8 	pcmpeqb	%xmm0, %xmm7
10000445a:	66 0f d7 c7 	pmovmskb	%xmm7, %eax
10000445e:	0f 28 fd 	movaps	%xmm5, %xmm7
100004461:	66 0f 3a 0f ec 0b 	palignr	$11, %xmm4, %xmm5
100004467:	48 85 c0 	testq	%rax, %rax
10000446a:	66 0f 3a 0f e3 0b 	palignr	$11, %xmm3, %xmm4
100004470:	0f 85 d2 fe ff ff 	jne	-302 <___intel_ssse3_strncpy+0x1358>
100004476:	49 83 e8 40 	subq	$64, %r8
10000447a:	0f 86 33 16 00 00 	jbe	5683 <___intel_ssse3_strncpy+0x2AC3>
100004480:	66 0f 3a 0f da 0b 	palignr	$11, %xmm2, %xmm3
100004486:	48 8d 49 40 	leaq	64(%rcx), %rcx
10000448a:	66 0f 3a 0f d1 0b 	palignr	$11, %xmm1, %xmm2
100004490:	0f 28 cf 	movaps	%xmm7, %xmm1
100004493:	0f 29 6a 30 	movaps	%xmm5, 48(%rdx)
100004497:	0f 29 62 20 	movaps	%xmm4, 32(%rdx)
10000449b:	0f 29 5a 10 	movaps	%xmm3, 16(%rdx)
10000449f:	0f 29 12 	movaps	%xmm2, (%rdx)
1000044a2:	48 8d 52 40 	leaq	64(%rdx), %rdx
1000044a6:	eb 8c 	jmp	-116 <___intel_ssse3_strncpy+0x1444>
1000044a8:	0f 28 32 	movaps	(%rdx), %xmm6
1000044ab:	66 0f 73 de 05 	psrldq	$5, %xmm6
1000044b0:	48 c7 c6 05 00 00 00 	movq	$5, %rsi
1000044b7:	66 0f 3a 0f f1 0b 	palignr	$11, %xmm1, %xmm6
1000044bd:	0f 29 32 	movaps	%xmm6, (%rdx)
1000044c0:	e9 3b 06 00 00 	jmp	1595 <___intel_ssse3_strncpy+0x1B10>
1000044c5:	0f 1f 40 00 	nopl	(%rax)
1000044c9:	0f 1f 80 00 00 00 00 	nopl	(%rax)
1000044d0:	0f 28 49 f4 	movaps	-12(%rcx), %xmm1
1000044d4:	0f 28 51 04 	movaps	4(%rcx), %xmm2
1000044d8:	66 0f 74 c2 	pcmpeqb	%xmm2, %xmm0
1000044dc:	66 0f d7 c0 	pmovmskb	%xmm0, %eax
1000044e0:	0f 28 da 	movaps	%xmm2, %xmm3
1000044e3:	49 83 e8 10 	subq	$16, %r8
1000044e7:	0f 86 4c 10 00 00 	jbe	4172 <___intel_ssse3_strncpy+0x2549>
1000044ed:	48 85 c0 	testq	%rax, %rax
1000044f0:	0f 85 42 01 00 00 	jne	322 <___intel_ssse3_strncpy+0x1648>
1000044f6:	66 0f 3a 0f d1 0c 	palignr	$12, %xmm1, %xmm2
1000044fc:	0f 28 cb 	movaps	%xmm3, %xmm1
1000044ff:	0f 29 12 	movaps	%xmm2, (%rdx)
100004502:	0f 28 51 14 	movaps	20(%rcx), %xmm2
100004506:	66 0f 74 c2 	pcmpeqb	%xmm2, %xmm0
10000450a:	48 8d 52 10 	leaq	16(%rdx), %rdx
10000450e:	66 0f d7 c0 	pmovmskb	%xmm0, %eax
100004512:	48 8d 49 10 	leaq	16(%rcx), %rcx
100004516:	0f 28 da 	movaps	%xmm2, %xmm3
100004519:	49 83 e8 10 	subq	$16, %r8
10000451d:	0f 86 16 10 00 00 	jbe	4118 <___intel_ssse3_strncpy+0x2549>
100004523:	48 85 c0 	testq	%rax, %rax
100004526:	0f 85 0c 01 00 00 	jne	268 <___intel_ssse3_strncpy+0x1648>
10000452c:	66 0f 3a 0f d1 0c 	palignr	$12, %xmm1, %xmm2
100004532:	0f 29 12 	movaps	%xmm2, (%rdx)
100004535:	0f 28 51 14 	movaps	20(%rcx), %xmm2
100004539:	0f 28 cb 	movaps	%xmm3, %xmm1
10000453c:	66 0f 74 c2 	pcmpeqb	%xmm2, %xmm0
100004540:	48 8d 52 10 	leaq	16(%rdx), %rdx
100004544:	66 0f d7 c0 	pmovmskb	%xmm0, %eax
100004548:	48 8d 49 10 	leaq	16(%rcx), %rcx
10000454c:	0f 28 da 	movaps	%xmm2, %xmm3
10000454f:	49 83 e8 10 	subq	$16, %r8
100004553:	0f 86 e0 0f 00 00 	jbe	4064 <___intel_ssse3_strncpy+0x2549>
100004559:	48 85 c0 	testq	%rax, %rax
10000455c:	0f 85 d6 00 00 00 	jne	214 <___intel_ssse3_strncpy+0x1648>
100004562:	66 0f 3a 0f d1 0c 	palignr	$12, %xmm1, %xmm2
100004568:	0f 28 cb 	movaps	%xmm3, %xmm1
10000456b:	0f 29 12 	movaps	%xmm2, (%rdx)
10000456e:	0f 28 51 14 	movaps	20(%rcx), %xmm2
100004572:	66 0f 74 c2 	pcmpeqb	%xmm2, %xmm0
100004576:	48 8d 52 10 	leaq	16(%rdx), %rdx
10000457a:	66 0f d7 c0 	pmovmskb	%xmm0, %eax
10000457e:	48 8d 49 10 	leaq	16(%rcx), %rcx
100004582:	0f 28 da 	movaps	%xmm2, %xmm3
100004585:	49 83 e8 10 	subq	$16, %r8
100004589:	0f 86 aa 0f 00 00 	jbe	4010 <___intel_ssse3_strncpy+0x2549>
10000458f:	48 85 c0 	testq	%rax, %rax
100004592:	0f 85 a0 00 00 00 	jne	160 <___intel_ssse3_strncpy+0x1648>
100004598:	66 0f 3a 0f d1 0c 	palignr	$12, %xmm1, %xmm2
10000459e:	0f 28 cb 	movaps	%xmm3, %xmm1
1000045a1:	0f 29 12 	movaps	%xmm2, (%rdx)
1000045a4:	48 8d 49 14 	leaq	20(%rcx), %rcx
1000045a8:	48 8d 52 10 	leaq	16(%rdx), %rdx
1000045ac:	48 89 c8 	movq	%rcx, %rax
1000045af:	48 83 e1 c0 	andq	$-64, %rcx
1000045b3:	48 2b c1 	subq	%rcx, %rax
1000045b6:	48 8d 49 fc 	leaq	-4(%rcx), %rcx
1000045ba:	48 2b d0 	subq	%rax, %rdx
1000045bd:	4c 03 c0 	addq	%rax, %r8
1000045c0:	0f 28 49 f4 	movaps	-12(%rcx), %xmm1
1000045c4:	0f 28 51 04 	movaps	4(%rcx), %xmm2
1000045c8:	0f 28 59 14 	movaps	20(%rcx), %xmm3
1000045cc:	0f 28 f3 	movaps	%xmm3, %xmm6
1000045cf:	0f 28 61 24 	movaps	36(%rcx), %xmm4
1000045d3:	0f 28 fc 	movaps	%xmm4, %xmm7
1000045d6:	0f 28 69 34 	movaps	52(%rcx), %xmm5
1000045da:	66 0f da f2 	pminub	%xmm2, %xmm6
1000045de:	66 0f da fd 	pminub	%xmm5, %xmm7
1000045e2:	66 0f da fe 	pminub	%xmm6, %xmm7
1000045e6:	66 0f 74 f8 	pcmpeqb	%xmm0, %xmm7
1000045ea:	66 0f d7 c7 	pmovmskb	%xmm7, %eax
1000045ee:	0f 28 fd 	movaps	%xmm5, %xmm7
1000045f1:	66 0f 3a 0f ec 0c 	palignr	$12, %xmm4, %xmm5
1000045f7:	48 85 c0 	testq	%rax, %rax
1000045fa:	66 0f 3a 0f e3 0c 	palignr	$12, %xmm3, %xmm4
100004600:	0f 85 d2 fe ff ff 	jne	-302 <___intel_ssse3_strncpy+0x14E8>
100004606:	49 83 e8 40 	subq	$64, %r8
10000460a:	0f 86 20 15 00 00 	jbe	5408 <___intel_ssse3_strncpy+0x2B40>
100004610:	66 0f 3a 0f da 0c 	palignr	$12, %xmm2, %xmm3
100004616:	48 8d 49 40 	leaq	64(%rcx), %rcx
10000461a:	66 0f 3a 0f d1 0c 	palignr	$12, %xmm1, %xmm2
100004620:	0f 28 cf 	movaps	%xmm7, %xmm1
100004623:	0f 29 6a 30 	movaps	%xmm5, 48(%rdx)
100004627:	0f 29 62 20 	movaps	%xmm4, 32(%rdx)
10000462b:	0f 29 5a 10 	movaps	%xmm3, 16(%rdx)
10000462f:	0f 29 12 	movaps	%xmm2, (%rdx)
100004632:	48 8d 52 40 	leaq	64(%rdx), %rdx
100004636:	eb 8c 	jmp	-116 <___intel_ssse3_strncpy+0x15D4>
100004638:	0f 28 32 	movaps	(%rdx), %xmm6
10000463b:	66 0f 73 de 04 	psrldq	$4, %xmm6
100004640:	48 c7 c6 04 00 00 00 	movq	$4, %rsi
100004647:	66 0f 3a 0f f1 0c 	palignr	$12, %xmm1, %xmm6
10000464d:	0f 29 32 	movaps	%xmm6, (%rdx)
100004650:	e9 ab 04 00 00 	jmp	1195 <___intel_ssse3_strncpy+0x1B10>
100004655:	0f 1f 40 00 	nopl	(%rax)
100004659:	0f 1f 80 00 00 00 00 	nopl	(%rax)
100004660:	0f 28 49 f3 	movaps	-13(%rcx), %xmm1
100004664:	0f 28 51 03 	movaps	3(%rcx), %xmm2
100004668:	66 0f 74 c2 	pcmpeqb	%xmm2, %xmm0
10000466c:	66 0f d7 c0 	pmovmskb	%xmm0, %eax
100004670:	0f 28 da 	movaps	%xmm2, %xmm3
100004673:	49 83 e8 10 	subq	$16, %r8
100004677:	0f 86 e2 0e 00 00 	jbe	3810 <___intel_ssse3_strncpy+0x256F>
10000467d:	48 85 c0 	testq	%rax, %rax
100004680:	0f 85 42 01 00 00 	jne	322 <___intel_ssse3_strncpy+0x17D8>
100004686:	66 0f 3a 0f d1 0d 	palignr	$13, %xmm1, %xmm2
10000468c:	0f 28 cb 	movaps	%xmm3, %xmm1
10000468f:	0f 29 12 	movaps	%xmm2, (%rdx)
100004692:	0f 28 51 13 	movaps	19(%rcx), %xmm2
100004696:	66 0f 74 c2 	pcmpeqb	%xmm2, %xmm0
10000469a:	48 8d 52 10 	leaq	16(%rdx), %rdx
10000469e:	66 0f d7 c0 	pmovmskb	%xmm0, %eax
1000046a2:	48 8d 49 10 	leaq	16(%rcx), %rcx
1000046a6:	0f 28 da 	movaps	%xmm2, %xmm3
1000046a9:	49 83 e8 10 	subq	$16, %r8
1000046ad:	0f 86 ac 0e 00 00 	jbe	3756 <___intel_ssse3_strncpy+0x256F>
1000046b3:	48 85 c0 	testq	%rax, %rax
1000046b6:	0f 85 0c 01 00 00 	jne	268 <___intel_ssse3_strncpy+0x17D8>
1000046bc:	66 0f 3a 0f d1 0d 	palignr	$13, %xmm1, %xmm2
1000046c2:	0f 29 12 	movaps	%xmm2, (%rdx)
1000046c5:	0f 28 51 13 	movaps	19(%rcx), %xmm2
1000046c9:	0f 28 cb 	movaps	%xmm3, %xmm1
1000046cc:	66 0f 74 c2 	pcmpeqb	%xmm2, %xmm0
1000046d0:	48 8d 52 10 	leaq	16(%rdx), %rdx
1000046d4:	66 0f d7 c0 	pmovmskb	%xmm0, %eax
1000046d8:	48 8d 49 10 	leaq	16(%rcx), %rcx
1000046dc:	0f 28 da 	movaps	%xmm2, %xmm3
1000046df:	49 83 e8 10 	subq	$16, %r8
1000046e3:	0f 86 76 0e 00 00 	jbe	3702 <___intel_ssse3_strncpy+0x256F>
1000046e9:	48 85 c0 	testq	%rax, %rax
1000046ec:	0f 85 d6 00 00 00 	jne	214 <___intel_ssse3_strncpy+0x17D8>
1000046f2:	66 0f 3a 0f d1 0d 	palignr	$13, %xmm1, %xmm2
1000046f8:	0f 28 cb 	movaps	%xmm3, %xmm1
1000046fb:	0f 29 12 	movaps	%xmm2, (%rdx)
1000046fe:	0f 28 51 13 	movaps	19(%rcx), %xmm2
100004702:	66 0f 74 c2 	pcmpeqb	%xmm2, %xmm0
100004706:	48 8d 52 10 	leaq	16(%rdx), %rdx
10000470a:	66 0f d7 c0 	pmovmskb	%xmm0, %eax
10000470e:	48 8d 49 10 	leaq	16(%rcx), %rcx
100004712:	0f 28 da 	movaps	%xmm2, %xmm3
100004715:	49 83 e8 10 	subq	$16, %r8
100004719:	0f 86 40 0e 00 00 	jbe	3648 <___intel_ssse3_strncpy+0x256F>
10000471f:	48 85 c0 	testq	%rax, %rax
100004722:	0f 85 a0 00 00 00 	jne	160 <___intel_ssse3_strncpy+0x17D8>
100004728:	66 0f 3a 0f d1 0d 	palignr	$13, %xmm1, %xmm2
10000472e:	0f 28 cb 	movaps	%xmm3, %xmm1
100004731:	0f 29 12 	movaps	%xmm2, (%rdx)
100004734:	48 8d 49 13 	leaq	19(%rcx), %rcx
100004738:	48 8d 52 10 	leaq	16(%rdx), %rdx
10000473c:	48 89 c8 	movq	%rcx, %rax
10000473f:	48 83 e1 c0 	andq	$-64, %rcx
100004743:	48 2b c1 	subq	%rcx, %rax
100004746:	48 8d 49 fd 	leaq	-3(%rcx), %rcx
10000474a:	48 2b d0 	subq	%rax, %rdx
10000474d:	4c 03 c0 	addq	%rax, %r8
100004750:	0f 28 49 f3 	movaps	-13(%rcx), %xmm1
100004754:	0f 28 51 03 	movaps	3(%rcx), %xmm2
100004758:	0f 28 59 13 	movaps	19(%rcx), %xmm3
10000475c:	0f 28 f3 	movaps	%xmm3, %xmm6
10000475f:	0f 28 61 23 	movaps	35(%rcx), %xmm4
100004763:	0f 28 fc 	movaps	%xmm4, %xmm7
100004766:	0f 28 69 33 	movaps	51(%rcx), %xmm5
10000476a:	66 0f da f2 	pminub	%xmm2, %xmm6
10000476e:	66 0f da fd 	pminub	%xmm5, %xmm7
100004772:	66 0f da fe 	pminub	%xmm6, %xmm7
100004776:	66 0f 74 f8 	pcmpeqb	%xmm0, %xmm7
10000477a:	66 0f d7 c7 	pmovmskb	%xmm7, %eax
10000477e:	0f 28 fd 	movaps	%xmm5, %xmm7
100004781:	66 0f 3a 0f ec 0d 	palignr	$13, %xmm4, %xmm5
100004787:	48 85 c0 	testq	%rax, %rax
10000478a:	66 0f 3a 0f e3 0d 	palignr	$13, %xmm3, %xmm4
100004790:	0f 85 d2 fe ff ff 	jne	-302 <___intel_ssse3_strncpy+0x1678>
100004796:	49 83 e8 40 	subq	$64, %r8
10000479a:	0f 86 0d 14 00 00 	jbe	5133 <___intel_ssse3_strncpy+0x2BBD>
1000047a0:	66 0f 3a 0f da 0d 	palignr	$13, %xmm2, %xmm3
1000047a6:	48 8d 49 40 	leaq	64(%rcx), %rcx
1000047aa:	66 0f 3a 0f d1 0d 	palignr	$13, %xmm1, %xmm2
1000047b0:	0f 28 cf 	movaps	%xmm7, %xmm1
1000047b3:	0f 29 6a 30 	movaps	%xmm5, 48(%rdx)
1000047b7:	0f 29 62 20 	movaps	%xmm4, 32(%rdx)
1000047bb:	0f 29 5a 10 	movaps	%xmm3, 16(%rdx)
1000047bf:	0f 29 12 	movaps	%xmm2, (%rdx)
1000047c2:	48 8d 52 40 	leaq	64(%rdx), %rdx
1000047c6:	eb 8c 	jmp	-116 <___intel_ssse3_strncpy+0x1764>
1000047c8:	0f 28 32 	movaps	(%rdx), %xmm6
1000047cb:	66 0f 73 de 03 	psrldq	$3, %xmm6
1000047d0:	48 c7 c6 03 00 00 00 	movq	$3, %rsi
1000047d7:	66 0f 3a 0f f1 0d 	palignr	$13, %xmm1, %xmm6
1000047dd:	0f 29 32 	movaps	%xmm6, (%rdx)
1000047e0:	e9 1b 03 00 00 	jmp	795 <___intel_ssse3_strncpy+0x1B10>
1000047e5:	0f 1f 40 00 	nopl	(%rax)
1000047e9:	0f 1f 80 00 00 00 00 	nopl	(%rax)
1000047f0:	0f 28 49 f2 	movaps	-14(%rcx), %xmm1
1000047f4:	0f 28 51 02 	movaps	2(%rcx), %xmm2
1000047f8:	66 0f 74 c2 	pcmpeqb	%xmm2, %xmm0
1000047fc:	66 0f d7 c0 	pmovmskb	%xmm0, %eax
100004800:	0f 28 da 	movaps	%xmm2, %xmm3
100004803:	49 83 e8 10 	subq	$16, %r8
100004807:	0f 86 78 0d 00 00 	jbe	3448 <___intel_ssse3_strncpy+0x2595>
10000480d:	48 85 c0 	testq	%rax, %rax
100004810:	0f 85 42 01 00 00 	jne	322 <___intel_ssse3_strncpy+0x1968>
100004816:	66 0f 3a 0f d1 0e 	palignr	$14, %xmm1, %xmm2
10000481c:	0f 28 cb 	movaps	%xmm3, %xmm1
10000481f:	0f 29 12 	movaps	%xmm2, (%rdx)
100004822:	0f 28 51 12 	movaps	18(%rcx), %xmm2
100004826:	66 0f 74 c2 	pcmpeqb	%xmm2, %xmm0
10000482a:	48 8d 52 10 	leaq	16(%rdx), %rdx
10000482e:	66 0f d7 c0 	pmovmskb	%xmm0, %eax
100004832:	48 8d 49 10 	leaq	16(%rcx), %rcx
100004836:	0f 28 da 	movaps	%xmm2, %xmm3
100004839:	49 83 e8 10 	subq	$16, %r8
10000483d:	0f 86 42 0d 00 00 	jbe	3394 <___intel_ssse3_strncpy+0x2595>
100004843:	48 85 c0 	testq	%rax, %rax
100004846:	0f 85 0c 01 00 00 	jne	268 <___intel_ssse3_strncpy+0x1968>
10000484c:	66 0f 3a 0f d1 0e 	palignr	$14, %xmm1, %xmm2
100004852:	0f 29 12 	movaps	%xmm2, (%rdx)
100004855:	0f 28 51 12 	movaps	18(%rcx), %xmm2
100004859:	0f 28 cb 	movaps	%xmm3, %xmm1
10000485c:	66 0f 74 c2 	pcmpeqb	%xmm2, %xmm0
100004860:	48 8d 52 10 	leaq	16(%rdx), %rdx
100004864:	66 0f d7 c0 	pmovmskb	%xmm0, %eax
100004868:	48 8d 49 10 	leaq	16(%rcx), %rcx
10000486c:	0f 28 da 	movaps	%xmm2, %xmm3
10000486f:	49 83 e8 10 	subq	$16, %r8
100004873:	0f 86 0c 0d 00 00 	jbe	3340 <___intel_ssse3_strncpy+0x2595>
100004879:	48 85 c0 	testq	%rax, %rax
10000487c:	0f 85 d6 00 00 00 	jne	214 <___intel_ssse3_strncpy+0x1968>
100004882:	66 0f 3a 0f d1 0e 	palignr	$14, %xmm1, %xmm2
100004888:	0f 28 cb 	movaps	%xmm3, %xmm1
10000488b:	0f 29 12 	movaps	%xmm2, (%rdx)
10000488e:	0f 28 51 12 	movaps	18(%rcx), %xmm2
100004892:	66 0f 74 c2 	pcmpeqb	%xmm2, %xmm0
100004896:	48 8d 52 10 	leaq	16(%rdx), %rdx
10000489a:	66 0f d7 c0 	pmovmskb	%xmm0, %eax
10000489e:	48 8d 49 10 	leaq	16(%rcx), %rcx
1000048a2:	0f 28 da 	movaps	%xmm2, %xmm3
1000048a5:	49 83 e8 10 	subq	$16, %r8
1000048a9:	0f 86 d6 0c 00 00 	jbe	3286 <___intel_ssse3_strncpy+0x2595>
1000048af:	48 85 c0 	testq	%rax, %rax
1000048b2:	0f 85 a0 00 00 00 	jne	160 <___intel_ssse3_strncpy+0x1968>
1000048b8:	66 0f 3a 0f d1 0e 	palignr	$14, %xmm1, %xmm2
1000048be:	0f 28 cb 	movaps	%xmm3, %xmm1
1000048c1:	0f 29 12 	movaps	%xmm2, (%rdx)
1000048c4:	48 8d 49 12 	leaq	18(%rcx), %rcx
1000048c8:	48 8d 52 10 	leaq	16(%rdx), %rdx
1000048cc:	48 89 c8 	movq	%rcx, %rax
1000048cf:	48 83 e1 c0 	andq	$-64, %rcx
1000048d3:	48 2b c1 	subq	%rcx, %rax
1000048d6:	48 8d 49 fe 	leaq	-2(%rcx), %rcx
1000048da:	48 2b d0 	subq	%rax, %rdx
1000048dd:	4c 03 c0 	addq	%rax, %r8
1000048e0:	0f 28 49 f2 	movaps	-14(%rcx), %xmm1
1000048e4:	0f 28 51 02 	movaps	2(%rcx), %xmm2
1000048e8:	0f 28 59 12 	movaps	18(%rcx), %xmm3
1000048ec:	0f 28 f3 	movaps	%xmm3, %xmm6
1000048ef:	0f 28 61 22 	movaps	34(%rcx), %xmm4
1000048f3:	0f 28 fc 	movaps	%xmm4, %xmm7
1000048f6:	0f 28 69 32 	movaps	50(%rcx), %xmm5
1000048fa:	66 0f da f2 	pminub	%xmm2, %xmm6
1000048fe:	66 0f da fd 	pminub	%xmm5, %xmm7
100004902:	66 0f da fe 	pminub	%xmm6, %xmm7
100004906:	66 0f 74 f8 	pcmpeqb	%xmm0, %xmm7
10000490a:	66 0f d7 c7 	pmovmskb	%xmm7, %eax
10000490e:	0f 28 fd 	movaps	%xmm5, %xmm7
100004911:	66 0f 3a 0f ec 0e 	palignr	$14, %xmm4, %xmm5
100004917:	48 85 c0 	testq	%rax, %rax
10000491a:	66 0f 3a 0f e3 0e 	palignr	$14, %xmm3, %xmm4
100004920:	0f 85 d2 fe ff ff 	jne	-302 <___intel_ssse3_strncpy+0x1808>
100004926:	49 83 e8 40 	subq	$64, %r8
10000492a:	0f 86 fa 12 00 00 	jbe	4858 <___intel_ssse3_strncpy+0x2C3A>
100004930:	66 0f 3a 0f da 0e 	palignr	$14, %xmm2, %xmm3
100004936:	48 8d 49 40 	leaq	64(%rcx), %rcx
10000493a:	66 0f 3a 0f d1 0e 	palignr	$14, %xmm1, %xmm2
100004940:	0f 28 cf 	movaps	%xmm7, %xmm1
100004943:	0f 29 6a 30 	movaps	%xmm5, 48(%rdx)
100004947:	0f 29 62 20 	movaps	%xmm4, 32(%rdx)
10000494b:	0f 29 5a 10 	movaps	%xmm3, 16(%rdx)
10000494f:	0f 29 12 	movaps	%xmm2, (%rdx)
100004952:	48 8d 52 40 	leaq	64(%rdx), %rdx
100004956:	eb 8c 	jmp	-116 <___intel_ssse3_strncpy+0x18F4>
100004958:	0f 28 32 	movaps	(%rdx), %xmm6
10000495b:	66 0f 73 de 02 	psrldq	$2, %xmm6
100004960:	48 c7 c6 02 00 00 00 	movq	$2, %rsi
100004967:	66 0f 3a 0f f1 0e 	palignr	$14, %xmm1, %xmm6
10000496d:	0f 29 32 	movaps	%xmm6, (%rdx)
100004970:	e9 8b 01 00 00 	jmp	395 <___intel_ssse3_strncpy+0x1B10>
100004975:	0f 1f 40 00 	nopl	(%rax)
100004979:	0f 1f 80 00 00 00 00 	nopl	(%rax)
100004980:	0f 28 49 f1 	movaps	-15(%rcx), %xmm1
100004984:	0f 28 51 01 	movaps	1(%rcx), %xmm2
100004988:	66 0f 74 c2 	pcmpeqb	%xmm2, %xmm0
10000498c:	66 0f d7 c0 	pmovmskb	%xmm0, %eax
100004990:	0f 28 da 	movaps	%xmm2, %xmm3
100004993:	49 83 e8 10 	subq	$16, %r8
100004997:	0f 86 0e 0c 00 00 	jbe	3086 <___intel_ssse3_strncpy+0x25BB>
10000499d:	48 85 c0 	testq	%rax, %rax
1000049a0:	0f 85 42 01 00 00 	jne	322 <___intel_ssse3_strncpy+0x1AF8>
1000049a6:	66 0f 3a 0f d1 0f 	palignr	$15, %xmm1, %xmm2
1000049ac:	0f 28 cb 	movaps	%xmm3, %xmm1
1000049af:	0f 29 12 	movaps	%xmm2, (%rdx)
1000049b2:	0f 28 51 11 	movaps	17(%rcx), %xmm2
1000049b6:	66 0f 74 c2 	pcmpeqb	%xmm2, %xmm0
1000049ba:	48 8d 52 10 	leaq	16(%rdx), %rdx
1000049be:	66 0f d7 c0 	pmovmskb	%xmm0, %eax
1000049c2:	48 8d 49 10 	leaq	16(%rcx), %rcx
1000049c6:	0f 28 da 	movaps	%xmm2, %xmm3
1000049c9:	49 83 e8 10 	subq	$16, %r8
1000049cd:	0f 86 d8 0b 00 00 	jbe	3032 <___intel_ssse3_strncpy+0x25BB>
1000049d3:	48 85 c0 	testq	%rax, %rax
1000049d6:	0f 85 0c 01 00 00 	jne	268 <___intel_ssse3_strncpy+0x1AF8>
1000049dc:	66 0f 3a 0f d1 0f 	palignr	$15, %xmm1, %xmm2
1000049e2:	0f 29 12 	movaps	%xmm2, (%rdx)
1000049e5:	0f 28 51 11 	movaps	17(%rcx), %xmm2
1000049e9:	0f 28 cb 	movaps	%xmm3, %xmm1
1000049ec:	66 0f 74 c2 	pcmpeqb	%xmm2, %xmm0
1000049f0:	48 8d 52 10 	leaq	16(%rdx), %rdx
1000049f4:	66 0f d7 c0 	pmovmskb	%xmm0, %eax
1000049f8:	48 8d 49 10 	leaq	16(%rcx), %rcx
1000049fc:	0f 28 da 	movaps	%xmm2, %xmm3
1000049ff:	49 83 e8 10 	subq	$16, %r8
100004a03:	0f 86 a2 0b 00 00 	jbe	2978 <___intel_ssse3_strncpy+0x25BB>
100004a09:	48 85 c0 	testq	%rax, %rax
100004a0c:	0f 85 d6 00 00 00 	jne	214 <___intel_ssse3_strncpy+0x1AF8>
100004a12:	66 0f 3a 0f d1 0f 	palignr	$15, %xmm1, %xmm2
100004a18:	0f 28 cb 	movaps	%xmm3, %xmm1
100004a1b:	0f 29 12 	movaps	%xmm2, (%rdx)
100004a1e:	0f 28 51 11 	movaps	17(%rcx), %xmm2
100004a22:	66 0f 74 c2 	pcmpeqb	%xmm2, %xmm0
100004a26:	48 8d 52 10 	leaq	16(%rdx), %rdx
100004a2a:	66 0f d7 c0 	pmovmskb	%xmm0, %eax
100004a2e:	48 8d 49 10 	leaq	16(%rcx), %rcx
100004a32:	0f 28 da 	movaps	%xmm2, %xmm3
100004a35:	49 83 e8 10 	subq	$16, %r8
100004a39:	0f 86 6c 0b 00 00 	jbe	2924 <___intel_ssse3_strncpy+0x25BB>
100004a3f:	48 85 c0 	testq	%rax, %rax
100004a42:	0f 85 a0 00 00 00 	jne	160 <___intel_ssse3_strncpy+0x1AF8>
100004a48:	66 0f 3a 0f d1 0f 	palignr	$15, %xmm1, %xmm2
100004a4e:	0f 28 cb 	movaps	%xmm3, %xmm1
100004a51:	0f 29 12 	movaps	%xmm2, (%rdx)
100004a54:	48 8d 49 11 	leaq	17(%rcx), %rcx
100004a58:	48 8d 52 10 	leaq	16(%rdx), %rdx
100004a5c:	48 89 c8 	movq	%rcx, %rax
100004a5f:	48 83 e1 c0 	andq	$-64, %rcx
100004a63:	48 2b c1 	subq	%rcx, %rax
100004a66:	48 8d 49 ff 	leaq	-1(%rcx), %rcx
100004a6a:	48 2b d0 	subq	%rax, %rdx
100004a6d:	4c 03 c0 	addq	%rax, %r8
100004a70:	0f 28 49 f1 	movaps	-15(%rcx), %xmm1
100004a74:	0f 28 51 01 	movaps	1(%rcx), %xmm2
100004a78:	0f 28 59 11 	movaps	17(%rcx), %xmm3
100004a7c:	0f 28 f3 	movaps	%xmm3, %xmm6
100004a7f:	0f 28 61 21 	movaps	33(%rcx), %xmm4
100004a83:	0f 28 fc 	movaps	%xmm4, %xmm7
100004a86:	0f 28 69 31 	movaps	49(%rcx), %xmm5
100004a8a:	66 0f da f2 	pminub	%xmm2, %xmm6
100004a8e:	66 0f da fd 	pminub	%xmm5, %xmm7
100004a92:	66 0f da fe 	pminub	%xmm6, %xmm7
100004a96:	66 0f 74 f8 	pcmpeqb	%xmm0, %xmm7
100004a9a:	66 0f d7 c7 	pmovmskb	%xmm7, %eax
100004a9e:	0f 28 fd 	movaps	%xmm5, %xmm7
100004aa1:	66 0f 3a 0f ec 0f 	palignr	$15, %xmm4, %xmm5
100004aa7:	48 85 c0 	testq	%rax, %rax
100004aaa:	66 0f 3a 0f e3 0f 	palignr	$15, %xmm3, %xmm4
100004ab0:	0f 85 d2 fe ff ff 	jne	-302 <___intel_ssse3_strncpy+0x1998>
100004ab6:	49 83 e8 40 	subq	$64, %r8
100004aba:	0f 86 e7 11 00 00 	jbe	4583 <___intel_ssse3_strncpy+0x2CB7>
100004ac0:	66 0f 3a 0f da 0f 	palignr	$15, %xmm2, %xmm3
100004ac6:	48 8d 49 40 	leaq	64(%rcx), %rcx
100004aca:	66 0f 3a 0f d1 0f 	palignr	$15, %xmm1, %xmm2
100004ad0:	0f 28 cf 	movaps	%xmm7, %xmm1
100004ad3:	0f 29 6a 30 	movaps	%xmm5, 48(%rdx)
100004ad7:	0f 29 62 20 	movaps	%xmm4, 32(%rdx)
100004adb:	0f 29 5a 10 	movaps	%xmm3, 16(%rdx)
100004adf:	0f 29 12 	movaps	%xmm2, (%rdx)
100004ae2:	48 8d 52 40 	leaq	64(%rdx), %rdx
100004ae6:	eb 8c 	jmp	-116 <___intel_ssse3_strncpy+0x1A84>
100004ae8:	0f 28 32 	movaps	(%rdx), %xmm6
100004aeb:	66 0f 73 de 01 	psrldq	$1, %xmm6
100004af0:	48 c7 c6 01 00 00 00 	movq	$1, %rsi
100004af7:	66 0f 3a 0f f1 0f 	palignr	$15, %xmm1, %xmm6
100004afd:	0f 29 32 	movaps	%xmm6, (%rdx)
100004b00:	49 83 c0 10 	addq	$16, %r8
100004b04:	48 03 d6 	addq	%rsi, %rdx
100004b07:	48 03 ce 	addq	%rsi, %rcx
100004b0a:	84 c0 	testb	%al, %al
100004b0c:	74 62 	je	98 <___intel_ssse3_strncpy+0x1B80>
100004b0e:	a8 01 	testb	$1, %al
100004b10:	0f 85 9a 02 00 00 	jne	666 <___intel_ssse3_strncpy+0x1DC0>
100004b16:	a8 02 	testb	$2, %al
100004b18:	0f 85 b2 02 00 00 	jne	690 <___intel_ssse3_strncpy+0x1DE0>
100004b1e:	a8 04 	testb	$4, %al
100004b20:	0f 85 ca 02 00 00 	jne	714 <___intel_ssse3_strncpy+0x1E00>
100004b26:	a8 08 	testb	$8, %al
100004b28:	0f 85 e2 02 00 00 	jne	738 <___intel_ssse3_strncpy+0x1E20>
100004b2e:	a8 10 	testb	$16, %al
100004b30:	0f 85 fa 02 00 00 	jne	762 <___intel_ssse3_strncpy+0x1E40>
100004b36:	a8 20 	testb	$32, %al
100004b38:	0f 85 12 03 00 00 	jne	786 <___intel_ssse3_strncpy+0x1E60>
100004b3e:	a8 40 	testb	$64, %al
100004b40:	0f 85 2a 03 00 00 	jne	810 <___intel_ssse3_strncpy+0x1E80>
100004b46:	0f 1f 00 	nopl	(%rax)
100004b49:	0f 1f 80 00 00 00 00 	nopl	(%rax)
100004b50:	48 8b 01 	movq	(%rcx), %rax
100004b53:	48 89 02 	movq	%rax, (%rdx)
100004b56:	48 89 f8 	movq	%rdi, %rax
100004b59:	49 83 e8 08 	subq	$8, %r8
100004b5d:	48 8d 4a 08 	leaq	8(%rdx), %rcx
100004b61:	0f 85 a9 05 00 00 	jne	1449 <___intel_ssse3_strncpy+0x2120>
100004b67:	c3 	retq
100004b68:	0f 1f 84 00 00 00 00 00 	nopl	(%rax,%rax)
100004b70:	f6 c4 01 	testb	$1, %ah
100004b73:	0f 85 17 03 00 00 	jne	791 <___intel_ssse3_strncpy+0x1EA0>
100004b79:	f6 c4 02 	testb	$2, %ah
100004b7c:	0f 85 2e 03 00 00 	jne	814 <___intel_ssse3_strncpy+0x1EC0>
100004b82:	f6 c4 04 	testb	$4, %ah
100004b85:	0f 85 45 03 00 00 	jne	837 <___intel_ssse3_strncpy+0x1EE0>
100004b8b:	f6 c4 08 	testb	$8, %ah
100004b8e:	0f 85 5c 03 00 00 	jne	860 <___intel_ssse3_strncpy+0x1F00>
100004b94:	f6 c4 10 	testb	$16, %ah
100004b97:	0f 85 73 03 00 00 	jne	883 <___intel_ssse3_strncpy+0x1F20>
100004b9d:	f6 c4 20 	testb	$32, %ah
100004ba0:	0f 85 8a 03 00 00 	jne	906 <___intel_ssse3_strncpy+0x1F40>
100004ba6:	f6 c4 40 	testb	$64, %ah
100004ba9:	0f 85 a1 03 00 00 	jne	929 <___intel_ssse3_strncpy+0x1F60>
100004baf:	90 	nop
100004bb0:	48 8b 01 	movq	(%rcx), %rax
100004bb3:	48 89 02 	movq	%rax, (%rdx)
100004bb6:	48 8b 41 08 	movq	8(%rcx), %rax
100004bba:	48 89 42 08 	movq	%rax, 8(%rdx)
100004bbe:	48 89 f8 	movq	%rdi, %rax
100004bc1:	49 83 e8 10 	subq	$16, %r8
100004bc5:	48 8d 4a 10 	leaq	16(%rdx), %rcx
100004bc9:	0f 85 41 05 00 00 	jne	1345 <___intel_ssse3_strncpy+0x2120>
100004bcf:	c3 	retq
100004bd0:	49 83 c0 10 	addq	$16, %r8
100004bd4:	48 03 ce 	addq	%rsi, %rcx
100004bd7:	48 8d 34 16 	leaq	(%rsi,%rdx), %rsi
100004bdb:	49 8d 50 f7 	leaq	-9(%r8), %rdx
100004bdf:	80 e6 80 	andb	$-128, %dh
100004be2:	0a f0 	orb	%al, %dh
100004be4:	84 f6 	testb	%dh, %dh
100004be6:	48 8d 16 	leaq	(%rsi), %rdx
100004be9:	0f 84 91 00 00 00 	je	145 <___intel_ssse3_strncpy+0x1C90>
100004bef:	49 83 f8 01 	cmpq	$1, %r8
100004bf3:	0f 84 b7 01 00 00 	je	439 <___intel_ssse3_strncpy+0x1DC0>
100004bf9:	a8 01 	testb	$1, %al
100004bfb:	0f 85 af 01 00 00 	jne	431 <___intel_ssse3_strncpy+0x1DC0>
100004c01:	49 83 f8 02 	cmpq	$2, %r8
100004c05:	0f 84 c5 01 00 00 	je	453 <___intel_ssse3_strncpy+0x1DE0>
100004c0b:	a8 02 	testb	$2, %al
100004c0d:	0f 85 bd 01 00 00 	jne	445 <___intel_ssse3_strncpy+0x1DE0>
100004c13:	49 83 f8 03 	cmpq	$3, %r8
100004c17:	0f 84 d3 01 00 00 	je	467 <___intel_ssse3_strncpy+0x1E00>
100004c1d:	a8 04 	testb	$4, %al
100004c1f:	0f 85 cb 01 00 00 	jne	459 <___intel_ssse3_strncpy+0x1E00>
100004c25:	49 83 f8 04 	cmpq	$4, %r8
100004c29:	0f 84 e1 01 00 00 	je	481 <___intel_ssse3_strncpy+0x1E20>
100004c2f:	a8 08 	testb	$8, %al
100004c31:	0f 85 d9 01 00 00 	jne	473 <___intel_ssse3_strncpy+0x1E20>
100004c37:	49 83 f8 05 	cmpq	$5, %r8
100004c3b:	0f 84 ef 01 00 00 	je	495 <___intel_ssse3_strncpy+0x1E40>
100004c41:	a8 10 	testb	$16, %al
100004c43:	0f 85 e7 01 00 00 	jne	487 <___intel_ssse3_strncpy+0x1E40>
100004c49:	49 83 f8 06 	cmpq	$6, %r8
100004c4d:	0f 84 fd 01 00 00 	je	509 <___intel_ssse3_strncpy+0x1E60>
100004c53:	a8 20 	testb	$32, %al
100004c55:	0f 85 f5 01 00 00 	jne	501 <___intel_ssse3_strncpy+0x1E60>
100004c5b:	49 83 f8 07 	cmpq	$7, %r8
100004c5f:	0f 84 0b 02 00 00 	je	523 <___intel_ssse3_strncpy+0x1E80>
100004c65:	a8 40 	testb	$64, %al
100004c67:	0f 85 03 02 00 00 	jne	515 <___intel_ssse3_strncpy+0x1E80>
100004c6d:	e9 de fe ff ff 	jmp	-290 <___intel_ssse3_strncpy+0x1B60>
100004c72:	0f 1f 80 00 00 00 00 	nopl	(%rax)
100004c79:	0f 1f 80 00 00 00 00 	nopl	(%rax)
100004c80:	49 83 f8 09 	cmpq	$9, %r8
100004c84:	0f 84 06 02 00 00 	je	518 <___intel_ssse3_strncpy+0x1EA0>
100004c8a:	f6 c4 01 	testb	$1, %ah
100004c8d:	0f 85 fd 01 00 00 	jne	509 <___intel_ssse3_strncpy+0x1EA0>
100004c93:	49 83 f8 0a 	cmpq	$10, %r8
100004c97:	0f 84 13 02 00 00 	je	531 <___intel_ssse3_strncpy+0x1EC0>
100004c9d:	f6 c4 02 	testb	$2, %ah
100004ca0:	0f 85 0a 02 00 00 	jne	522 <___intel_ssse3_strncpy+0x1EC0>
100004ca6:	49 83 f8 0b 	cmpq	$11, %r8
100004caa:	0f 84 20 02 00 00 	je	544 <___intel_ssse3_strncpy+0x1EE0>
100004cb0:	f6 c4 04 	testb	$4, %ah
100004cb3:	0f 85 17 02 00 00 	jne	535 <___intel_ssse3_strncpy+0x1EE0>
100004cb9:	49 83 f8 0c 	cmpq	$12, %r8
100004cbd:	0f 84 2d 02 00 00 	je	557 <___intel_ssse3_strncpy+0x1F00>
100004cc3:	f6 c4 08 	testb	$8, %ah
100004cc6:	0f 85 24 02 00 00 	jne	548 <___intel_ssse3_strncpy+0x1F00>
100004ccc:	49 83 f8 0d 	cmpq	$13, %r8
100004cd0:	0f 84 3a 02 00 00 	je	570 <___intel_ssse3_strncpy+0x1F20>
100004cd6:	f6 c4 10 	testb	$16, %ah
100004cd9:	0f 85 31 02 00 00 	jne	561 <___intel_ssse3_strncpy+0x1F20>
100004cdf:	49 83 f8 0e 	cmpq	$14, %r8
100004ce3:	0f 84 47 02 00 00 	je	583 <___intel_ssse3_strncpy+0x1F40>
100004ce9:	f6 c4 20 	testb	$32, %ah
100004cec:	0f 85 3e 02 00 00 	jne	574 <___intel_ssse3_strncpy+0x1F40>
100004cf2:	49 83 f8 0f 	cmpq	$15, %r8
100004cf6:	0f 84 54 02 00 00 	je	596 <___intel_ssse3_strncpy+0x1F60>
100004cfc:	f6 c4 40 	testb	$64, %ah
100004cff:	0f 85 4b 02 00 00 	jne	587 <___intel_ssse3_strncpy+0x1F60>
100004d05:	e9 a6 fe ff ff 	jmp	-346 <___intel_ssse3_strncpy+0x1BC0>
100004d0a:	48 85 c0 	testq	%rax, %rax
100004d0d:	0f 85 bd fe ff ff 	jne	-323 <___intel_ssse3_strncpy+0x1BE0>
100004d13:	0f 1f 44 00 00 	nopl	(%rax,%rax)
100004d18:	0f 1f 84 00 00 00 00 00 	nopl	(%rax,%rax)
100004d20:	49 83 c0 10 	addq	$16, %r8
100004d24:	48 03 d6 	addq	%rsi, %rdx
100004d27:	48 03 ce 	addq	%rsi, %rcx
100004d2a:	49 83 f8 10 	cmpq	$16, %r8
100004d2e:	0f 84 7c fe ff ff 	je	-388 <___intel_ssse3_strncpy+0x1BC0>
100004d34:	49 83 f8 08 	cmpq	$8, %r8
100004d38:	0f 84 12 fe ff ff 	je	-494 <___intel_ssse3_strncpy+0x1B60>
100004d3e:	7f 1e 	jg	30 <___intel_ssse3_strncpy+0x1D6E>
100004d40:	49 83 f8 04 	cmpq	$4, %r8
100004d44:	0f 84 c6 00 00 00 	je	198 <___intel_ssse3_strncpy+0x1E20>
100004d4a:	7f 34 	jg	52 <___intel_ssse3_strncpy+0x1D90>
100004d4c:	49 83 f8 02 	cmpq	$2, %r8
100004d50:	7c 5e 	jl	94 <___intel_ssse3_strncpy+0x1DC0>
100004d52:	0f 84 78 00 00 00 	je	120 <___intel_ssse3_strncpy+0x1DE0>
100004d58:	0f 8f 92 00 00 00 	jg	146 <___intel_ssse3_strncpy+0x1E00>
100004d5e:	49 83 f8 0c 	cmpq	$12, %r8
100004d62:	0f 84 88 01 00 00 	je	392 <___intel_ssse3_strncpy+0x1F00>
100004d68:	7c 2c 	jl	44 <___intel_ssse3_strncpy+0x1DA6>
100004d6a:	49 83 f8 0e 	cmpq	$14, %r8
100004d6e:	0f 8c 9c 01 00 00 	jl	412 <___intel_ssse3_strncpy+0x1F20>
100004d74:	0f 84 b6 01 00 00 	je	438 <___intel_ssse3_strncpy+0x1F40>
100004d7a:	0f 8f d0 01 00 00 	jg	464 <___intel_ssse3_strncpy+0x1F60>
100004d80:	49 83 f8 06 	cmpq	$6, %r8
100004d84:	0f 8c a6 00 00 00 	jl	166 <___intel_ssse3_strncpy+0x1E40>
100004d8a:	0f 84 c0 00 00 00 	je	192 <___intel_ssse3_strncpy+0x1E60>
100004d90:	0f 8f da 00 00 00 	jg	218 <___intel_ssse3_strncpy+0x1E80>
100004d96:	49 83 f8 0a 	cmpq	$10, %r8
100004d9a:	0f 8c f0 00 00 00 	jl	240 <___intel_ssse3_strncpy+0x1EA0>
100004da0:	0f 84 0a 01 00 00 	je	266 <___intel_ssse3_strncpy+0x1EC0>
100004da6:	0f 8f 24 01 00 00 	jg	292 <___intel_ssse3_strncpy+0x1EE0>
100004dac:	0f 1f 40 00 	nopl	(%rax)
100004db0:	8a 01 	movb	(%rcx), %al
100004db2:	88 02 	movb	%al, (%rdx)
100004db4:	48 89 f8 	movq	%rdi, %rax
100004db7:	49 83 e8 01 	subq	$1, %r8
100004dbb:	48 8d 4a 01 	leaq	1(%rdx), %rcx
100004dbf:	0f 85 4b 03 00 00 	jne	843 <___intel_ssse3_strncpy+0x2120>
100004dc5:	c3 	retq
100004dc6:	0f 1f 00 	nopl	(%rax)
100004dc9:	0f 1f 80 00 00 00 00 	nopl	(%rax)
100004dd0:	66 8b 01 	movw	(%rcx), %ax
100004dd3:	66 89 02 	movw	%ax, (%rdx)
100004dd6:	48 89 f8 	movq	%rdi, %rax
100004dd9:	49 83 e8 02 	subq	$2, %r8
100004ddd:	48 8d 4a 02 	leaq	2(%rdx), %rcx
100004de1:	0f 85 29 03 00 00 	jne	809 <___intel_ssse3_strncpy+0x2120>
100004de7:	c3 	retq
100004de8:	0f 1f 84 00 00 00 00 00 	nopl	(%rax,%rax)
100004df0:	66 8b 01 	movw	(%rcx), %ax
100004df3:	66 89 02 	movw	%ax, (%rdx)
100004df6:	8a 41 02 	movb	2(%rcx), %al
100004df9:	88 42 02 	movb	%al, 2(%rdx)
100004dfc:	48 89 f8 	movq	%rdi, %rax
100004dff:	49 83 e8 03 	subq	$3, %r8
100004e03:	48 8d 4a 03 	leaq	3(%rdx), %rcx
100004e07:	0f 85 03 03 00 00 	jne	771 <___intel_ssse3_strncpy+0x2120>
100004e0d:	c3 	retq
100004e0e:	66 90 	nop
100004e10:	8b 01 	movl	(%rcx), %eax
100004e12:	89 02 	movl	%eax, (%rdx)
100004e14:	48 89 f8 	movq	%rdi, %rax
100004e17:	49 83 e8 04 	subq	$4, %r8
100004e1b:	48 8d 4a 04 	leaq	4(%rdx), %rcx
100004e1f:	0f 85 eb 02 00 00 	jne	747 <___intel_ssse3_strncpy+0x2120>
100004e25:	c3 	retq
100004e26:	0f 1f 00 	nopl	(%rax)
100004e29:	0f 1f 80 00 00 00 00 	nopl	(%rax)
100004e30:	8b 01 	movl	(%rcx), %eax
100004e32:	89 02 	movl	%eax, (%rdx)
100004e34:	8a 41 04 	movb	4(%rcx), %al
100004e37:	88 42 04 	movb	%al, 4(%rdx)
100004e3a:	48 89 f8 	movq	%rdi, %rax
100004e3d:	49 83 e8 05 	subq	$5, %r8
100004e41:	48 8d 4a 05 	leaq	5(%rdx), %rcx
100004e45:	0f 85 c5 02 00 00 	jne	709 <___intel_ssse3_strncpy+0x2120>
100004e4b:	c3 	retq
100004e4c:	0f 1f 40 00 	nopl	(%rax)
100004e50:	8b 01 	movl	(%rcx), %eax
100004e52:	89 02 	movl	%eax, (%rdx)
100004e54:	66 8b 41 04 	movw	4(%rcx), %ax
100004e58:	66 89 42 04 	movw	%ax, 4(%rdx)
100004e5c:	48 89 f8 	movq	%rdi, %rax
100004e5f:	49 83 e8 06 	subq	$6, %r8
100004e63:	48 8d 4a 06 	leaq	6(%rdx), %rcx
100004e67:	0f 85 a3 02 00 00 	jne	675 <___intel_ssse3_strncpy+0x2120>
100004e6d:	c3 	retq
100004e6e:	66 90 	nop
100004e70:	8b 01 	movl	(%rcx), %eax
100004e72:	89 02 	movl	%eax, (%rdx)
100004e74:	8b 41 03 	movl	3(%rcx), %eax
100004e77:	89 42 03 	movl	%eax, 3(%rdx)
100004e7a:	48 89 f8 	movq	%rdi, %rax
100004e7d:	49 83 e8 07 	subq	$7, %r8
100004e81:	48 8d 4a 07 	leaq	7(%rdx), %rcx
100004e85:	0f 85 85 02 00 00 	jne	645 <___intel_ssse3_strncpy+0x2120>
100004e8b:	c3 	retq
100004e8c:	0f 1f 40 00 	nopl	(%rax)
100004e90:	48 8b 01 	movq	(%rcx), %rax
100004e93:	48 89 02 	movq	%rax, (%rdx)
100004e96:	8b 41 05 	movl	5(%rcx), %eax
100004e99:	89 42 05 	movl	%eax, 5(%rdx)
100004e9c:	48 89 f8 	movq	%rdi, %rax
100004e9f:	49 83 e8 09 	subq	$9, %r8
100004ea3:	48 8d 4a 09 	leaq	9(%rdx), %rcx
100004ea7:	0f 85 63 02 00 00 	jne	611 <___intel_ssse3_strncpy+0x2120>
100004ead:	c3 	retq
100004eae:	66 90 	nop
100004eb0:	48 8b 01 	movq	(%rcx), %rax
100004eb3:	48 89 02 	movq	%rax, (%rdx)
100004eb6:	8b 41 06 	movl	6(%rcx), %eax
100004eb9:	89 42 06 	movl	%eax, 6(%rdx)
100004ebc:	48 89 f8 	movq	%rdi, %rax
100004ebf:	49 83 e8 0a 	subq	$10, %r8
100004ec3:	48 8d 4a 0a 	leaq	10(%rdx), %rcx
100004ec7:	0f 85 43 02 00 00 	jne	579 <___intel_ssse3_strncpy+0x2120>
100004ecd:	c3 	retq
100004ece:	66 90 	nop
100004ed0:	48 8b 01 	movq	(%rcx), %rax
100004ed3:	48 89 02 	movq	%rax, (%rdx)
100004ed6:	8b 41 07 	movl	7(%rcx), %eax
100004ed9:	89 42 07 	movl	%eax, 7(%rdx)
100004edc:	48 89 f8 	movq	%rdi, %rax
100004edf:	49 83 e8 0b 	subq	$11, %r8
100004ee3:	48 8d 4a 0b 	leaq	11(%rdx), %rcx
100004ee7:	0f 85 23 02 00 00 	jne	547 <___intel_ssse3_strncpy+0x2120>
100004eed:	c3 	retq
100004eee:	66 90 	nop
100004ef0:	48 8b 01 	movq	(%rcx), %rax
100004ef3:	48 89 02 	movq	%rax, (%rdx)
100004ef6:	8b 41 08 	movl	8(%rcx), %eax
100004ef9:	89 42 08 	movl	%eax, 8(%rdx)
100004efc:	48 89 f8 	movq	%rdi, %rax
100004eff:	49 83 e8 0c 	subq	$12, %r8
100004f03:	48 8d 4a 0c 	leaq	12(%rdx), %rcx
100004f07:	0f 85 03 02 00 00 	jne	515 <___intel_ssse3_strncpy+0x2120>
100004f0d:	c3 	retq
100004f0e:	66 90 	nop
100004f10:	48 8b 01 	movq	(%rcx), %rax
100004f13:	48 89 02 	movq	%rax, (%rdx)
100004f16:	48 8b 41 05 	movq	5(%rcx), %rax
100004f1a:	48 89 42 05 	movq	%rax, 5(%rdx)
100004f1e:	48 89 f8 	movq	%rdi, %rax
100004f21:	49 83 e8 0d 	subq	$13, %r8
100004f25:	48 8d 4a 0d 	leaq	13(%rdx), %rcx
100004f29:	0f 85 e1 01 00 00 	jne	481 <___intel_ssse3_strncpy+0x2120>
100004f2f:	c3 	retq
100004f30:	48 8b 01 	movq	(%rcx), %rax
100004f33:	48 89 02 	movq	%rax, (%rdx)
100004f36:	48 8b 41 06 	movq	6(%rcx), %rax
100004f3a:	48 89 42 06 	movq	%rax, 6(%rdx)
100004f3e:	48 89 f8 	movq	%rdi, %rax
100004f41:	49 83 e8 0e 	subq	$14, %r8
100004f45:	48 8d 4a 0e 	leaq	14(%rdx), %rcx
100004f49:	0f 85 c1 01 00 00 	jne	449 <___intel_ssse3_strncpy+0x2120>
100004f4f:	c3 	retq
100004f50:	48 8b 01 	movq	(%rcx), %rax
100004f53:	48 89 02 	movq	%rax, (%rdx)
100004f56:	48 8b 41 07 	movq	7(%rcx), %rax
100004f5a:	48 89 42 07 	movq	%rax, 7(%rdx)
100004f5e:	48 89 f8 	movq	%rdi, %rax
100004f61:	49 83 e8 0f 	subq	$15, %r8
100004f65:	48 8d 4a 0f 	leaq	15(%rdx), %rcx
100004f69:	0f 85 a1 01 00 00 	jne	417 <___intel_ssse3_strncpy+0x2120>
100004f6f:	c3 	retq
100004f70:	c3 	retq
100004f71:	0f 1f 84 00 00 00 00 00 	nopl	(%rax,%rax)
100004f79:	0f 1f 80 00 00 00 00 	nopl	(%rax)
100004f80:	88 11 	movb	%dl, (%rcx)
100004f82:	c3 	retq
100004f83:	0f 1f 44 00 00 	nopl	(%rax,%rax)
100004f88:	0f 1f 84 00 00 00 00 00 	nopl	(%rax,%rax)
100004f90:	66 89 11 	movw	%dx, (%rcx)
100004f93:	c3 	retq
100004f94:	0f 1f 44 00 00 	nopl	(%rax,%rax)
100004f99:	0f 1f 80 00 00 00 00 	nopl	(%rax)
100004fa0:	66 89 11 	movw	%dx, (%rcx)
100004fa3:	88 51 02 	movb	%dl, 2(%rcx)
100004fa6:	c3 	retq
100004fa7:	66 0f 1f 84 00 00 00 00 00 	nopw	(%rax,%rax)
100004fb0:	89 11 	movl	%edx, (%rcx)
100004fb2:	c3 	retq
100004fb3:	0f 1f 44 00 00 	nopl	(%rax,%rax)
100004fb8:	0f 1f 84 00 00 00 00 00 	nopl	(%rax,%rax)
100004fc0:	89 11 	movl	%edx, (%rcx)
100004fc2:	88 51 04 	movb	%dl, 4(%rcx)
100004fc5:	c3 	retq
100004fc6:	0f 1f 00 	nopl	(%rax)
100004fc9:	0f 1f 80 00 00 00 00 	nopl	(%rax)
100004fd0:	89 11 	movl	%edx, (%rcx)
100004fd2:	66 89 51 04 	movw	%dx, 4(%rcx)
100004fd6:	c3 	retq
100004fd7:	66 0f 1f 84 00 00 00 00 00 	nopw	(%rax,%rax)
100004fe0:	89 11 	movl	%edx, (%rcx)
100004fe2:	89 51 03 	movl	%edx, 3(%rcx)
100004fe5:	c3 	retq
100004fe6:	0f 1f 00 	nopl	(%rax)
100004fe9:	0f 1f 80 00 00 00 00 	nopl	(%rax)
100004ff0:	48 89 11 	movq	%rdx, (%rcx)
100004ff3:	c3 	retq
100004ff4:	0f 1f 44 00 00 	nopl	(%rax,%rax)
100004ff9:	0f 1f 80 00 00 00 00 	nopl	(%rax)
100005000:	48 89 11 	movq	%rdx, (%rcx)
100005003:	88 51 08 	movb	%dl, 8(%rcx)
100005006:	c3 	retq
100005007:	66 0f 1f 84 00 00 00 00 00 	nopw	(%rax,%rax)
100005010:	48 89 11 	movq	%rdx, (%rcx)
100005013:	66 89 51 08 	movw	%dx, 8(%rcx)
100005017:	c3 	retq
100005018:	0f 1f 84 00 00 00 00 00 	nopl	(%rax,%rax)
100005020:	48 89 11 	movq	%rdx, (%rcx)
100005023:	89 51 07 	movl	%edx, 7(%rcx)
100005026:	c3 	retq
100005027:	66 0f 1f 84 00 00 00 00 00 	nopw	(%rax,%rax)
100005030:	48 89 11 	movq	%rdx, (%rcx)
100005033:	89 51 08 	movl	%edx, 8(%rcx)
100005036:	c3 	retq
100005037:	66 0f 1f 84 00 00 00 00 00 	nopw	(%rax,%rax)
100005040:	48 89 11 	movq	%rdx, (%rcx)
100005043:	48 89 51 05 	movq	%rdx, 5(%rcx)
100005047:	c3 	retq
100005048:	0f 1f 84 00 00 00 00 00 	nopl	(%rax,%rax)
100005050:	48 89 11 	movq	%rdx, (%rcx)
100005053:	48 89 51 06 	movq	%rdx, 6(%rcx)
100005057:	c3 	retq
100005058:	0f 1f 84 00 00 00 00 00 	nopl	(%rax,%rax)
100005060:	48 89 11 	movq	%rdx, (%rcx)
100005063:	48 89 51 07 	movq	%rdx, 7(%rcx)
100005067:	c3 	retq
100005068:	0f 1f 84 00 00 00 00 00 	nopl	(%rax,%rax)
100005070:	48 89 11 	movq	%rdx, (%rcx)
100005073:	48 89 51 08 	movq	%rdx, 8(%rcx)
100005077:	c3 	retq
100005078:	0f 1f 84 00 00 00 00 00 	nopl	(%rax,%rax)
100005080:	4d 8d 40 10 	leaq	16(%r8), %r8
100005084:	4d 85 c0 	testq	%r8, %r8
100005087:	0f 84 e3 fe ff ff 	je	-285 <___intel_ssse3_strncpy+0x1F80>
10000508d:	49 83 f8 10 	cmpq	$16, %r8
100005091:	74 dd 	je	-35 <___intel_ssse3_strncpy+0x2080>
100005093:	49 83 f8 08 	cmpq	$8, %r8
100005097:	0f 84 53 ff ff ff 	je	-173 <___intel_ssse3_strncpy+0x2000>
10000509d:	7f 22 	jg	34 <___intel_ssse3_strncpy+0x20D1>
10000509f:	49 83 f8 04 	cmpq	$4, %r8
1000050a3:	0f 84 07 ff ff ff 	je	-249 <___intel_ssse3_strncpy+0x1FC0>
1000050a9:	7f 34 	jg	52 <___intel_ssse3_strncpy+0x20EF>
1000050ab:	49 83 f8 02 	cmpq	$2, %r8
1000050af:	0f 8c cb fe ff ff 	jl	-309 <___intel_ssse3_strncpy+0x1F90>
1000050b5:	0f 84 d5 fe ff ff 	je	-299 <___intel_ssse3_strncpy+0x1FA0>
1000050bb:	0f 8f df fe ff ff 	jg	-289 <___intel_ssse3_strncpy+0x1FB0>
1000050c1:	49 83 f8 0c 	cmpq	$12, %r8
1000050c5:	0f 84 65 ff ff ff 	je	-155 <___intel_ssse3_strncpy+0x2040>
1000050cb:	7c 28 	jl	40 <___intel_ssse3_strncpy+0x2105>
1000050cd:	49 83 f8 0e 	cmpq	$14, %r8
1000050d1:	0f 8c 69 ff ff ff 	jl	-151 <___intel_ssse3_strncpy+0x2050>
1000050d7:	0f 84 73 ff ff ff 	je	-141 <___intel_ssse3_strncpy+0x2060>
1000050dd:	7f 81 	jg	-127 <___intel_ssse3_strncpy+0x2070>
1000050df:	49 83 f8 06 	cmpq	$6, %r8
1000050e3:	0f 8c d7 fe ff ff 	jl	-297 <___intel_ssse3_strncpy+0x1FD0>
1000050e9:	0f 84 e1 fe ff ff 	je	-287 <___intel_ssse3_strncpy+0x1FE0>
1000050ef:	0f 8f eb fe ff ff 	jg	-277 <___intel_ssse3_strncpy+0x1FF0>
1000050f5:	49 83 f8 0a 	cmpq	$10, %r8
1000050f9:	0f 8c 01 ff ff ff 	jl	-255 <___intel_ssse3_strncpy+0x2010>
1000050ff:	0f 84 0b ff ff ff 	je	-245 <___intel_ssse3_strncpy+0x2020>
100005105:	e9 16 ff ff ff 	jmp	-234 <___intel_ssse3_strncpy+0x2030>
10000510a:	66 0f 1f 44 00 00 	nopw	(%rax,%rax)
100005110:	48 33 d2 	xorq	%rdx, %rdx
100005113:	49 83 e8 10 	subq	$16, %r8
100005117:	0f 86 63 ff ff ff 	jbe	-157 <___intel_ssse3_strncpy+0x2090>
10000511d:	66 0f ef c0 	pxor	%xmm0, %xmm0
100005121:	48 89 11 	movq	%rdx, (%rcx)
100005124:	48 89 51 08 	movq	%rdx, 8(%rcx)
100005128:	48 8d 49 10 	leaq	16(%rcx), %rcx
10000512c:	48 89 ca 	movq	%rcx, %rdx
10000512f:	48 83 e2 0f 	andq	$15, %rdx
100005133:	48 2b ca 	subq	%rdx, %rcx
100005136:	4c 03 c2 	addq	%rdx, %r8
100005139:	48 33 d2 	xorq	%rdx, %rdx
10000513c:	49 83 e8 40 	subq	$64, %r8
100005140:	72 1d 	jb	29 <___intel_ssse3_strncpy+0x216F>
100005142:	66 0f 7f 01 	movdqa	%xmm0, (%rcx)
100005146:	66 0f 7f 41 10 	movdqa	%xmm0, 16(%rcx)
10000514b:	66 0f 7f 41 20 	movdqa	%xmm0, 32(%rcx)
100005150:	66 0f 7f 41 30 	movdqa	%xmm0, 48(%rcx)
100005155:	48 8d 49 40 	leaq	64(%rcx), %rcx
100005159:	49 83 e8 40 	subq	$64, %r8
10000515d:	73 e3 	jae	-29 <___intel_ssse3_strncpy+0x2152>
10000515f:	49 83 c0 20 	addq	$32, %r8
100005163:	7c 24 	jl	36 <___intel_ssse3_strncpy+0x2199>
100005165:	66 0f 7f 01 	movdqa	%xmm0, (%rcx)
100005169:	66 0f 7f 41 10 	movdqa	%xmm0, 16(%rcx)
10000516e:	48 8d 49 20 	leaq	32(%rcx), %rcx
100005172:	49 83 e8 10 	subq	$16, %r8
100005176:	0f 8c 04 ff ff ff 	jl	-252 <___intel_ssse3_strncpy+0x2090>
10000517c:	66 0f 7f 01 	movdqa	%xmm0, (%rcx)
100005180:	48 8d 49 10 	leaq	16(%rcx), %rcx
100005184:	e9 fb fe ff ff 	jmp	-261 <___intel_ssse3_strncpy+0x2094>
100005189:	49 83 c0 10 	addq	$16, %r8
10000518d:	0f 8c ed fe ff ff 	jl	-275 <___intel_ssse3_strncpy+0x2090>
100005193:	66 0f 7f 01 	movdqa	%xmm0, (%rcx)
100005197:	48 8d 49 10 	leaq	16(%rcx), %rcx
10000519b:	e9 e4 fe ff ff 	jmp	-284 <___intel_ssse3_strncpy+0x2094>
1000051a0:	48 89 d0 	movq	%rdx, %rax
1000051a3:	c3 	retq
1000051a4:	0f 1f 44 00 00 	nopl	(%rax,%rax)
1000051a9:	0f 1f 80 00 00 00 00 	nopl	(%rax)
1000051b0:	49 83 f8 09 	cmpq	$9, %r8
1000051b4:	0f 84 d6 fc ff ff 	je	-810 <___intel_ssse3_strncpy+0x1EA0>
1000051ba:	80 79 08 00 	cmpb	$0, 8(%rcx)
1000051be:	0f 84 cc fc ff ff 	je	-820 <___intel_ssse3_strncpy+0x1EA0>
1000051c4:	49 83 f8 0a 	cmpq	$10, %r8
1000051c8:	0f 84 e2 fc ff ff 	je	-798 <___intel_ssse3_strncpy+0x1EC0>
1000051ce:	80 79 09 00 	cmpb	$0, 9(%rcx)
1000051d2:	0f 84 d8 fc ff ff 	je	-808 <___intel_ssse3_strncpy+0x1EC0>
1000051d8:	49 83 f8 0b 	cmpq	$11, %r8
1000051dc:	0f 84 ee fc ff ff 	je	-786 <___intel_ssse3_strncpy+0x1EE0>
1000051e2:	80 79 0a 00 	cmpb	$0, 10(%rcx)
1000051e6:	0f 84 e4 fc ff ff 	je	-796 <___intel_ssse3_strncpy+0x1EE0>
1000051ec:	49 83 f8 0c 	cmpq	$12, %r8
1000051f0:	0f 84 fa fc ff ff 	je	-774 <___intel_ssse3_strncpy+0x1F00>
1000051f6:	80 79 0b 00 	cmpb	$0, 11(%rcx)
1000051fa:	0f 84 f0 fc ff ff 	je	-784 <___intel_ssse3_strncpy+0x1F00>
100005200:	49 83 f8 0d 	cmpq	$13, %r8
100005204:	0f 84 06 fd ff ff 	je	-762 <___intel_ssse3_strncpy+0x1F20>
10000520a:	80 79 0c 00 	cmpb	$0, 12(%rcx)
10000520e:	0f 84 fc fc ff ff 	je	-772 <___intel_ssse3_strncpy+0x1F20>
100005214:	49 83 f8 0e 	cmpq	$14, %r8
100005218:	0f 84 12 fd ff ff 	je	-750 <___intel_ssse3_strncpy+0x1F40>
10000521e:	80 79 0d 00 	cmpb	$0, 13(%rcx)
100005222:	0f 84 08 fd ff ff 	je	-760 <___intel_ssse3_strncpy+0x1F40>
100005228:	48 8b 01 	movq	(%rcx), %rax
10000522b:	48 89 02 	movq	%rax, (%rdx)
10000522e:	48 8b 41 07 	movq	7(%rcx), %rax
100005232:	48 89 42 07 	movq	%rax, 7(%rdx)
100005236:	48 89 f8 	movq	%rdi, %rax
100005239:	c3 	retq
10000523a:	66 0f 1f 44 00 00 	nopw	(%rax,%rax)
100005240:	49 83 f8 01 	cmpq	$1, %r8
100005244:	0f 84 66 fb ff ff 	je	-1178 <___intel_ssse3_strncpy+0x1DC0>
10000524a:	80 39 00 	cmpb	$0, (%rcx)
10000524d:	0f 84 5d fb ff ff 	je	-1187 <___intel_ssse3_strncpy+0x1DC0>
100005253:	49 83 f8 02 	cmpq	$2, %r8
100005257:	0f 84 73 fb ff ff 	je	-1165 <___intel_ssse3_strncpy+0x1DE0>
10000525d:	80 79 01 00 	cmpb	$0, 1(%rcx)
100005261:	0f 84 69 fb ff ff 	je	-1175 <___intel_ssse3_strncpy+0x1DE0>
100005267:	49 83 f8 03 	cmpq	$3, %r8
10000526b:	0f 84 7f fb ff ff 	je	-1153 <___intel_ssse3_strncpy+0x1E00>
100005271:	80 79 02 00 	cmpb	$0, 2(%rcx)
100005275:	0f 84 75 fb ff ff 	je	-1163 <___intel_ssse3_strncpy+0x1E00>
10000527b:	49 83 f8 04 	cmpq	$4, %r8
10000527f:	0f 84 8b fb ff ff 	je	-1141 <___intel_ssse3_strncpy+0x1E20>
100005285:	80 79 03 00 	cmpb	$0, 3(%rcx)
100005289:	0f 84 81 fb ff ff 	je	-1151 <___intel_ssse3_strncpy+0x1E20>
10000528f:	49 83 f8 05 	cmpq	$5, %r8
100005293:	0f 84 97 fb ff ff 	je	-1129 <___intel_ssse3_strncpy+0x1E40>
100005299:	80 79 04 00 	cmpb	$0, 4(%rcx)
10000529d:	0f 84 8d fb ff ff 	je	-1139 <___intel_ssse3_strncpy+0x1E40>
1000052a3:	49 83 f8 06 	cmpq	$6, %r8
1000052a7:	0f 84 a3 fb ff ff 	je	-1117 <___intel_ssse3_strncpy+0x1E60>
1000052ad:	80 79 05 00 	cmpb	$0, 5(%rcx)
1000052b1:	0f 84 99 fb ff ff 	je	-1127 <___intel_ssse3_strncpy+0x1E60>
1000052b7:	49 83 f8 07 	cmpq	$7, %r8
1000052bb:	0f 84 af fb ff ff 	je	-1105 <___intel_ssse3_strncpy+0x1E80>
1000052c1:	80 79 06 00 	cmpb	$0, 6(%rcx)
1000052c5:	0f 84 a5 fb ff ff 	je	-1115 <___intel_ssse3_strncpy+0x1E80>
1000052cb:	48 8b 01 	movq	(%rcx), %rax
1000052ce:	48 89 02 	movq	%rax, (%rdx)
1000052d1:	48 89 f8 	movq	%rdi, %rax
1000052d4:	c3 	retq
1000052d5:	48 85 c0 	testq	%rax, %rax
1000052d8:	75 43 	jne	67 <___intel_ssse3_strncpy+0x232D>
1000052da:	4d 8d 40 40 	leaq	64(%r8), %r8
1000052de:	49 83 e8 10 	subq	$16, %r8
1000052e2:	0f 86 38 fa ff ff 	jbe	-1480 <___intel_ssse3_strncpy+0x1D30>
1000052e8:	0f 29 62 c0 	movaps	%xmm4, -64(%rdx)
1000052ec:	48 8d 76 10 	leaq	16(%rsi), %rsi
1000052f0:	49 83 e8 10 	subq	$16, %r8
1000052f4:	0f 86 26 fa ff ff 	jbe	-1498 <___intel_ssse3_strncpy+0x1D30>
1000052fa:	0f 29 6a d0 	movaps	%xmm5, -48(%rdx)
1000052fe:	48 8d 76 10 	leaq	16(%rsi), %rsi
100005302:	49 83 e8 10 	subq	$16, %r8
100005306:	0f 86 14 fa ff ff 	jbe	-1516 <___intel_ssse3_strncpy+0x1D30>
10000530c:	0f 29 72 e0 	movaps	%xmm6, -32(%rdx)
100005310:	48 8d 76 10 	leaq	16(%rsi), %rsi
100005314:	4d 8d 40 f0 	leaq	-16(%r8), %r8
100005318:	e9 03 fa ff ff 	jmp	-1533 <___intel_ssse3_strncpy+0x1D30>
10000531d:	66 0f 74 c4 	pcmpeqb	%xmm4, %xmm0
100005321:	66 0f d7 c0 	pmovmskb	%xmm0, %eax
100005325:	49 83 c0 30 	addq	$48, %r8
100005329:	0f 8e db f9 ff ff 	jle	-1573 <___intel_ssse3_strncpy+0x1D1A>
10000532f:	48 85 c0 	testq	%rax, %rax
100005332:	0f 85 c8 f7 ff ff 	jne	-2104 <___intel_ssse3_strncpy+0x1B10>
100005338:	66 0f 74 c5 	pcmpeqb	%xmm5, %xmm0
10000533c:	66 0f d7 c0 	pmovmskb	%xmm0, %eax
100005340:	0f 29 62 c0 	movaps	%xmm4, -64(%rdx)
100005344:	48 8d 76 10 	leaq	16(%rsi), %rsi
100005348:	49 83 e8 10 	subq	$16, %r8
10000534c:	0f 86 b8 f9 ff ff 	jbe	-1608 <___intel_ssse3_strncpy+0x1D1A>
100005352:	48 85 c0 	testq	%rax, %rax
100005355:	0f 85 a5 f7 ff ff 	jne	-2139 <___intel_ssse3_strncpy+0x1B10>
10000535b:	66 0f 74 c6 	pcmpeqb	%xmm6, %xmm0
10000535f:	66 0f d7 c0 	pmovmskb	%xmm0, %eax
100005363:	0f 29 6a d0 	movaps	%xmm5, -48(%rdx)
100005367:	48 8d 76 10 	leaq	16(%rsi), %rsi
10000536b:	49 83 e8 10 	subq	$16, %r8
10000536f:	0f 86 95 f9 ff ff 	jbe	-1643 <___intel_ssse3_strncpy+0x1D1A>
100005375:	48 85 c0 	testq	%rax, %rax
100005378:	0f 85 82 f7 ff ff 	jne	-2174 <___intel_ssse3_strncpy+0x1B10>
10000537e:	66 0f 74 c7 	pcmpeqb	%xmm7, %xmm0
100005382:	66 0f d7 c0 	pmovmskb	%xmm0, %eax
100005386:	0f 29 72 e0 	movaps	%xmm6, -32(%rdx)
10000538a:	48 8d 76 10 	leaq	16(%rsi), %rsi
10000538e:	4d 8d 40 f0 	leaq	-16(%r8), %r8
100005392:	e9 39 f8 ff ff 	jmp	-1991 <___intel_ssse3_strncpy+0x1BE0>
100005397:	0f 28 32 	movaps	(%rdx), %xmm6
10000539a:	66 0f 73 de 0f 	psrldq	$15, %xmm6
10000539f:	48 c7 c6 0f 00 00 00 	movq	$15, %rsi
1000053a6:	66 0f 3a 0f f1 01 	palignr	$1, %xmm1, %xmm6
1000053ac:	0f 29 32 	movaps	%xmm6, (%rdx)
1000053af:	48 85 c0 	testq	%rax, %rax
1000053b2:	0f 85 18 f8 ff ff 	jne	-2024 <___intel_ssse3_strncpy+0x1BE0>
1000053b8:	e9 63 f9 ff ff 	jmp	-1693 <___intel_ssse3_strncpy+0x1D30>
1000053bd:	0f 28 32 	movaps	(%rdx), %xmm6
1000053c0:	66 0f 73 de 0e 	psrldq	$14, %xmm6
1000053c5:	48 c7 c6 0e 00 00 00 	movq	$14, %rsi
1000053cc:	66 0f 3a 0f f1 02 	palignr	$2, %xmm1, %xmm6
1000053d2:	0f 29 32 	movaps	%xmm6, (%rdx)
1000053d5:	48 85 c0 	testq	%rax, %rax
1000053d8:	0f 85 f2 f7 ff ff 	jne	-2062 <___intel_ssse3_strncpy+0x1BE0>
1000053de:	e9 3d f9 ff ff 	jmp	-1731 <___intel_ssse3_strncpy+0x1D30>
1000053e3:	0f 28 32 	movaps	(%rdx), %xmm6
1000053e6:	66 0f 73 de 0d 	psrldq	$13, %xmm6
1000053eb:	48 c7 c6 0d 00 00 00 	movq	$13, %rsi
1000053f2:	66 0f 3a 0f f1 03 	palignr	$3, %xmm1, %xmm6
1000053f8:	0f 29 32 	movaps	%xmm6, (%rdx)
1000053fb:	48 85 c0 	testq	%rax, %rax
1000053fe:	0f 85 cc f7 ff ff 	jne	-2100 <___intel_ssse3_strncpy+0x1BE0>
100005404:	e9 17 f9 ff ff 	jmp	-1769 <___intel_ssse3_strncpy+0x1D30>
100005409:	0f 28 32 	movaps	(%rdx), %xmm6
10000540c:	66 0f 73 de 0c 	psrldq	$12, %xmm6
100005411:	48 c7 c6 0c 00 00 00 	movq	$12, %rsi
100005418:	66 0f 3a 0f f1 04 	palignr	$4, %xmm1, %xmm6
10000541e:	0f 29 32 	movaps	%xmm6, (%rdx)
100005421:	48 85 c0 	testq	%rax, %rax
100005424:	0f 85 a6 f7 ff ff 	jne	-2138 <___intel_ssse3_strncpy+0x1BE0>
10000542a:	e9 f1 f8 ff ff 	jmp	-1807 <___intel_ssse3_strncpy+0x1D30>
10000542f:	0f 28 32 	movaps	(%rdx), %xmm6
100005432:	66 0f 73 de 0b 	psrldq	$11, %xmm6
100005437:	48 c7 c6 0b 00 00 00 	movq	$11, %rsi
10000543e:	66 0f 3a 0f f1 05 	palignr	$5, %xmm1, %xmm6
100005444:	0f 29 32 	movaps	%xmm6, (%rdx)
100005447:	48 85 c0 	testq	%rax, %rax
10000544a:	0f 85 80 f7 ff ff 	jne	-2176 <___intel_ssse3_strncpy+0x1BE0>
100005450:	e9 cb f8 ff ff 	jmp	-1845 <___intel_ssse3_strncpy+0x1D30>
100005455:	0f 28 32 	movaps	(%rdx), %xmm6
100005458:	66 0f 73 de 0a 	psrldq	$10, %xmm6
10000545d:	48 c7 c6 0a 00 00 00 	movq	$10, %rsi
100005464:	66 0f 3a 0f f1 06 	palignr	$6, %xmm1, %xmm6
10000546a:	0f 29 32 	movaps	%xmm6, (%rdx)
10000546d:	48 85 c0 	testq	%rax, %rax
100005470:	0f 85 5a f7 ff ff 	jne	-2214 <___intel_ssse3_strncpy+0x1BE0>
100005476:	e9 a5 f8 ff ff 	jmp	-1883 <___intel_ssse3_strncpy+0x1D30>
10000547b:	0f 28 32 	movaps	(%rdx), %xmm6
10000547e:	66 0f 73 de 09 	psrldq	$9, %xmm6
100005483:	48 c7 c6 09 00 00 00 	movq	$9, %rsi
10000548a:	66 0f 3a 0f f1 07 	palignr	$7, %xmm1, %xmm6
100005490:	0f 29 32 	movaps	%xmm6, (%rdx)
100005493:	48 85 c0 	testq	%rax, %rax
100005496:	0f 85 34 f7 ff ff 	jne	-2252 <___intel_ssse3_strncpy+0x1BE0>
10000549c:	e9 7f f8 ff ff 	jmp	-1921 <___intel_ssse3_strncpy+0x1D30>
1000054a1:	0f 28 32 	movaps	(%rdx), %xmm6
1000054a4:	66 0f 73 de 08 	psrldq	$8, %xmm6
1000054a9:	48 c7 c6 08 00 00 00 	movq	$8, %rsi
1000054b0:	66 0f 3a 0f f1 08 	palignr	$8, %xmm1, %xmm6
1000054b6:	0f 29 32 	movaps	%xmm6, (%rdx)
1000054b9:	48 85 c0 	testq	%rax, %rax
1000054bc:	0f 85 0e f7 ff ff 	jne	-2290 <___intel_ssse3_strncpy+0x1BE0>
1000054c2:	e9 59 f8 ff ff 	jmp	-1959 <___intel_ssse3_strncpy+0x1D30>
1000054c7:	0f 28 32 	movaps	(%rdx), %xmm6
1000054ca:	66 0f 73 de 07 	psrldq	$7, %xmm6
1000054cf:	48 c7 c6 07 00 00 00 	movq	$7, %rsi
1000054d6:	66 0f 3a 0f f1 09 	palignr	$9, %xmm1, %xmm6
1000054dc:	0f 29 32 	movaps	%xmm6, (%rdx)
1000054df:	48 85 c0 	testq	%rax, %rax
1000054e2:	0f 85 e8 f6 ff ff 	jne	-2328 <___intel_ssse3_strncpy+0x1BE0>
1000054e8:	e9 33 f8 ff ff 	jmp	-1997 <___intel_ssse3_strncpy+0x1D30>
1000054ed:	0f 28 32 	movaps	(%rdx), %xmm6
1000054f0:	66 0f 73 de 06 	psrldq	$6, %xmm6
1000054f5:	48 c7 c6 06 00 00 00 	movq	$6, %rsi
1000054fc:	66 0f 3a 0f f1 0a 	palignr	$10, %xmm1, %xmm6
100005502:	0f 29 32 	movaps	%xmm6, (%rdx)
100005505:	48 85 c0 	testq	%rax, %rax
100005508:	0f 85 c2 f6 ff ff 	jne	-2366 <___intel_ssse3_strncpy+0x1BE0>
10000550e:	e9 0d f8 ff ff 	jmp	-2035 <___intel_ssse3_strncpy+0x1D30>
100005513:	0f 28 32 	movaps	(%rdx), %xmm6
100005516:	66 0f 73 de 05 	psrldq	$5, %xmm6
10000551b:	48 c7 c6 05 00 00 00 	movq	$5, %rsi
100005522:	66 0f 3a 0f f1 0b 	palignr	$11, %xmm1, %xmm6
100005528:	0f 29 32 	movaps	%xmm6, (%rdx)
10000552b:	48 85 c0 	testq	%rax, %rax
10000552e:	0f 85 9c f6 ff ff 	jne	-2404 <___intel_ssse3_strncpy+0x1BE0>
100005534:	e9 e7 f7 ff ff 	jmp	-2073 <___intel_ssse3_strncpy+0x1D30>
100005539:	0f 28 32 	movaps	(%rdx), %xmm6
10000553c:	66 0f 73 de 04 	psrldq	$4, %xmm6
100005541:	48 c7 c6 04 00 00 00 	movq	$4, %rsi
100005548:	66 0f 3a 0f f1 0c 	palignr	$12, %xmm1, %xmm6
10000554e:	0f 29 32 	movaps	%xmm6, (%rdx)
100005551:	48 85 c0 	testq	%rax, %rax
100005554:	0f 85 76 f6 ff ff 	jne	-2442 <___intel_ssse3_strncpy+0x1BE0>
10000555a:	e9 c1 f7 ff ff 	jmp	-2111 <___intel_ssse3_strncpy+0x1D30>
10000555f:	0f 28 32 	movaps	(%rdx), %xmm6
100005562:	66 0f 73 de 03 	psrldq	$3, %xmm6
100005567:	48 c7 c6 03 00 00 00 	movq	$3, %rsi
10000556e:	66 0f 3a 0f f1 0d 	palignr	$13, %xmm1, %xmm6
100005574:	0f 29 32 	movaps	%xmm6, (%rdx)
100005577:	48 85 c0 	testq	%rax, %rax
10000557a:	0f 85 50 f6 ff ff 	jne	-2480 <___intel_ssse3_strncpy+0x1BE0>
100005580:	e9 9b f7 ff ff 	jmp	-2149 <___intel_ssse3_strncpy+0x1D30>
100005585:	0f 28 32 	movaps	(%rdx), %xmm6
100005588:	66 0f 73 de 02 	psrldq	$2, %xmm6
10000558d:	48 c7 c6 02 00 00 00 	movq	$2, %rsi
100005594:	66 0f 3a 0f f1 0e 	palignr	$14, %xmm1, %xmm6
10000559a:	0f 29 32 	movaps	%xmm6, (%rdx)
10000559d:	48 85 c0 	testq	%rax, %rax
1000055a0:	0f 85 2a f6 ff ff 	jne	-2518 <___intel_ssse3_strncpy+0x1BE0>
1000055a6:	e9 75 f7 ff ff 	jmp	-2187 <___intel_ssse3_strncpy+0x1D30>
1000055ab:	0f 28 32 	movaps	(%rdx), %xmm6
1000055ae:	66 0f 73 de 01 	psrldq	$1, %xmm6
1000055b3:	48 c7 c6 01 00 00 00 	movq	$1, %rsi
1000055ba:	66 0f 3a 0f f1 0f 	palignr	$15, %xmm1, %xmm6
1000055c0:	0f 29 32 	movaps	%xmm6, (%rdx)
1000055c3:	48 85 c0 	testq	%rax, %rax
1000055c6:	0f 85 04 f6 ff ff 	jne	-2556 <___intel_ssse3_strncpy+0x1BE0>
1000055cc:	e9 4f f7 ff ff 	jmp	-2225 <___intel_ssse3_strncpy+0x1D30>
1000055d1:	0f 28 da 	movaps	%xmm2, %xmm3
1000055d4:	49 83 c0 30 	addq	$48, %r8
1000055d8:	7e 58 	jle	88 <___intel_ssse3_strncpy+0x2642>
1000055da:	66 0f 3a 0f d1 01 	palignr	$1, %xmm1, %xmm2
1000055e0:	0f 28 cb 	movaps	%xmm3, %xmm1
1000055e3:	0f 29 12 	movaps	%xmm2, (%rdx)
1000055e6:	0f 28 51 1f 	movaps	31(%rcx), %xmm2
1000055ea:	48 8d 76 10 	leaq	16(%rsi), %rsi
1000055ee:	0f 28 da 	movaps	%xmm2, %xmm3
1000055f1:	49 83 e8 10 	subq	$16, %r8
1000055f5:	76 3b 	jbe	59 <___intel_ssse3_strncpy+0x2642>
1000055f7:	66 0f 3a 0f d1 01 	palignr	$1, %xmm1, %xmm2
1000055fd:	0f 29 52 10 	movaps	%xmm2, 16(%rdx)
100005601:	0f 28 51 2f 	movaps	47(%rcx), %xmm2
100005605:	0f 28 cb 	movaps	%xmm3, %xmm1
100005608:	48 8d 76 10 	leaq	16(%rsi), %rsi
10000560c:	49 83 e8 10 	subq	$16, %r8
100005610:	76 20 	jbe	32 <___intel_ssse3_strncpy+0x2642>
100005612:	0f 28 ca 	movaps	%xmm2, %xmm1
100005615:	0f 29 62 20 	movaps	%xmm4, 32(%rdx)
100005619:	48 8d 76 10 	leaq	16(%rsi), %rsi
10000561d:	49 83 e8 10 	subq	$16, %r8
100005621:	76 0f 	jbe	15 <___intel_ssse3_strncpy+0x2642>
100005623:	0f 28 cf 	movaps	%xmm7, %xmm1
100005626:	0f 29 6a 30 	movaps	%xmm5, 48(%rdx)
10000562a:	48 8d 76 10 	leaq	16(%rsi), %rsi
10000562e:	4d 8d 40 f0 	leaq	-16(%r8), %r8
100005632:	0f 28 34 32 	movaps	(%rdx,%rsi), %xmm6
100005636:	66 0f 73 de 0f 	psrldq	$15, %xmm6
10000563b:	66 0f 3a 0f f1 01 	palignr	$1, %xmm1, %xmm6
100005641:	0f 29 34 32 	movaps	%xmm6, (%rdx,%rsi)
100005645:	48 8d 76 0f 	leaq	15(%rsi), %rsi
100005649:	e9 d2 f6 ff ff 	jmp	-2350 <___intel_ssse3_strncpy+0x1D30>
10000564e:	0f 28 da 	movaps	%xmm2, %xmm3
100005651:	49 83 c0 30 	addq	$48, %r8
100005655:	7e 58 	jle	88 <___intel_ssse3_strncpy+0x26BF>
100005657:	66 0f 3a 0f d1 02 	palignr	$2, %xmm1, %xmm2
10000565d:	0f 28 cb 	movaps	%xmm3, %xmm1
100005660:	0f 29 12 	movaps	%xmm2, (%rdx)
100005663:	0f 28 51 1e 	movaps	30(%rcx), %xmm2
100005667:	48 8d 76 10 	leaq	16(%rsi), %rsi
10000566b:	0f 28 da 	movaps	%xmm2, %xmm3
10000566e:	49 83 e8 10 	subq	$16, %r8
100005672:	76 3b 	jbe	59 <___intel_ssse3_strncpy+0x26BF>
100005674:	66 0f 3a 0f d1 02 	palignr	$2, %xmm1, %xmm2
10000567a:	0f 29 52 10 	movaps	%xmm2, 16(%rdx)
10000567e:	0f 28 51 2e 	movaps	46(%rcx), %xmm2
100005682:	0f 28 cb 	movaps	%xmm3, %xmm1
100005685:	48 8d 76 10 	leaq	16(%rsi), %rsi
100005689:	49 83 e8 10 	subq	$16, %r8
10000568d:	76 20 	jbe	32 <___intel_ssse3_strncpy+0x26BF>
10000568f:	0f 28 ca 	movaps	%xmm2, %xmm1
100005692:	0f 29 62 20 	movaps	%xmm4, 32(%rdx)
100005696:	48 8d 76 10 	leaq	16(%rsi), %rsi
10000569a:	49 83 e8 10 	subq	$16, %r8
10000569e:	76 0f 	jbe	15 <___intel_ssse3_strncpy+0x26BF>
1000056a0:	0f 28 cf 	movaps	%xmm7, %xmm1
1000056a3:	0f 29 6a 30 	movaps	%xmm5, 48(%rdx)
1000056a7:	48 8d 76 10 	leaq	16(%rsi), %rsi
1000056ab:	4d 8d 40 f0 	leaq	-16(%r8), %r8
1000056af:	0f 28 34 32 	movaps	(%rdx,%rsi), %xmm6
1000056b3:	66 0f 73 de 0e 	psrldq	$14, %xmm6
1000056b8:	66 0f 3a 0f f1 02 	palignr	$2, %xmm1, %xmm6
1000056be:	0f 29 34 32 	movaps	%xmm6, (%rdx,%rsi)
1000056c2:	48 8d 76 0e 	leaq	14(%rsi), %rsi
1000056c6:	e9 55 f6 ff ff 	jmp	-2475 <___intel_ssse3_strncpy+0x1D30>
1000056cb:	0f 28 da 	movaps	%xmm2, %xmm3
1000056ce:	49 83 c0 30 	addq	$48, %r8
1000056d2:	7e 58 	jle	88 <___intel_ssse3_strncpy+0x273C>
1000056d4:	66 0f 3a 0f d1 03 	palignr	$3, %xmm1, %xmm2
1000056da:	0f 28 cb 	movaps	%xmm3, %xmm1
1000056dd:	0f 29 12 	movaps	%xmm2, (%rdx)
1000056e0:	0f 28 51 1d 	movaps	29(%rcx), %xmm2
1000056e4:	48 8d 76 10 	leaq	16(%rsi), %rsi
1000056e8:	0f 28 da 	movaps	%xmm2, %xmm3
1000056eb:	49 83 e8 10 	subq	$16, %r8
1000056ef:	76 3b 	jbe	59 <___intel_ssse3_strncpy+0x273C>
1000056f1:	66 0f 3a 0f d1 03 	palignr	$3, %xmm1, %xmm2
1000056f7:	0f 29 52 10 	movaps	%xmm2, 16(%rdx)
1000056fb:	0f 28 51 2d 	movaps	45(%rcx), %xmm2
1000056ff:	0f 28 cb 	movaps	%xmm3, %xmm1
100005702:	48 8d 76 10 	leaq	16(%rsi), %rsi
100005706:	49 83 e8 10 	subq	$16, %r8
10000570a:	76 20 	jbe	32 <___intel_ssse3_strncpy+0x273C>
10000570c:	0f 28 ca 	movaps	%xmm2, %xmm1
10000570f:	0f 29 62 20 	movaps	%xmm4, 32(%rdx)
100005713:	48 8d 76 10 	leaq	16(%rsi), %rsi
100005717:	49 83 e8 10 	subq	$16, %r8
10000571b:	76 0f 	jbe	15 <___intel_ssse3_strncpy+0x273C>
10000571d:	0f 28 cf 	movaps	%xmm7, %xmm1
100005720:	0f 29 6a 30 	movaps	%xmm5, 48(%rdx)
100005724:	48 8d 76 10 	leaq	16(%rsi), %rsi
100005728:	4d 8d 40 f0 	leaq	-16(%r8), %r8
10000572c:	0f 28 34 32 	movaps	(%rdx,%rsi), %xmm6
100005730:	66 0f 73 de 0d 	psrldq	$13, %xmm6
100005735:	66 0f 3a 0f f1 03 	palignr	$3, %xmm1, %xmm6
10000573b:	0f 29 34 32 	movaps	%xmm6, (%rdx,%rsi)
10000573f:	48 8d 76 0d 	leaq	13(%rsi), %rsi
100005743:	e9 d8 f5 ff ff 	jmp	-2600 <___intel_ssse3_strncpy+0x1D30>
100005748:	0f 28 da 	movaps	%xmm2, %xmm3
10000574b:	49 83 c0 30 	addq	$48, %r8
10000574f:	7e 58 	jle	88 <___intel_ssse3_strncpy+0x27B9>
100005751:	66 0f 3a 0f d1 04 	palignr	$4, %xmm1, %xmm2
100005757:	0f 28 cb 	movaps	%xmm3, %xmm1
10000575a:	0f 29 12 	movaps	%xmm2, (%rdx)
10000575d:	0f 28 51 1c 	movaps	28(%rcx), %xmm2
100005761:	48 8d 76 10 	leaq	16(%rsi), %rsi
100005765:	0f 28 da 	movaps	%xmm2, %xmm3
100005768:	49 83 e8 10 	subq	$16, %r8
10000576c:	76 3b 	jbe	59 <___intel_ssse3_strncpy+0x27B9>
10000576e:	66 0f 3a 0f d1 04 	palignr	$4, %xmm1, %xmm2
100005774:	0f 29 52 10 	movaps	%xmm2, 16(%rdx)
100005778:	0f 28 51 2c 	movaps	44(%rcx), %xmm2
10000577c:	0f 28 cb 	movaps	%xmm3, %xmm1
10000577f:	48 8d 76 10 	leaq	16(%rsi), %rsi
100005783:	49 83 e8 10 	subq	$16, %r8
100005787:	76 20 	jbe	32 <___intel_ssse3_strncpy+0x27B9>
100005789:	0f 28 ca 	movaps	%xmm2, %xmm1
10000578c:	0f 29 62 20 	movaps	%xmm4, 32(%rdx)
100005790:	48 8d 76 10 	leaq	16(%rsi), %rsi
100005794:	49 83 e8 10 	subq	$16, %r8
100005798:	76 0f 	jbe	15 <___intel_ssse3_strncpy+0x27B9>
10000579a:	0f 28 cf 	movaps	%xmm7, %xmm1
10000579d:	0f 29 6a 30 	movaps	%xmm5, 48(%rdx)
1000057a1:	48 8d 76 10 	leaq	16(%rsi), %rsi
1000057a5:	4d 8d 40 f0 	leaq	-16(%r8), %r8
1000057a9:	0f 28 34 32 	movaps	(%rdx,%rsi), %xmm6
1000057ad:	66 0f 73 de 0c 	psrldq	$12, %xmm6
1000057b2:	66 0f 3a 0f f1 04 	palignr	$4, %xmm1, %xmm6
1000057b8:	0f 29 34 32 	movaps	%xmm6, (%rdx,%rsi)
1000057bc:	48 8d 76 0c 	leaq	12(%rsi), %rsi
1000057c0:	e9 5b f5 ff ff 	jmp	-2725 <___intel_ssse3_strncpy+0x1D30>
1000057c5:	0f 28 da 	movaps	%xmm2, %xmm3
1000057c8:	49 83 c0 30 	addq	$48, %r8
1000057cc:	7e 58 	jle	88 <___intel_ssse3_strncpy+0x2836>
1000057ce:	66 0f 3a 0f d1 05 	palignr	$5, %xmm1, %xmm2
1000057d4:	0f 28 cb 	movaps	%xmm3, %xmm1
1000057d7:	0f 29 12 	movaps	%xmm2, (%rdx)
1000057da:	0f 28 51 1b 	movaps	27(%rcx), %xmm2
1000057de:	48 8d 76 10 	leaq	16(%rsi), %rsi
1000057e2:	0f 28 da 	movaps	%xmm2, %xmm3
1000057e5:	49 83 e8 10 	subq	$16, %r8
1000057e9:	76 3b 	jbe	59 <___intel_ssse3_strncpy+0x2836>
1000057eb:	66 0f 3a 0f d1 05 	palignr	$5, %xmm1, %xmm2
1000057f1:	0f 29 52 10 	movaps	%xmm2, 16(%rdx)
1000057f5:	0f 28 51 2b 	movaps	43(%rcx), %xmm2
1000057f9:	0f 28 cb 	movaps	%xmm3, %xmm1
1000057fc:	48 8d 76 10 	leaq	16(%rsi), %rsi
100005800:	49 83 e8 10 	subq	$16, %r8
100005804:	76 20 	jbe	32 <___intel_ssse3_strncpy+0x2836>
100005806:	0f 28 ca 	movaps	%xmm2, %xmm1
100005809:	0f 29 62 20 	movaps	%xmm4, 32(%rdx)
10000580d:	48 8d 76 10 	leaq	16(%rsi), %rsi
100005811:	49 83 e8 10 	subq	$16, %r8
100005815:	76 0f 	jbe	15 <___intel_ssse3_strncpy+0x2836>
100005817:	0f 28 cf 	movaps	%xmm7, %xmm1
10000581a:	0f 29 6a 30 	movaps	%xmm5, 48(%rdx)
10000581e:	48 8d 76 10 	leaq	16(%rsi), %rsi
100005822:	4d 8d 40 f0 	leaq	-16(%r8), %r8
100005826:	0f 28 34 32 	movaps	(%rdx,%rsi), %xmm6
10000582a:	66 0f 73 de 0b 	psrldq	$11, %xmm6
10000582f:	66 0f 3a 0f f1 05 	palignr	$5, %xmm1, %xmm6
100005835:	0f 29 34 32 	movaps	%xmm6, (%rdx,%rsi)
100005839:	48 8d 76 0b 	leaq	11(%rsi), %rsi
10000583d:	e9 de f4 ff ff 	jmp	-2850 <___intel_ssse3_strncpy+0x1D30>
100005842:	0f 28 da 	movaps	%xmm2, %xmm3
100005845:	49 83 c0 30 	addq	$48, %r8
100005849:	7e 58 	jle	88 <___intel_ssse3_strncpy+0x28B3>
10000584b:	66 0f 3a 0f d1 06 	palignr	$6, %xmm1, %xmm2
100005851:	0f 28 cb 	movaps	%xmm3, %xmm1
100005854:	0f 29 12 	movaps	%xmm2, (%rdx)
100005857:	0f 28 51 1a 	movaps	26(%rcx), %xmm2
10000585b:	48 8d 76 10 	leaq	16(%rsi), %rsi
10000585f:	0f 28 da 	movaps	%xmm2, %xmm3
100005862:	49 83 e8 10 	subq	$16, %r8
100005866:	76 3b 	jbe	59 <___intel_ssse3_strncpy+0x28B3>
100005868:	66 0f 3a 0f d1 06 	palignr	$6, %xmm1, %xmm2
10000586e:	0f 29 52 10 	movaps	%xmm2, 16(%rdx)
100005872:	0f 28 51 2a 	movaps	42(%rcx), %xmm2
100005876:	0f 28 cb 	movaps	%xmm3, %xmm1
100005879:	48 8d 76 10 	leaq	16(%rsi), %rsi
10000587d:	49 83 e8 10 	subq	$16, %r8
100005881:	76 20 	jbe	32 <___intel_ssse3_strncpy+0x28B3>
100005883:	0f 28 ca 	movaps	%xmm2, %xmm1
100005886:	0f 29 62 20 	movaps	%xmm4, 32(%rdx)
10000588a:	48 8d 76 10 	leaq	16(%rsi), %rsi
10000588e:	49 83 e8 10 	subq	$16, %r8
100005892:	76 0f 	jbe	15 <___intel_ssse3_strncpy+0x28B3>
100005894:	0f 28 cf 	movaps	%xmm7, %xmm1
100005897:	0f 29 6a 30 	movaps	%xmm5, 48(%rdx)
10000589b:	48 8d 76 10 	leaq	16(%rsi), %rsi
10000589f:	4d 8d 40 f0 	leaq	-16(%r8), %r8
1000058a3:	0f 28 34 32 	movaps	(%rdx,%rsi), %xmm6
1000058a7:	66 0f 73 de 0a 	psrldq	$10, %xmm6
1000058ac:	66 0f 3a 0f f1 06 	palignr	$6, %xmm1, %xmm6
1000058b2:	0f 29 34 32 	movaps	%xmm6, (%rdx,%rsi)
1000058b6:	48 8d 76 0a 	leaq	10(%rsi), %rsi
1000058ba:	e9 61 f4 ff ff 	jmp	-2975 <___intel_ssse3_strncpy+0x1D30>
1000058bf:	0f 28 da 	movaps	%xmm2, %xmm3
1000058c2:	49 83 c0 30 	addq	$48, %r8
1000058c6:	7e 58 	jle	88 <___intel_ssse3_strncpy+0x2930>
1000058c8:	66 0f 3a 0f d1 07 	palignr	$7, %xmm1, %xmm2
1000058ce:	0f 28 cb 	movaps	%xmm3, %xmm1
1000058d1:	0f 29 12 	movaps	%xmm2, (%rdx)
1000058d4:	0f 28 51 19 	movaps	25(%rcx), %xmm2
1000058d8:	48 8d 76 10 	leaq	16(%rsi), %rsi
1000058dc:	0f 28 da 	movaps	%xmm2, %xmm3
1000058df:	49 83 e8 10 	subq	$16, %r8
1000058e3:	76 3b 	jbe	59 <___intel_ssse3_strncpy+0x2930>
1000058e5:	66 0f 3a 0f d1 07 	palignr	$7, %xmm1, %xmm2
1000058eb:	0f 29 52 10 	movaps	%xmm2, 16(%rdx)
1000058ef:	0f 28 51 29 	movaps	41(%rcx), %xmm2
1000058f3:	0f 28 cb 	movaps	%xmm3, %xmm1
1000058f6:	48 8d 76 10 	leaq	16(%rsi), %rsi
1000058fa:	49 83 e8 10 	subq	$16, %r8
1000058fe:	76 20 	jbe	32 <___intel_ssse3_strncpy+0x2930>
100005900:	0f 28 ca 	movaps	%xmm2, %xmm1
100005903:	0f 29 62 20 	movaps	%xmm4, 32(%rdx)
100005907:	48 8d 76 10 	leaq	16(%rsi), %rsi
10000590b:	49 83 e8 10 	subq	$16, %r8
10000590f:	76 0f 	jbe	15 <___intel_ssse3_strncpy+0x2930>
100005911:	0f 28 cf 	movaps	%xmm7, %xmm1
100005914:	0f 29 6a 30 	movaps	%xmm5, 48(%rdx)
100005918:	48 8d 76 10 	leaq	16(%rsi), %rsi
10000591c:	4d 8d 40 f0 	leaq	-16(%r8), %r8
100005920:	0f 28 34 32 	movaps	(%rdx,%rsi), %xmm6
100005924:	66 0f 73 de 09 	psrldq	$9, %xmm6
100005929:	66 0f 3a 0f f1 07 	palignr	$7, %xmm1, %xmm6
10000592f:	0f 29 34 32 	movaps	%xmm6, (%rdx,%rsi)
100005933:	48 8d 76 09 	leaq	9(%rsi), %rsi
100005937:	e9 e4 f3 ff ff 	jmp	-3100 <___intel_ssse3_strncpy+0x1D30>
10000593c:	0f 28 da 	movaps	%xmm2, %xmm3
10000593f:	49 83 c0 30 	addq	$48, %r8
100005943:	7e 58 	jle	88 <___intel_ssse3_strncpy+0x29AD>
100005945:	66 0f 3a 0f d1 08 	palignr	$8, %xmm1, %xmm2
10000594b:	0f 28 cb 	movaps	%xmm3, %xmm1
10000594e:	0f 29 12 	movaps	%xmm2, (%rdx)
100005951:	0f 28 51 18 	movaps	24(%rcx), %xmm2
100005955:	48 8d 76 10 	leaq	16(%rsi), %rsi
100005959:	0f 28 da 	movaps	%xmm2, %xmm3
10000595c:	49 83 e8 10 	subq	$16, %r8
100005960:	76 3b 	jbe	59 <___intel_ssse3_strncpy+0x29AD>
100005962:	66 0f 3a 0f d1 08 	palignr	$8, %xmm1, %xmm2
100005968:	0f 29 52 10 	movaps	%xmm2, 16(%rdx)
10000596c:	0f 28 51 28 	movaps	40(%rcx), %xmm2
100005970:	0f 28 cb 	movaps	%xmm3, %xmm1
100005973:	48 8d 76 10 	leaq	16(%rsi), %rsi
100005977:	49 83 e8 10 	subq	$16, %r8
10000597b:	76 20 	jbe	32 <___intel_ssse3_strncpy+0x29AD>
10000597d:	0f 28 ca 	movaps	%xmm2, %xmm1
100005980:	0f 29 62 20 	movaps	%xmm4, 32(%rdx)
100005984:	48 8d 76 10 	leaq	16(%rsi), %rsi
100005988:	49 83 e8 10 	subq	$16, %r8
10000598c:	76 0f 	jbe	15 <___intel_ssse3_strncpy+0x29AD>
10000598e:	0f 28 cf 	movaps	%xmm7, %xmm1
100005991:	0f 29 6a 30 	movaps	%xmm5, 48(%rdx)
100005995:	48 8d 76 10 	leaq	16(%rsi), %rsi
100005999:	4d 8d 40 f0 	leaq	-16(%r8), %r8
10000599d:	0f 28 34 32 	movaps	(%rdx,%rsi), %xmm6
1000059a1:	66 0f 73 de 08 	psrldq	$8, %xmm6
1000059a6:	66 0f 3a 0f f1 08 	palignr	$8, %xmm1, %xmm6
1000059ac:	0f 29 34 32 	movaps	%xmm6, (%rdx,%rsi)
1000059b0:	48 8d 76 08 	leaq	8(%rsi), %rsi
1000059b4:	e9 67 f3 ff ff 	jmp	-3225 <___intel_ssse3_strncpy+0x1D30>
1000059b9:	0f 28 da 	movaps	%xmm2, %xmm3
1000059bc:	49 83 c0 30 	addq	$48, %r8
1000059c0:	7e 58 	jle	88 <___intel_ssse3_strncpy+0x2A2A>
1000059c2:	66 0f 3a 0f d1 09 	palignr	$9, %xmm1, %xmm2
1000059c8:	0f 28 cb 	movaps	%xmm3, %xmm1
1000059cb:	0f 29 12 	movaps	%xmm2, (%rdx)
1000059ce:	0f 28 51 17 	movaps	23(%rcx), %xmm2
1000059d2:	48 8d 76 10 	leaq	16(%rsi), %rsi
1000059d6:	0f 28 da 	movaps	%xmm2, %xmm3
1000059d9:	49 83 e8 10 	subq	$16, %r8
1000059dd:	76 3b 	jbe	59 <___intel_ssse3_strncpy+0x2A2A>
1000059df:	66 0f 3a 0f d1 09 	palignr	$9, %xmm1, %xmm2
1000059e5:	0f 29 52 10 	movaps	%xmm2, 16(%rdx)
1000059e9:	0f 28 51 27 	movaps	39(%rcx), %xmm2
1000059ed:	0f 28 cb 	movaps	%xmm3, %xmm1
1000059f0:	48 8d 76 10 	leaq	16(%rsi), %rsi
1000059f4:	49 83 e8 10 	subq	$16, %r8
1000059f8:	76 20 	jbe	32 <___intel_ssse3_strncpy+0x2A2A>
1000059fa:	0f 28 ca 	movaps	%xmm2, %xmm1
1000059fd:	0f 29 62 20 	movaps	%xmm4, 32(%rdx)
100005a01:	48 8d 76 10 	leaq	16(%rsi), %rsi
100005a05:	49 83 e8 10 	subq	$16, %r8
100005a09:	76 0f 	jbe	15 <___intel_ssse3_strncpy+0x2A2A>
100005a0b:	0f 28 cf 	movaps	%xmm7, %xmm1
100005a0e:	0f 29 6a 30 	movaps	%xmm5, 48(%rdx)
100005a12:	48 8d 76 10 	leaq	16(%rsi), %rsi
100005a16:	4d 8d 40 f0 	leaq	-16(%r8), %r8
100005a1a:	0f 28 34 32 	movaps	(%rdx,%rsi), %xmm6
100005a1e:	66 0f 73 de 07 	psrldq	$7, %xmm6
100005a23:	66 0f 3a 0f f1 09 	palignr	$9, %xmm1, %xmm6
100005a29:	0f 29 34 32 	movaps	%xmm6, (%rdx,%rsi)
100005a2d:	48 8d 76 07 	leaq	7(%rsi), %rsi
100005a31:	e9 ea f2 ff ff 	jmp	-3350 <___intel_ssse3_strncpy+0x1D30>
100005a36:	0f 28 da 	movaps	%xmm2, %xmm3
100005a39:	49 83 c0 30 	addq	$48, %r8
100005a3d:	7e 58 	jle	88 <___intel_ssse3_strncpy+0x2AA7>
100005a3f:	66 0f 3a 0f d1 0a 	palignr	$10, %xmm1, %xmm2
100005a45:	0f 28 cb 	movaps	%xmm3, %xmm1
100005a48:	0f 29 12 	movaps	%xmm2, (%rdx)
100005a4b:	0f 28 51 16 	movaps	22(%rcx), %xmm2
100005a4f:	48 8d 76 10 	leaq	16(%rsi), %rsi
100005a53:	0f 28 da 	movaps	%xmm2, %xmm3
100005a56:	49 83 e8 10 	subq	$16, %r8
100005a5a:	76 3b 	jbe	59 <___intel_ssse3_strncpy+0x2AA7>
100005a5c:	66 0f 3a 0f d1 0a 	palignr	$10, %xmm1, %xmm2
100005a62:	0f 29 52 10 	movaps	%xmm2, 16(%rdx)
100005a66:	0f 28 51 26 	movaps	38(%rcx), %xmm2
100005a6a:	0f 28 cb 	movaps	%xmm3, %xmm1
100005a6d:	48 8d 76 10 	leaq	16(%rsi), %rsi
100005a71:	49 83 e8 10 	subq	$16, %r8
100005a75:	76 20 	jbe	32 <___intel_ssse3_strncpy+0x2AA7>
100005a77:	0f 28 ca 	movaps	%xmm2, %xmm1
100005a7a:	0f 29 62 20 	movaps	%xmm4, 32(%rdx)
100005a7e:	48 8d 76 10 	leaq	16(%rsi), %rsi
100005a82:	49 83 e8 10 	subq	$16, %r8
100005a86:	76 0f 	jbe	15 <___intel_ssse3_strncpy+0x2AA7>
100005a88:	0f 28 cf 	movaps	%xmm7, %xmm1
100005a8b:	0f 29 6a 30 	movaps	%xmm5, 48(%rdx)
100005a8f:	48 8d 76 10 	leaq	16(%rsi), %rsi
100005a93:	4d 8d 40 f0 	leaq	-16(%r8), %r8
100005a97:	0f 28 34 32 	movaps	(%rdx,%rsi), %xmm6
100005a9b:	66 0f 73 de 06 	psrldq	$6, %xmm6
100005aa0:	66 0f 3a 0f f1 0a 	palignr	$10, %xmm1, %xmm6
100005aa6:	0f 29 34 32 	movaps	%xmm6, (%rdx,%rsi)
100005aaa:	48 8d 76 06 	leaq	6(%rsi), %rsi
100005aae:	e9 6d f2 ff ff 	jmp	-3475 <___intel_ssse3_strncpy+0x1D30>
100005ab3:	0f 28 da 	movaps	%xmm2, %xmm3
100005ab6:	49 83 c0 30 	addq	$48, %r8
100005aba:	7e 58 	jle	88 <___intel_ssse3_strncpy+0x2B24>
100005abc:	66 0f 3a 0f d1 0b 	palignr	$11, %xmm1, %xmm2
100005ac2:	0f 28 cb 	movaps	%xmm3, %xmm1
100005ac5:	0f 29 12 	movaps	%xmm2, (%rdx)
100005ac8:	0f 28 51 15 	movaps	21(%rcx), %xmm2
100005acc:	48 8d 76 10 	leaq	16(%rsi), %rsi
100005ad0:	0f 28 da 	movaps	%xmm2, %xmm3
100005ad3:	49 83 e8 10 	subq	$16, %r8
100005ad7:	76 3b 	jbe	59 <___intel_ssse3_strncpy+0x2B24>
100005ad9:	66 0f 3a 0f d1 0b 	palignr	$11, %xmm1, %xmm2
100005adf:	0f 29 52 10 	movaps	%xmm2, 16(%rdx)
100005ae3:	0f 28 51 25 	movaps	37(%rcx), %xmm2
100005ae7:	0f 28 cb 	movaps	%xmm3, %xmm1
100005aea:	48 8d 76 10 	leaq	16(%rsi), %rsi
100005aee:	49 83 e8 10 	subq	$16, %r8
100005af2:	76 20 	jbe	32 <___intel_ssse3_strncpy+0x2B24>
100005af4:	0f 28 ca 	movaps	%xmm2, %xmm1
100005af7:	0f 29 62 20 	movaps	%xmm4, 32(%rdx)
100005afb:	48 8d 76 10 	leaq	16(%rsi), %rsi
100005aff:	49 83 e8 10 	subq	$16, %r8
100005b03:	76 0f 	jbe	15 <___intel_ssse3_strncpy+0x2B24>
100005b05:	0f 28 cf 	movaps	%xmm7, %xmm1
100005b08:	0f 29 6a 30 	movaps	%xmm5, 48(%rdx)
100005b0c:	48 8d 76 10 	leaq	16(%rsi), %rsi
100005b10:	4d 8d 40 f0 	leaq	-16(%r8), %r8
100005b14:	0f 28 34 32 	movaps	(%rdx,%rsi), %xmm6
100005b18:	66 0f 73 de 05 	psrldq	$5, %xmm6
100005b1d:	66 0f 3a 0f f1 0b 	palignr	$11, %xmm1, %xmm6
100005b23:	0f 29 34 32 	movaps	%xmm6, (%rdx,%rsi)
100005b27:	48 8d 76 05 	leaq	5(%rsi), %rsi
100005b2b:	e9 f0 f1 ff ff 	jmp	-3600 <___intel_ssse3_strncpy+0x1D30>
100005b30:	0f 28 da 	movaps	%xmm2, %xmm3
100005b33:	49 83 c0 30 	addq	$48, %r8
100005b37:	7e 58 	jle	88 <___intel_ssse3_strncpy+0x2BA1>
100005b39:	66 0f 3a 0f d1 0c 	palignr	$12, %xmm1, %xmm2
100005b3f:	0f 28 cb 	movaps	%xmm3, %xmm1
100005b42:	0f 29 12 	movaps	%xmm2, (%rdx)
100005b45:	0f 28 51 14 	movaps	20(%rcx), %xmm2
100005b49:	48 8d 76 10 	leaq	16(%rsi), %rsi
100005b4d:	0f 28 da 	movaps	%xmm2, %xmm3
100005b50:	49 83 e8 10 	subq	$16, %r8
100005b54:	76 3b 	jbe	59 <___intel_ssse3_strncpy+0x2BA1>
100005b56:	66 0f 3a 0f d1 0c 	palignr	$12, %xmm1, %xmm2
100005b5c:	0f 29 52 10 	movaps	%xmm2, 16(%rdx)
100005b60:	0f 28 51 24 	movaps	36(%rcx), %xmm2
100005b64:	0f 28 cb 	movaps	%xmm3, %xmm1
100005b67:	48 8d 76 10 	leaq	16(%rsi), %rsi
100005b6b:	49 83 e8 10 	subq	$16, %r8
100005b6f:	76 20 	jbe	32 <___intel_ssse3_strncpy+0x2BA1>
100005b71:	0f 28 ca 	movaps	%xmm2, %xmm1
100005b74:	0f 29 62 20 	movaps	%xmm4, 32(%rdx)
100005b78:	48 8d 76 10 	leaq	16(%rsi), %rsi
100005b7c:	49 83 e8 10 	subq	$16, %r8
100005b80:	76 0f 	jbe	15 <___intel_ssse3_strncpy+0x2BA1>
100005b82:	0f 28 cf 	movaps	%xmm7, %xmm1
100005b85:	0f 29 6a 30 	movaps	%xmm5, 48(%rdx)
100005b89:	48 8d 76 10 	leaq	16(%rsi), %rsi
100005b8d:	4d 8d 40 f0 	leaq	-16(%r8), %r8
100005b91:	0f 28 34 32 	movaps	(%rdx,%rsi), %xmm6
100005b95:	66 0f 73 de 04 	psrldq	$4, %xmm6
100005b9a:	66 0f 3a 0f f1 0c 	palignr	$12, %xmm1, %xmm6
100005ba0:	0f 29 34 32 	movaps	%xmm6, (%rdx,%rsi)
100005ba4:	48 8d 76 04 	leaq	4(%rsi), %rsi
100005ba8:	e9 73 f1 ff ff 	jmp	-3725 <___intel_ssse3_strncpy+0x1D30>
100005bad:	0f 28 da 	movaps	%xmm2, %xmm3
100005bb0:	49 83 c0 30 	addq	$48, %r8
100005bb4:	7e 58 	jle	88 <___intel_ssse3_strncpy+0x2C1E>
100005bb6:	66 0f 3a 0f d1 0d 	palignr	$13, %xmm1, %xmm2
100005bbc:	0f 28 cb 	movaps	%xmm3, %xmm1
100005bbf:	0f 29 12 	movaps	%xmm2, (%rdx)
100005bc2:	0f 28 51 13 	movaps	19(%rcx), %xmm2
100005bc6:	48 8d 76 10 	leaq	16(%rsi), %rsi
100005bca:	0f 28 da 	movaps	%xmm2, %xmm3
100005bcd:	49 83 e8 10 	subq	$16, %r8
100005bd1:	76 3b 	jbe	59 <___intel_ssse3_strncpy+0x2C1E>
100005bd3:	66 0f 3a 0f d1 0d 	palignr	$13, %xmm1, %xmm2
100005bd9:	0f 29 52 10 	movaps	%xmm2, 16(%rdx)
100005bdd:	0f 28 51 23 	movaps	35(%rcx), %xmm2
100005be1:	0f 28 cb 	movaps	%xmm3, %xmm1
100005be4:	48 8d 76 10 	leaq	16(%rsi), %rsi
100005be8:	49 83 e8 10 	subq	$16, %r8
100005bec:	76 20 	jbe	32 <___intel_ssse3_strncpy+0x2C1E>
100005bee:	0f 28 ca 	movaps	%xmm2, %xmm1
100005bf1:	0f 29 62 20 	movaps	%xmm4, 32(%rdx)
100005bf5:	48 8d 76 10 	leaq	16(%rsi), %rsi
100005bf9:	49 83 e8 10 	subq	$16, %r8
100005bfd:	76 0f 	jbe	15 <___intel_ssse3_strncpy+0x2C1E>
100005bff:	0f 28 cf 	movaps	%xmm7, %xmm1
100005c02:	0f 29 6a 30 	movaps	%xmm5, 48(%rdx)
100005c06:	48 8d 76 10 	leaq	16(%rsi), %rsi
100005c0a:	4d 8d 40 f0 	leaq	-16(%r8), %r8
100005c0e:	0f 28 34 32 	movaps	(%rdx,%rsi), %xmm6
100005c12:	66 0f 73 de 03 	psrldq	$3, %xmm6
100005c17:	66 0f 3a 0f f1 0d 	palignr	$13, %xmm1, %xmm6
100005c1d:	0f 29 34 32 	movaps	%xmm6, (%rdx,%rsi)
100005c21:	48 8d 76 03 	leaq	3(%rsi), %rsi
100005c25:	e9 f6 f0 ff ff 	jmp	-3850 <___intel_ssse3_strncpy+0x1D30>
100005c2a:	0f 28 da 	movaps	%xmm2, %xmm3
100005c2d:	49 83 c0 30 	addq	$48, %r8
100005c31:	7e 58 	jle	88 <___intel_ssse3_strncpy+0x2C9B>
100005c33:	66 0f 3a 0f d1 0e 	palignr	$14, %xmm1, %xmm2
100005c39:	0f 28 cb 	movaps	%xmm3, %xmm1
100005c3c:	0f 29 12 	movaps	%xmm2, (%rdx)
100005c3f:	0f 28 51 12 	movaps	18(%rcx), %xmm2
100005c43:	48 8d 76 10 	leaq	16(%rsi), %rsi
100005c47:	0f 28 da 	movaps	%xmm2, %xmm3
100005c4a:	49 83 e8 10 	subq	$16, %r8
100005c4e:	76 3b 	jbe	59 <___intel_ssse3_strncpy+0x2C9B>
100005c50:	66 0f 3a 0f d1 0e 	palignr	$14, %xmm1, %xmm2
100005c56:	0f 29 52 10 	movaps	%xmm2, 16(%rdx)
100005c5a:	0f 28 51 22 	movaps	34(%rcx), %xmm2
100005c5e:	0f 28 cb 	movaps	%xmm3, %xmm1
100005c61:	48 8d 76 10 	leaq	16(%rsi), %rsi
100005c65:	49 83 e8 10 	subq	$16, %r8
100005c69:	76 20 	jbe	32 <___intel_ssse3_strncpy+0x2C9B>
100005c6b:	0f 28 ca 	movaps	%xmm2, %xmm1
100005c6e:	0f 29 62 20 	movaps	%xmm4, 32(%rdx)
100005c72:	48 8d 76 10 	leaq	16(%rsi), %rsi
100005c76:	49 83 e8 10 	subq	$16, %r8
100005c7a:	76 0f 	jbe	15 <___intel_ssse3_strncpy+0x2C9B>
100005c7c:	0f 28 cf 	movaps	%xmm7, %xmm1
100005c7f:	0f 29 6a 30 	movaps	%xmm5, 48(%rdx)
100005c83:	48 8d 76 10 	leaq	16(%rsi), %rsi
100005c87:	4d 8d 40 f0 	leaq	-16(%r8), %r8
100005c8b:	0f 28 34 32 	movaps	(%rdx,%rsi), %xmm6
100005c8f:	66 0f 73 de 02 	psrldq	$2, %xmm6
100005c94:	66 0f 3a 0f f1 0e 	palignr	$14, %xmm1, %xmm6
100005c9a:	0f 29 34 32 	movaps	%xmm6, (%rdx,%rsi)
100005c9e:	48 8d 76 02 	leaq	2(%rsi), %rsi
100005ca2:	e9 79 f0 ff ff 	jmp	-3975 <___intel_ssse3_strncpy+0x1D30>
100005ca7:	0f 28 da 	movaps	%xmm2, %xmm3
100005caa:	49 83 c0 30 	addq	$48, %r8
100005cae:	7e 58 	jle	88 <___intel_ssse3_strncpy+0x2D18>
100005cb0:	66 0f 3a 0f d1 0f 	palignr	$15, %xmm1, %xmm2
100005cb6:	0f 28 cb 	movaps	%xmm3, %xmm1
100005cb9:	0f 29 12 	movaps	%xmm2, (%rdx)
100005cbc:	0f 28 51 11 	movaps	17(%rcx), %xmm2
100005cc0:	48 8d 76 10 	leaq	16(%rsi), %rsi
100005cc4:	0f 28 da 	movaps	%xmm2, %xmm3
100005cc7:	49 83 e8 10 	subq	$16, %r8
100005ccb:	76 3b 	jbe	59 <___intel_ssse3_strncpy+0x2D18>
100005ccd:	66 0f 3a 0f d1 0f 	palignr	$15, %xmm1, %xmm2
100005cd3:	0f 29 52 10 	movaps	%xmm2, 16(%rdx)
100005cd7:	0f 28 51 21 	movaps	33(%rcx), %xmm2
100005cdb:	0f 28 cb 	movaps	%xmm3, %xmm1
100005cde:	48 8d 76 10 	leaq	16(%rsi), %rsi
100005ce2:	49 83 e8 10 	subq	$16, %r8
100005ce6:	76 20 	jbe	32 <___intel_ssse3_strncpy+0x2D18>
100005ce8:	0f 28 ca 	movaps	%xmm2, %xmm1
100005ceb:	0f 29 62 20 	movaps	%xmm4, 32(%rdx)
100005cef:	48 8d 76 10 	leaq	16(%rsi), %rsi
100005cf3:	49 83 e8 10 	subq	$16, %r8
100005cf7:	76 0f 	jbe	15 <___intel_ssse3_strncpy+0x2D18>
100005cf9:	0f 28 cf 	movaps	%xmm7, %xmm1
100005cfc:	0f 29 6a 30 	movaps	%xmm5, 48(%rdx)
100005d00:	48 8d 76 10 	leaq	16(%rsi), %rsi
100005d04:	4d 8d 40 f0 	leaq	-16(%r8), %r8
100005d08:	0f 28 34 32 	movaps	(%rdx,%rsi), %xmm6
100005d0c:	66 0f 73 de 01 	psrldq	$1, %xmm6
100005d11:	66 0f 3a 0f f1 0f 	palignr	$15, %xmm1, %xmm6
100005d17:	0f 29 34 32 	movaps	%xmm6, (%rdx,%rsi)
100005d1b:	48 8d 76 01 	leaq	1(%rsi), %rsi
100005d1f:	e9 fc ef ff ff 	jmp	-4100 <___intel_ssse3_strncpy+0x1D30>
100005d24:	0f 1f 44 00 00 	nopl	(%rax,%rax)
100005d29:	0f 1f 80 00 00 00 00 	nopl	(%rax)
100005d30:	90 	nop
100005d31:	90 	nop
100005d32:	90 	nop
100005d33:	90 	nop
100005d34:	90 	nop
100005d35:	90 	nop
100005d36:	90 	nop
100005d37:	90 	nop
100005d38:	90 	nop
100005d39:	90 	nop
100005d3a:	90 	nop
100005d3b:	90 	nop
100005d3c:	90 	nop
100005d3d:	90 	nop
100005d3e:	90 	nop
100005d3f:	90 	nop

___intel_sse4_atoi:
100005d40:	56 	pushq	%rsi
100005d41:	57 	pushq	%rdi
100005d42:	41 54 	pushq	%r12
100005d44:	48 81 ec a0 00 00 00 	subq	$160, %rsp
100005d4b:	49 89 c8 	movq	%rcx, %r8
100005d4e:	4d 89 c1 	movq	%r8, %r9
100005d51:	45 32 e4 	xorb	%r12b, %r12b
100005d54:	49 83 e1 0f 	andq	$15, %r9
100005d58:	40 32 ff 	xorb	%dil, %dil
100005d5b:	4d 2b c1 	subq	%r9, %r8
100005d5e:	44 0f 29 7c 24 10 	movaps	%xmm15, 16(%rsp)
100005d64:	44 0f 29 74 24 30 	movaps	%xmm14, 48(%rsp)
100005d6a:	44 0f 29 6c 24 40 	movaps	%xmm13, 64(%rsp)
100005d70:	44 0f 29 64 24 50 	movaps	%xmm12, 80(%rsp)
100005d76:	44 0f 29 5c 24 60 	movaps	%xmm11, 96(%rsp)
100005d7c:	44 0f 29 54 24 70 	movaps	%xmm10, 112(%rsp)
100005d82:	44 0f 29 8c 24 80 00 00 00 	movaps	%xmm9, 128(%rsp)
100005d8b:	44 0f 29 84 24 90 00 00 00 	movaps	%xmm8, 144(%rsp)
100005d94:	0f 29 3c 24 	movaps	%xmm7, (%rsp)
100005d98:	0f 29 74 24 20 	movaps	%xmm6, 32(%rsp)
100005d9d:	66 41 0f 6f 08 	movdqa	(%r8), %xmm1
100005da2:	48 8d 15 d7 15 00 00 	leaq	5591(%rip), %rdx
100005da9:	42 0f b7 14 4a 	movzwl	(%rdx,%r9,2), %edx
100005dae:	48 8d 05 05 00 00 00 	leaq	5(%rip), %rax
100005db5:	48 03 c2 	addq	%rdx, %rax
100005db8:	ff e0 	jmpq	*%rax
100005dba:	66 0f 73 d9 0f 	psrldq	$15, %xmm1
100005dbf:	66 0f 6f 05 f9 15 00 00 	movdqa	5625(%rip), %xmm0
100005dc7:	66 0f 3a 0f c8 01 	palignr	$1, %xmm0, %xmm1
100005dcd:	e9 39 01 00 00 	jmp	313 <___intel_sse4_atoi+0x1CB>
100005dd2:	66 0f 73 d9 0e 	psrldq	$14, %xmm1
100005dd7:	66 0f 6f 05 e1 15 00 00 	movdqa	5601(%rip), %xmm0
100005ddf:	66 0f 3a 0f c8 02 	palignr	$2, %xmm0, %xmm1
100005de5:	e9 21 01 00 00 	jmp	289 <___intel_sse4_atoi+0x1CB>
100005dea:	66 0f 73 d9 0d 	psrldq	$13, %xmm1
100005def:	66 0f 6f 05 c9 15 00 00 	movdqa	5577(%rip), %xmm0
100005df7:	66 0f 3a 0f c8 03 	palignr	$3, %xmm0, %xmm1
100005dfd:	e9 09 01 00 00 	jmp	265 <___intel_sse4_atoi+0x1CB>
100005e02:	66 0f 73 d9 0c 	psrldq	$12, %xmm1
100005e07:	66 0f 6f 05 b1 15 00 00 	movdqa	5553(%rip), %xmm0
100005e0f:	66 0f 3a 0f c8 04 	palignr	$4, %xmm0, %xmm1
100005e15:	e9 f1 00 00 00 	jmp	241 <___intel_sse4_atoi+0x1CB>
100005e1a:	66 0f 73 d9 0b 	psrldq	$11, %xmm1
100005e1f:	66 0f 6f 05 99 15 00 00 	movdqa	5529(%rip), %xmm0
100005e27:	66 0f 3a 0f c8 05 	palignr	$5, %xmm0, %xmm1
100005e2d:	e9 d9 00 00 00 	jmp	217 <___intel_sse4_atoi+0x1CB>
100005e32:	66 0f 73 d9 0a 	psrldq	$10, %xmm1
100005e37:	66 0f 6f 05 81 15 00 00 	movdqa	5505(%rip), %xmm0
100005e3f:	66 0f 3a 0f c8 06 	palignr	$6, %xmm0, %xmm1
100005e45:	e9 c1 00 00 00 	jmp	193 <___intel_sse4_atoi+0x1CB>
100005e4a:	66 0f 73 d9 09 	psrldq	$9, %xmm1
100005e4f:	66 0f 6f 05 69 15 00 00 	movdqa	5481(%rip), %xmm0
100005e57:	66 0f 3a 0f c8 07 	palignr	$7, %xmm0, %xmm1
100005e5d:	e9 a9 00 00 00 	jmp	169 <___intel_sse4_atoi+0x1CB>
100005e62:	66 0f 73 d9 08 	psrldq	$8, %xmm1
100005e67:	66 0f 6f 05 51 15 00 00 	movdqa	5457(%rip), %xmm0
100005e6f:	66 0f 3a 0f c8 08 	palignr	$8, %xmm0, %xmm1
100005e75:	e9 91 00 00 00 	jmp	145 <___intel_sse4_atoi+0x1CB>
100005e7a:	66 0f 73 d9 07 	psrldq	$7, %xmm1
100005e7f:	66 0f 6f 05 39 15 00 00 	movdqa	5433(%rip), %xmm0
100005e87:	66 0f 3a 0f c8 09 	palignr	$9, %xmm0, %xmm1
100005e8d:	eb 7c 	jmp	124 <___intel_sse4_atoi+0x1CB>
100005e8f:	66 0f 73 d9 06 	psrldq	$6, %xmm1
100005e94:	66 0f 6f 05 24 15 00 00 	movdqa	5412(%rip), %xmm0
100005e9c:	66 0f 3a 0f c8 0a 	palignr	$10, %xmm0, %xmm1
100005ea2:	eb 67 	jmp	103 <___intel_sse4_atoi+0x1CB>
100005ea4:	66 0f 73 d9 05 	psrldq	$5, %xmm1
100005ea9:	66 0f 6f 05 0f 15 00 00 	movdqa	5391(%rip), %xmm0
100005eb1:	66 0f 3a 0f c8 0b 	palignr	$11, %xmm0, %xmm1
100005eb7:	eb 52 	jmp	82 <___intel_sse4_atoi+0x1CB>
100005eb9:	66 0f 73 d9 04 	psrldq	$4, %xmm1
100005ebe:	66 0f 6f 05 fa 14 00 00 	movdqa	5370(%rip), %xmm0
100005ec6:	66 0f 3a 0f c8 0c 	palignr	$12, %xmm0, %xmm1
100005ecc:	eb 3d 	jmp	61 <___intel_sse4_atoi+0x1CB>
100005ece:	66 0f 73 d9 03 	psrldq	$3, %xmm1
100005ed3:	66 0f 6f 05 e5 14 00 00 	movdqa	5349(%rip), %xmm0
100005edb:	66 0f 3a 0f c8 0d 	palignr	$13, %xmm0, %xmm1
100005ee1:	eb 28 	jmp	40 <___intel_sse4_atoi+0x1CB>
100005ee3:	66 0f 73 d9 02 	psrldq	$2, %xmm1
100005ee8:	66 0f 6f 05 d0 14 00 00 	movdqa	5328(%rip), %xmm0
100005ef0:	66 0f 3a 0f c8 0e 	palignr	$14, %xmm0, %xmm1
100005ef6:	eb 13 	jmp	19 <___intel_sse4_atoi+0x1CB>
100005ef8:	66 0f 73 d9 01 	psrldq	$1, %xmm1
100005efd:	66 0f 6f 05 bb 14 00 00 	movdqa	5307(%rip), %xmm0
100005f05:	66 0f 3a 0f c8 0f 	palignr	$15, %xmm0, %xmm1
100005f0b:	48 8d 15 4e 16 00 00 	leaq	5710(%rip), %rdx
100005f12:	66 0f 6f 02 	movdqa	(%rdx), %xmm0
100005f16:	eb 09 	jmp	9 <___intel_sse4_atoi+0x1E1>
100005f18:	49 83 c0 10 	addq	$16, %r8
100005f1c:	66 41 0f 6f 08 	movdqa	(%r8), %xmm1
100005f21:	66 0f 3a 63 c1 12 	pcmpistri	$18, %xmm1, %xmm0
100005f27:	73 ef 	jae	-17 <___intel_sse4_atoi+0x1D8>
100005f29:	66 0f 3a 63 c1 12 	pcmpistri	$18, %xmm1, %xmm0
100005f2f:	41 89 cb 	movl	%ecx, %r11d
100005f32:	4f 8d 14 18 	leaq	(%r8,%r11), %r10
100005f36:	41 8a 12 	movb	(%r10), %dl
100005f39:	80 fa 2b 	cmpb	$43, %dl
100005f3c:	0f 84 e7 04 00 00 	je	1255 <___intel_sse4_atoi+0x6E9>
100005f42:	80 fa 2d 	cmpb	$45, %dl
100005f45:	75 0a 	jne	10 <___intel_sse4_atoi+0x211>
100005f47:	49 ff c3 	incq	%r11
100005f4a:	41 b4 01 	movb	$1, %r12b
100005f4d:	4f 8d 14 18 	leaq	(%r8,%r11), %r10
100005f51:	4d 89 d9 	movq	%r11, %r9
100005f54:	49 83 e1 0f 	andq	$15, %r9
100005f58:	66 0f 3a 63 c1 12 	pcmpistri	$18, %xmm1, %xmm0
100005f5e:	74 0b 	je	11 <___intel_sse4_atoi+0x22B>
100005f60:	f3 43 0f 6f 0c 03 	movdqu	(%r11,%r8), %xmm1
100005f66:	e9 7f 00 00 00 	jmp	127 <___intel_sse4_atoi+0x2AA>
100005f6b:	48 8d 15 2e 14 00 00 	leaq	5166(%rip), %rdx
100005f72:	42 0f b6 14 0a 	movzbl	(%rdx,%r9), %edx
100005f77:	48 8d 05 05 00 00 00 	leaq	5(%rip), %rax
100005f7e:	48 03 c2 	addq	%rdx, %rax
100005f81:	ff e0 	jmpq	*%rax
100005f83:	66 0f 73 d9 0f 	psrldq	$15, %xmm1
100005f88:	eb 60 	jmp	96 <___intel_sse4_atoi+0x2AA>
100005f8a:	66 0f 73 d9 0e 	psrldq	$14, %xmm1
100005f8f:	eb 59 	jmp	89 <___intel_sse4_atoi+0x2AA>
100005f91:	66 0f 73 d9 0d 	psrldq	$13, %xmm1
100005f96:	eb 52 	jmp	82 <___intel_sse4_atoi+0x2AA>
100005f98:	66 0f 73 d9 0c 	psrldq	$12, %xmm1
100005f9d:	eb 4b 	jmp	75 <___intel_sse4_atoi+0x2AA>
100005f9f:	66 0f 73 d9 0b 	psrldq	$11, %xmm1
100005fa4:	eb 44 	jmp	68 <___intel_sse4_atoi+0x2AA>
100005fa6:	66 0f 73 d9 0a 	psrldq	$10, %xmm1
100005fab:	eb 3d 	jmp	61 <___intel_sse4_atoi+0x2AA>
100005fad:	66 0f 73 d9 09 	psrldq	$9, %xmm1
100005fb2:	eb 36 	jmp	54 <___intel_sse4_atoi+0x2AA>
100005fb4:	66 0f 73 d9 08 	psrldq	$8, %xmm1
100005fb9:	eb 2f 	jmp	47 <___intel_sse4_atoi+0x2AA>
100005fbb:	66 0f 73 d9 07 	psrldq	$7, %xmm1
100005fc0:	eb 28 	jmp	40 <___intel_sse4_atoi+0x2AA>
100005fc2:	66 0f 73 d9 06 	psrldq	$6, %xmm1
100005fc7:	eb 21 	jmp	33 <___intel_sse4_atoi+0x2AA>
100005fc9:	66 0f 73 d9 05 	psrldq	$5, %xmm1
100005fce:	eb 1a 	jmp	26 <___intel_sse4_atoi+0x2AA>
100005fd0:	66 0f 73 d9 04 	psrldq	$4, %xmm1
100005fd5:	eb 13 	jmp	19 <___intel_sse4_atoi+0x2AA>
100005fd7:	66 0f 73 d9 03 	psrldq	$3, %xmm1
100005fdc:	eb 0c 	jmp	12 <___intel_sse4_atoi+0x2AA>
100005fde:	66 0f 73 d9 02 	psrldq	$2, %xmm1
100005fe3:	eb 05 	jmp	5 <___intel_sse4_atoi+0x2AA>
100005fe5:	66 0f 73 d9 01 	psrldq	$1, %xmm1
100005fea:	48 8d 15 7f 15 00 00 	leaq	5503(%rip), %rdx
100005ff1:	66 0f 6f 12 	movdqa	(%rdx), %xmm2
100005ff5:	66 0f 3a 62 d1 46 	pcmpistrm	$70, %xmm1, %xmm2
100005ffb:	66 0f 6f f0 	movdqa	%xmm0, %xmm6
100005fff:	66 44 0f d7 c6 	pmovmskb	%xmm6, %r8d
100006004:	44 89 c1 	movl	%r8d, %ecx
100006007:	f7 d1 	notl	%ecx
100006009:	ff c9 	decl	%ecx
10000600b:	44 23 c1 	andl	%ecx, %r8d
10000600e:	0f 84 8c 01 00 00 	je	396 <___intel_sse4_atoi+0x460>
100006014:	48 8d 15 65 15 00 00 	leaq	5477(%rip), %rdx
10000601b:	49 0f bf c8 	movswq	%r8w, %rcx
10000601f:	85 c9 	testl	%ecx, %ecx
100006021:	66 0f 6f 2a 	movdqa	(%rdx), %xmm5
100006025:	0f 8e 22 02 00 00 	jle	546 <___intel_sse4_atoi+0x50D>
10000602b:	45 0f bd c0 	bsrl	%r8d, %r8d
10000602f:	48 8d 15 5a 15 00 00 	leaq	5466(%rip), %rdx
100006036:	48 8d 0d 63 15 00 00 	leaq	5475(%rip), %rcx
10000603d:	4c 8d 0d 6c 15 00 00 	leaq	5484(%rip), %r9
100006044:	4d 63 c0 	movslq	%r8d, %r8
100006047:	66 0f 6f 02 	movdqa	(%rdx), %xmm0
10000604b:	66 0f 6f 11 	movdqa	(%rcx), %xmm2
10000604f:	66 41 0f 6f 19 	movdqa	(%r9), %xmm3
100006054:	66 0f db ce 	pand	%xmm6, %xmm1
100006058:	66 0f db ee 	pand	%xmm6, %xmm5
10000605c:	66 0f f8 cd 	psubb	%xmm5, %xmm1
100006060:	40 84 ff 	testb	%dil, %dil
100006063:	66 0f 38 04 c8 	pmaddubsw	%xmm0, %xmm1
100006068:	66 0f f5 ca 	pmaddwd	%xmm2, %xmm1
10000606c:	66 0f 38 40 cb 	pmulld	%xmm3, %xmm1
100006071:	66 0f 38 02 c9 	phaddd	%xmm1, %xmm1
100006076:	75 11 	jne	17 <___intel_sse4_atoi+0x349>
100006078:	49 83 f8 08 	cmpq	$8, %r8
10000607c:	73 0b 	jae	11 <___intel_sse4_atoi+0x349>
10000607e:	66 0f 3a 16 c9 00 	pextrd	$0, %xmm1, %ecx
100006084:	48 63 c9 	movslq	%ecx, %rcx
100006087:	eb 21 	jmp	33 <___intel_sse4_atoi+0x36A>
100006089:	48 8d 0d 30 15 00 00 	leaq	5424(%rip), %rcx
100006090:	66 0f 62 c9 	punpckldq	%xmm1, %xmm1
100006094:	66 0f 38 28 09 	pmuldq	(%rcx), %xmm1
100006099:	66 48 0f 3a 16 c9 00 	pextrq	$0, %xmm1, %rcx
1000060a0:	66 48 0f 3a 16 ca 01 	pextrq	$1, %xmm1, %rdx
1000060a7:	48 03 ca 	addq	%rdx, %rcx
1000060aa:	49 c1 e0 02 	shlq	$2, %r8
1000060ae:	4c 8d 0d 2b 13 00 00 	leaq	4907(%rip), %r9
1000060b5:	40 84 ff 	testb	%dil, %dil
1000060b8:	4f 63 14 01 	movslq	(%r9,%r8), %r10
1000060bc:	74 19 	je	25 <___intel_sse4_atoi+0x397>
1000060be:	48 89 f0 	movq	%rsi, %rax
1000060c1:	33 d2 	xorl	%edx, %edx
1000060c3:	49 f7 f2 	divq	%r10
1000060c6:	49 f7 d8 	negq	%r8
1000060c9:	4b 63 74 01 18 	movslq	24(%r9,%r8), %rsi
1000060ce:	48 0f af f1 	imulq	%rcx, %rsi
1000060d2:	48 03 c6 	addq	%rsi, %rax
1000060d5:	eb 08 	jmp	8 <___intel_sse4_atoi+0x39F>
1000060d7:	48 89 c8 	movq	%rcx, %rax
1000060da:	33 d2 	xorl	%edx, %edx
1000060dc:	49 f7 f2 	divq	%r10
1000060df:	45 84 e4 	testb	%r12b, %r12b
1000060e2:	74 68 	je	104 <___intel_sse4_atoi+0x40C>
1000060e4:	48 f7 d8 	negq	%rax
1000060e7:	48 85 c0 	testq	%rax, %rax
1000060ea:	7e 69 	jle	105 <___intel_sse4_atoi+0x415>
1000060ec:	e8 5f 03 00 00 	callq	863
1000060f1:	0f 28 74 24 20 	movaps	32(%rsp), %xmm6
1000060f6:	0f 28 3c 24 	movaps	(%rsp), %xmm7
1000060fa:	44 0f 28 84 24 90 00 00 00 	movaps	144(%rsp), %xmm8
100006103:	44 0f 28 8c 24 80 00 00 00 	movaps	128(%rsp), %xmm9
10000610c:	44 0f 28 54 24 70 	movaps	112(%rsp), %xmm10
100006112:	44 0f 28 5c 24 60 	movaps	96(%rsp), %xmm11
100006118:	44 0f 28 64 24 50 	movaps	80(%rsp), %xmm12
10000611e:	44 0f 28 6c 24 40 	movaps	64(%rsp), %xmm13
100006124:	44 0f 28 74 24 30 	movaps	48(%rsp), %xmm14
10000612a:	44 0f 28 7c 24 10 	movaps	16(%rsp), %xmm15
100006130:	c7 00 22 00 00 00 	movl	$34, (%rax)
100006136:	48 b8 00 00 00 00 00 00 00 80 	movabsq	$-9223372036854775808, %rax
100006140:	48 81 c4 a0 00 00 00 	addq	$160, %rsp
100006147:	41 5c 	popq	%r12
100006149:	5f 	popq	%rdi
10000614a:	5e 	popq	%rsi
10000614b:	c3 	retq
10000614c:	48 85 c0 	testq	%rax, %rax
10000614f:	0f 8c 98 00 00 00 	jl	152 <___intel_sse4_atoi+0x4AD>
100006155:	0f 28 74 24 20 	movaps	32(%rsp), %xmm6
10000615a:	0f 28 3c 24 	movaps	(%rsp), %xmm7
10000615e:	44 0f 28 84 24 90 00 00 00 	movaps	144(%rsp), %xmm8
100006167:	44 0f 28 8c 24 80 00 00 00 	movaps	128(%rsp), %xmm9
100006170:	44 0f 28 54 24 70 	movaps	112(%rsp), %xmm10
100006176:	44 0f 28 5c 24 60 	movaps	96(%rsp), %xmm11
10000617c:	44 0f 28 64 24 50 	movaps	80(%rsp), %xmm12
100006182:	44 0f 28 6c 24 40 	movaps	64(%rsp), %xmm13
100006188:	44 0f 28 74 24 30 	movaps	48(%rsp), %xmm14
10000618e:	44 0f 28 7c 24 10 	movaps	16(%rsp), %xmm15
100006194:	48 81 c4 a0 00 00 00 	addq	$160, %rsp
10000619b:	41 5c 	popq	%r12
10000619d:	5f 	popq	%rdi
10000619e:	5e 	popq	%rsi
10000619f:	c3 	retq
1000061a0:	0f 28 74 24 20 	movaps	32(%rsp), %xmm6
1000061a5:	33 c0 	xorl	%eax, %eax
1000061a7:	0f 28 3c 24 	movaps	(%rsp), %xmm7
1000061ab:	44 0f 28 84 24 90 00 00 00 	movaps	144(%rsp), %xmm8
1000061b4:	44 0f 28 8c 24 80 00 00 00 	movaps	128(%rsp), %xmm9
1000061bd:	44 0f 28 54 24 70 	movaps	112(%rsp), %xmm10
1000061c3:	44 0f 28 5c 24 60 	movaps	96(%rsp), %xmm11
1000061c9:	44 0f 28 64 24 50 	movaps	80(%rsp), %xmm12
1000061cf:	44 0f 28 6c 24 40 	movaps	64(%rsp), %xmm13
1000061d5:	44 0f 28 74 24 30 	movaps	48(%rsp), %xmm14
1000061db:	44 0f 28 7c 24 10 	movaps	16(%rsp), %xmm15
1000061e1:	48 81 c4 a0 00 00 00 	addq	$160, %rsp
1000061e8:	41 5c 	popq	%r12
1000061ea:	5f 	popq	%rdi
1000061eb:	5e 	popq	%rsi
1000061ec:	c3 	retq
1000061ed:	e8 5e 02 00 00 	callq	606
1000061f2:	0f 28 74 24 20 	movaps	32(%rsp), %xmm6
1000061f7:	0f 28 3c 24 	movaps	(%rsp), %xmm7
1000061fb:	44 0f 28 84 24 90 00 00 00 	movaps	144(%rsp), %xmm8
100006204:	44 0f 28 8c 24 80 00 00 00 	movaps	128(%rsp), %xmm9
10000620d:	44 0f 28 54 24 70 	movaps	112(%rsp), %xmm10
100006213:	44 0f 28 5c 24 60 	movaps	96(%rsp), %xmm11
100006219:	44 0f 28 64 24 50 	movaps	80(%rsp), %xmm12
10000621f:	44 0f 28 6c 24 40 	movaps	64(%rsp), %xmm13
100006225:	44 0f 28 74 24 30 	movaps	48(%rsp), %xmm14
10000622b:	44 0f 28 7c 24 10 	movaps	16(%rsp), %xmm15
100006231:	c7 00 22 00 00 00 	movl	$34, (%rax)
100006237:	48 b8 ff ff ff ff ff ff ff 7f 	movabsq	$9223372036854775807, %rax
100006241:	48 81 c4 a0 00 00 00 	addq	$160, %rsp
100006248:	41 5c 	popq	%r12
10000624a:	5f 	popq	%rdi
10000624b:	5e 	popq	%rsi
10000624c:	c3 	retq
10000624d:	4d 2b d1 	subq	%r9, %r10
100006250:	44 89 c9 	movl	%r9d, %ecx
100006253:	66 41 0f 6f 62 10 	movdqa	16(%r10), %xmm4
100006259:	66 0f 3a 62 d4 46 	pcmpistrm	$70, %xmm4, %xmm2
10000625f:	66 0f 6f d8 	movdqa	%xmm0, %xmm3
100006263:	66 44 0f d7 c3 	pmovmskb	%xmm3, %r8d
100006268:	41 d3 e8 	shrl	%cl, %r8d
10000626b:	44 89 c2 	movl	%r8d, %edx
10000626e:	f7 d2 	notl	%edx
100006270:	ff ca 	decl	%edx
100006272:	44 23 c2 	andl	%edx, %r8d
100006275:	75 2d 	jne	45 <___intel_sse4_atoi+0x564>
100006277:	48 8d 15 12 13 00 00 	leaq	4882(%rip), %rdx
10000627e:	41 b8 0f 00 00 00 	movl	$15, %r8d
100006284:	48 8d 0d 15 13 00 00 	leaq	4885(%rip), %rcx
10000628b:	4c 8d 0d 1e 13 00 00 	leaq	4894(%rip), %r9
100006292:	66 0f 6f 02 	movdqa	(%rdx), %xmm0
100006296:	66 0f 6f 11 	movdqa	(%rcx), %xmm2
10000629a:	66 41 0f 6f 19 	movdqa	(%r9), %xmm3
10000629f:	e9 b0 fd ff ff 	jmp	-592 <___intel_sse4_atoi+0x314>
1000062a4:	45 0f bd c0 	bsrl	%r8d, %r8d
1000062a8:	4d 63 c0 	movslq	%r8d, %r8
1000062ab:	40 b7 01 	movb	$1, %dil
1000062ae:	4b 8d 04 01 	leaq	(%r9,%r8), %rax
1000062b2:	48 83 f8 0f 	cmpq	$15, %rax
1000062b6:	75 29 	jne	41 <___intel_sse4_atoi+0x5A1>
1000062b8:	f3 43 0f 6f 64 0a 10 	movdqu	16(%r10,%r9), %xmm4
1000062bf:	66 0f 3a 62 d4 46 	pcmpistrm	$70, %xmm4, %xmm2
1000062c5:	66 0f d7 c0 	pmovmskb	%xmm0, %eax
1000062c9:	66 0f db e0 	pand	%xmm0, %xmm4
1000062cd:	66 0f db c5 	pand	%xmm5, %xmm0
1000062d1:	66 0f f8 e0 	psubb	%xmm0, %xmm4
1000062d5:	44 0f bd c0 	bsrl	%eax, %r8d
1000062d9:	4d 63 c0 	movslq	%r8d, %r8
1000062dc:	e9 8f 00 00 00 	jmp	143 <___intel_sse4_atoi+0x630>
1000062e1:	66 0f 6f c5 	movdqa	%xmm5, %xmm0
1000062e5:	66 0f db c3 	pand	%xmm3, %xmm0
1000062e9:	66 0f f8 e0 	psubb	%xmm0, %xmm4
1000062ed:	66 0f db e3 	pand	%xmm3, %xmm4
1000062f1:	48 8d 15 b8 10 00 00 	leaq	4280(%rip), %rdx
1000062f8:	42 0f b6 14 0a 	movzbl	(%rdx,%r9), %edx
1000062fd:	48 8d 05 05 00 00 00 	leaq	5(%rip), %rax
100006304:	48 03 c2 	addq	%rdx, %rax
100006307:	ff e0 	jmpq	*%rax
100006309:	66 0f 73 dc 0f 	psrldq	$15, %xmm4
10000630e:	eb 60 	jmp	96 <___intel_sse4_atoi+0x630>
100006310:	66 0f 73 dc 0e 	psrldq	$14, %xmm4
100006315:	eb 59 	jmp	89 <___intel_sse4_atoi+0x630>
100006317:	66 0f 73 dc 0d 	psrldq	$13, %xmm4
10000631c:	eb 52 	jmp	82 <___intel_sse4_atoi+0x630>
10000631e:	66 0f 73 dc 0c 	psrldq	$12, %xmm4
100006323:	eb 4b 	jmp	75 <___intel_sse4_atoi+0x630>
100006325:	66 0f 73 dc 0b 	psrldq	$11, %xmm4
10000632a:	eb 44 	jmp	68 <___intel_sse4_atoi+0x630>
10000632c:	66 0f 73 dc 0a 	psrldq	$10, %xmm4
100006331:	eb 3d 	jmp	61 <___intel_sse4_atoi+0x630>
100006333:	66 0f 73 dc 09 	psrldq	$9, %xmm4
100006338:	eb 36 	jmp	54 <___intel_sse4_atoi+0x630>
10000633a:	66 0f 73 dc 08 	psrldq	$8, %xmm4
10000633f:	eb 2f 	jmp	47 <___intel_sse4_atoi+0x630>
100006341:	66 0f 73 dc 07 	psrldq	$7, %xmm4
100006346:	eb 28 	jmp	40 <___intel_sse4_atoi+0x630>
100006348:	66 0f 73 dc 06 	psrldq	$6, %xmm4
10000634d:	eb 21 	jmp	33 <___intel_sse4_atoi+0x630>
10000634f:	66 0f 73 dc 05 	psrldq	$5, %xmm4
100006354:	eb 1a 	jmp	26 <___intel_sse4_atoi+0x630>
100006356:	66 0f 73 dc 04 	psrldq	$4, %xmm4
10000635b:	eb 13 	jmp	19 <___intel_sse4_atoi+0x630>
10000635d:	66 0f 73 dc 03 	psrldq	$3, %xmm4
100006362:	eb 0c 	jmp	12 <___intel_sse4_atoi+0x630>
100006364:	66 0f 73 dc 02 	psrldq	$2, %xmm4
100006369:	eb 05 	jmp	5 <___intel_sse4_atoi+0x630>
10000636b:	66 0f 73 dc 01 	psrldq	$1, %xmm4
100006370:	49 83 f8 02 	cmpq	$2, %r8
100006374:	77 42 	ja	66 <___intel_sse4_atoi+0x678>
100006376:	48 8d 05 13 12 00 00 	leaq	4627(%rip), %rax
10000637d:	48 8d 15 1c 12 00 00 	leaq	4636(%rip), %rdx
100006384:	48 8d 0d 25 12 00 00 	leaq	4645(%rip), %rcx
10000638b:	66 0f 6f 00 	movdqa	(%rax), %xmm0
10000638f:	66 0f 6f 12 	movdqa	(%rdx), %xmm2
100006393:	66 0f 38 04 e0 	pmaddubsw	%xmm0, %xmm4
100006398:	66 0f f5 e2 	pmaddwd	%xmm2, %xmm4
10000639c:	66 0f 6f 19 	movdqa	(%rcx), %xmm3
1000063a0:	66 0f 38 40 e3 	pmulld	%xmm3, %xmm4
1000063a5:	66 0f 38 02 e4 	phaddd	%xmm4, %xmm4
1000063aa:	66 0f 3a 16 e6 00 	pextrd	$0, %xmm4, %esi
1000063b0:	48 63 f6 	movslq	%esi, %rsi
1000063b3:	e9 9c fc ff ff 	jmp	-868 <___intel_sse4_atoi+0x314>
1000063b8:	e8 93 00 00 00 	callq	147
1000063bd:	45 84 e4 	testb	%r12b, %r12b
1000063c0:	48 ba 00 00 00 00 00 00 00 80 	movabsq	$-9223372036854775808, %rdx
1000063ca:	c7 00 22 00 00 00 	movl	$34, (%rax)
1000063d0:	48 b8 ff ff ff ff ff ff ff 7f 	movabsq	$9223372036854775807, %rax
1000063da:	0f 28 74 24 20 	movaps	32(%rsp), %xmm6
1000063df:	48 0f 45 c2 	cmovneq	%rdx, %rax
1000063e3:	0f 28 3c 24 	movaps	(%rsp), %xmm7
1000063e7:	44 0f 28 84 24 90 00 00 00 	movaps	144(%rsp), %xmm8
1000063f0:	44 0f 28 8c 24 80 00 00 00 	movaps	128(%rsp), %xmm9
1000063f9:	44 0f 28 54 24 70 	movaps	112(%rsp), %xmm10
1000063ff:	44 0f 28 5c 24 60 	movaps	96(%rsp), %xmm11
100006405:	44 0f 28 64 24 50 	movaps	80(%rsp), %xmm12
10000640b:	44 0f 28 6c 24 40 	movaps	64(%rsp), %xmm13
100006411:	44 0f 28 74 24 30 	movaps	48(%rsp), %xmm14
100006417:	44 0f 28 7c 24 10 	movaps	16(%rsp), %xmm15
10000641d:	48 81 c4 a0 00 00 00 	addq	$160, %rsp
100006424:	41 5c 	popq	%r12
100006426:	5f 	popq	%rdi
100006427:	5e 	popq	%rsi
100006428:	c3 	retq
100006429:	49 ff c3 	incq	%r11
10000642c:	4f 8d 14 18 	leaq	(%r8,%r11), %r10
100006430:	e9 1c fb ff ff 	jmp	-1252 <___intel_sse4_atoi+0x211>
100006435:	0f 1f 40 00 	nopl	(%rax)
100006439:	0f 1f 80 00 00 00 00 	nopl	(%rax)
100006440:	90 	nop
100006441:	90 	nop
100006442:	90 	nop
100006443:	90 	nop
100006444:	90 	nop
100006445:	90 	nop
100006446:	90 	nop
100006447:	90 	nop
100006448:	90 	nop
100006449:	90 	nop
10000644a:	90 	nop
10000644b:	90 	nop
10000644c:	90 	nop
10000644d:	90 	nop
10000644e:	90 	nop
10000644f:	90 	nop
Disassembly of section __TEXT,__stubs:
__stubs:
100006450:	ff 25 c2 1b 00 00 	jmpq	*7106(%rip)
100006456:	ff 25 c4 1b 00 00 	jmpq	*7108(%rip)
10000645c:	ff 25 c6 1b 00 00 	jmpq	*7110(%rip)
100006462:	ff 25 c8 1b 00 00 	jmpq	*7112(%rip)
100006468:	ff 25 ca 1b 00 00 	jmpq	*7114(%rip)
10000646e:	ff 25 cc 1b 00 00 	jmpq	*7116(%rip)
100006474:	ff 25 ce 1b 00 00 	jmpq	*7118(%rip)
10000647a:	ff 25 d0 1b 00 00 	jmpq	*7120(%rip)
100006480:	ff 25 d2 1b 00 00 	jmpq	*7122(%rip)
100006486:	ff 25 d4 1b 00 00 	jmpq	*7124(%rip)
10000648c:	ff 25 d6 1b 00 00 	jmpq	*7126(%rip)
100006492:	ff 25 d8 1b 00 00 	jmpq	*7128(%rip)
100006498:	ff 25 da 1b 00 00 	jmpq	*7130(%rip)
10000649e:	ff 25 dc 1b 00 00 	jmpq	*7132(%rip)
1000064a4:	ff 25 de 1b 00 00 	jmpq	*7134(%rip)
Disassembly of section __TEXT,__stub_helper:
__stub_helper:
1000064ac:	4c 8d 1d 5d 1b 00 00 	leaq	7005(%rip), %r11
1000064b3:	41 53 	pushq	%r11
1000064b5:	ff 25 4d 1b 00 00 	jmpq	*6989(%rip)
1000064bb:	90 	nop
1000064bc:	68 00 00 00 00 	pushq	$0
1000064c1:	e9 e6 ff ff ff 	jmp	-26 </Users/Simone/Documents/EURECOM/CompMeth/assignment2/lab2.o+0xA6E2C70F>
1000064c6:	68 0f 00 00 00 	pushq	$15
1000064cb:	e9 dc ff ff ff 	jmp	-36 </Users/Simone/Documents/EURECOM/CompMeth/assignment2/lab2.o+0xA6E2C70F>
1000064d0:	68 24 00 00 00 	pushq	$36
1000064d5:	e9 d2 ff ff ff 	jmp	-46 </Users/Simone/Documents/EURECOM/CompMeth/assignment2/lab2.o+0xA6E2C70F>
1000064da:	68 3a 00 00 00 	pushq	$58
1000064df:	e9 c8 ff ff ff 	jmp	-56 </Users/Simone/Documents/EURECOM/CompMeth/assignment2/lab2.o+0xA6E2C70F>
1000064e4:	68 49 00 00 00 	pushq	$73
1000064e9:	e9 be ff ff ff 	jmp	-66 </Users/Simone/Documents/EURECOM/CompMeth/assignment2/lab2.o+0xA6E2C70F>
1000064ee:	68 58 00 00 00 	pushq	$88
1000064f3:	e9 b4 ff ff ff 	jmp	-76 </Users/Simone/Documents/EURECOM/CompMeth/assignment2/lab2.o+0xA6E2C70F>
1000064f8:	68 64 00 00 00 	pushq	$100
1000064fd:	e9 aa ff ff ff 	jmp	-86 </Users/Simone/Documents/EURECOM/CompMeth/assignment2/lab2.o+0xA6E2C70F>
100006502:	68 73 00 00 00 	pushq	$115
100006507:	e9 a0 ff ff ff 	jmp	-96 </Users/Simone/Documents/EURECOM/CompMeth/assignment2/lab2.o+0xA6E2C70F>
10000650c:	68 80 00 00 00 	pushq	$128
100006511:	e9 96 ff ff ff 	jmp	-106 </Users/Simone/Documents/EURECOM/CompMeth/assignment2/lab2.o+0xA6E2C70F>
100006516:	68 8e 00 00 00 	pushq	$142
10000651b:	e9 8c ff ff ff 	jmp	-116 </Users/Simone/Documents/EURECOM/CompMeth/assignment2/lab2.o+0xA6E2C70F>
100006520:	68 9c 00 00 00 	pushq	$156
100006525:	e9 82 ff ff ff 	jmp	-126 </Users/Simone/Documents/EURECOM/CompMeth/assignment2/lab2.o+0xA6E2C70F>
10000652a:	68 aa 00 00 00 	pushq	$170
10000652f:	e9 78 ff ff ff 	jmp	-136 </Users/Simone/Documents/EURECOM/CompMeth/assignment2/lab2.o+0xA6E2C70F>
100006534:	68 b9 00 00 00 	pushq	$185
100006539:	e9 6e ff ff ff 	jmp	-146 </Users/Simone/Documents/EURECOM/CompMeth/assignment2/lab2.o+0xA6E2C70F>
10000653e:	68 c5 00 00 00 	pushq	$197
100006543:	e9 64 ff ff ff 	jmp	-156 </Users/Simone/Documents/EURECOM/CompMeth/assignment2/lab2.o+0xA6E2C70F>
100006548:	68 d4 00 00 00 	pushq	$212
10000654d:	e9 5a ff ff ff 	jmp	-166 </Users/Simone/Documents/EURECOM/CompMeth/assignment2/lab2.o+0xA6E2C70F>
Disassembly of section __TEXT,__cstring:
__cstring:
100006560:	53 	pushq	%rbx
100006561:	63  <unknown>
100006562:	61  <unknown>
100006563:	6c 	insb	%dx, %es:(%rdi)
100006564:	61  <unknown>
100006565:	72 2c 	jb	44 <__cstring+0x33>
100006567:	20 25 64 2c 20 25 	andb	%ah, 622865508(%rip)
10000656d:	6c 	insb	%dx, %es:(%rdi)
10000656e:	6c 	insb	%dx, %es:(%rdi)
10000656f:	64 2c 20 	subb	$32, %al
100006572:	25 6c 6c 64 2c 	andl	$744778860, %eax
100006577:	20 25 64 2c 20 25 	andb	%ah, 622865508(%rip)
10000657d:	64 0a 00 	orb	%fs:(%rax), %al
100006580:	53 	pushq	%rbx
100006581:	53 	pushq	%rbx
100006582:	45 34 2c 	xorb	$44, %al
100006585:	20 25 64 2c 20 25 	andb	%ah, 622865508(%rip)
10000658b:	6c 	insb	%dx, %es:(%rdi)
10000658c:	6c 	insb	%dx, %es:(%rdi)
10000658d:	64 2c 20 	subb	$32, %al
100006590:	25 6c 6c 64 2c 	andl	$744778860, %eax
100006595:	20 25 64 2c 20 25 	andb	%ah, 622865508(%rip)
10000659b:	64 0a 00 	orb	%fs:(%rax), %al
10000659e:	00 00 	addb	%al, (%rax)
1000065a0:	41 56 	pushq	%r14
1000065a2:	58 	popq	%rax
1000065a3:	32 2c 20 	xorb	(%rax), %ch
1000065a6:	25 64 2c 20 25 	andl	$622865508, %eax
1000065ab:	6c 	insb	%dx, %es:(%rdi)
1000065ac:	6c 	insb	%dx, %es:(%rdi)
1000065ad:	64 2c 20 	subb	$32, %al
1000065b0:	25 6c 6c 64 2c 	andl	$744778860, %eax
1000065b5:	20 25 64 2c 20 25 	andb	%ah, 622865508(%rip)
1000065bb:	64 0a 00 	orb	%fs:(%rax), %al
1000065be:	00 00 	addb	%al, (%rax)
1000065c0:	25 64 20 25 64 	andl	$1680154724, %eax
1000065c5:	20 25 64 20 25 64 	andb	%ah, 1680154724(%rip)
1000065cb:	20 25 64 20 25 64 	andb	%ah, 1680154724(%rip)
1000065d1:	20 25 64 20 25 64 	andb	%ah, 1680154724(%rip)
1000065d7:	20 0a 	andb	%cl, (%rdx)
1000065d9:	00 00 	addb	%al, (%rax)
1000065db:	00 00 	addb	%al, (%rax)
1000065dd:	00 00 	addb	%al, (%rax)
1000065df:	00 46 61 	addb	%al, 97(%rsi)
1000065e2:	74 61 	je	97 <__cstring+0xE5>
1000065e4:	6c 	insb	%dx, %es:(%rdi)
1000065e5:	20 45 72 	andb	%al, 114(%rbp)
1000065e8:	72 6f 	jb	111 <__cstring+0xF9>
1000065ea:	72 3a 	jb	58 <__cstring+0xC6>
1000065ec:	20 54 68 69 	andb	%dl, 105(%rax,%rbp,2)
1000065f0:	73 20 	jae	32 <__cstring+0xB2>
1000065f2:	70 72 	jo	114 <__cstring+0x106>
1000065f4:	6f 	outsl	(%rsi), %dx
1000065f5:	67 72 61 	jb	97 <__cstring+0xF9>
1000065f8:	6d 	insl	%dx, %es:(%rdi)
1000065f9:	20 77 61 	andb	%dh, 97(%rdi)
1000065fc:	73 20 	jae	32 <__cstring+0xBE>
1000065fe:	6e 	outsb	(%rsi), %dx
1000065ff:	6f 	outsl	(%rsi), %dx
100006600:	74 20 	je	32 <__cstring+0xC2>
100006602:	62  <unknown>
100006603:	75 69 	jne	105 <__cstring+0x10E>
100006605:	6c 	insb	%dx, %es:(%rdi)
100006606:	74 20 	je	32 <__cstring+0xC8>
100006608:	74 6f 	je	111 <__cstring+0x119>
10000660a:	20 72 75 	andb	%dh, 117(%rdx)
10000660d:	6e 	outsb	(%rsi), %dx
10000660e:	20 6f 6e 	andb	%ch, 110(%rdi)
100006611:	20 74 68 65 	andb	%dh, 101(%rax,%rbp,2)
100006615:	20 70 72 	andb	%dh, 114(%rax)
100006618:	6f 	outsl	(%rsi), %dx
100006619:	63  <unknown>
10000661a:	65 73 73 	jae	115 <__cstring+0x130>
10000661d:	6f 	outsl	(%rsi), %dx
10000661e:	72 20 	jb	32 <__cstring+0xE0>
100006620:	69 6e 20 79 6f 75 72 	imull	$1920298873, 32(%rsi), %ebp
100006627:	20 73 79 	andb	%dh, 121(%rbx)
10000662a:	73 74 	jae	116 <__cstring+0x140>
10000662c:	65 6d 	insl	%dx, %es:(%rdi)
10000662e:	2e 00 00 	addb	%al, %cs:(%rax)
100006631:	00 00 	addb	%al, (%rax)
100006633:	00 00 	addb	%al, (%rax)
100006635:	00 00 	addb	%al, (%rax)
100006637:	00 00 	addb	%al, (%rax)
100006639:	00 00 	addb	%al, (%rax)
10000663b:	00 00 	addb	%al, (%rax)
10000663d:	00 00 	addb	%al, (%rax)
10000663f:	00 52 75 	addb	%dl, 117(%rdx)
100006642:	6e 	outsb	(%rsi), %dx
100006643:	2d 54 69 6d 65 	subl	$1701669204, %eax
100006648:	20 43 68 	andb	%al, 104(%rbx)
10000664b:	65 63  <unknown>
10000664d:	6b 20 46 	imull	$70, (%rax), %esp
100006650:	61  <unknown>
100006651:	69 6c 75 72 65 3a 20 54 	imull	$1411398245, 114(%rbp,%rsi,2), %ebp
100006659:	68 65 20 76 61 	pushq	$1635131493
10000665e:	72 69 	jb	105 <__cstring+0x169>
100006660:	61  <unknown>
100006661:	62  <unknown>
100006662:	6c 	insb	%dx, %es:(%rdi)
100006663:	65 20 27 	andb	%ah, %gs:(%rdi)
100006666:	25 73 27 20 69 	andl	$1763714931, %eax
10000666b:	73 20 	jae	32 <__cstring+0x12D>
10000666d:	62  <unknown>
10000666e:	65 69 6e 67 20 75 73 65 	imull	$1702065440, %gs:103(%rsi), %ebp
100006676:	64 20 77 69 	andb	%dh, %fs:105(%rdi)
10000667a:	74 68 	je	104 <__cstring+0x184>
10000667c:	6f 	outsl	(%rsi), %dx
10000667d:	75 74 	jne	116 <__cstring+0x193>
10000667f:	20 62 65 	andb	%ah, 101(%rdx)
100006682:	69 6e 67 20 69 6e 69 	imull	$1768843552, 103(%rsi), %ebp
100006689:	74 69 	je	105 <__cstring+0x194>
10000668b:	61  <unknown>
10000668c:	6c 	insb	%dx, %es:(%rdi)
10000668d:	69 7a 65 64 00 00 00 	imull	$100, 101(%rdx), %edi
100006694:	00 00 	addb	%al, (%rax)
100006696:	00 00 	addb	%al, (%rax)
100006698:	00 00 	addb	%al, (%rax)
10000669a:	00 00 	addb	%al, (%rax)
10000669c:	00 00 	addb	%al, (%rax)
10000669e:	00 00 	addb	%al, (%rax)
1000066a0:	20 57 69 	andb	%dl, 105(%rdi)
1000066a3:	6e 	outsb	(%rsi), %dx
1000066a4:	64 6f 	outsl	%fs:(%rsi), %dx
1000066a6:	77 73 	ja	115 <__cstring+0x1BB>
1000066a8:	20 58 50 	andb	%bl, 80(%rax)
1000066ab:	20 36 	andb	%dh, (%rsi)
1000066ad:	34 2d 	xorb	$45, %al
1000066af:	62  <unknown>
1000066b0:	69 74 20 45 64 69 74 69 	imull	$1769236836, 69(%rax), %esi
1000066b8:	6f 	outsl	(%rsi), %dx
1000066b9:	6e 	outsb	(%rsi), %dx
1000066ba:	20 56 65 	andb	%dl, 101(%rsi)
1000066bd:	72 73 	jb	115 <__cstring+0x1D2>
1000066bf:	69 6f 6e 20 32 30 30 	imull	$808464928, 110(%rdi), %ebp
1000066c6:	33 20 	xorl	(%rax), %esp
1000066c8:	6f 	outsl	(%rsi), %dx
1000066c9:	72 20 	jb	32 <__cstring+0x18B>
1000066cb:	6e 	outsb	(%rsi), %dx
1000066cc:	65 77 65 	ja	101 <__cstring+0x1D4>
1000066cf:	72 20 	jb	32 <__cstring+0x191>
1000066d1:	73 68 	jae	104 <__cstring+0x1DB>
1000066d3:	6f 	outsl	(%rsi), %dx
1000066d4:	75 6c 	jne	108 <__cstring+0x1E2>
1000066d6:	64 20 62 65 	andb	%ah, %fs:101(%rdx)
1000066da:	20 75 73 	andb	%dh, 115(%rbp)
1000066dd:	65 64 2e 00 00 	addb	%al, %cs:(%rax)
1000066e2:	00 00 	addb	%al, (%rax)
1000066e4:	00 00 	addb	%al, (%rax)
1000066e6:	00 00 	addb	%al, (%rax)
1000066e8:	00 00 	addb	%al, (%rax)
1000066ea:	00 00 	addb	%al, (%rax)
1000066ec:	00 00 	addb	%al, (%rax)
1000066ee:	00 00 	addb	%al, (%rax)
1000066f0:	00 00 	addb	%al, (%rax)
1000066f2:	00 00 	addb	%al, (%rax)
1000066f4:	00 00 	addb	%al, (%rax)
1000066f6:	00 00 	addb	%al, (%rax)
1000066f8:	00 00 	addb	%al, (%rax)
1000066fa:	00 00 	addb	%al, (%rax)
1000066fc:	00 00 	addb	%al, (%rax)
1000066fe:	00 00 	addb	%al, (%rax)
100006700:	49 6e 	outsb	(%rsi), %dx
100006702:	74 65 	je	101 <__cstring+0x209>
100006704:	6c 	insb	%dx, %es:(%rdi)
100006705:	28 52 29 	subb	%dl, 41(%rdx)
100006708:	20 43 6f 	andb	%al, 111(%rbx)
10000670b:	72 65 	jb	101 <__cstring+0x212>
10000670d:	28 54 4d 29 	subb	%dl, 41(%rbp,%rcx,2)
100006711:	20 44 75 6f 	andb	%al, 111(%rbp,%rsi,2)
100006715:	20 70 72 	andb	%dh, 114(%rax)
100006718:	6f 	outsl	(%rsi), %dx
100006719:	63  <unknown>
10000671a:	65 73 73 	jae	115 <__cstring+0x230>
10000671d:	6f 	outsl	(%rsi), %dx
10000671e:	72 73 	jb	115 <__cstring+0x233>
100006720:	20 61 6e 	andb	%ah, 110(%rcx)
100006723:	64 20 63 6f 	andb	%ah, %fs:111(%rbx)
100006727:	6d 	insl	%dx, %es:(%rdi)
100006728:	70 61 	jo	97 <__cstring+0x22B>
10000672a:	74 69 	je	105 <__cstring+0x235>
10000672c:	62  <unknown>
10000672d:	6c 	insb	%dx, %es:(%rdi)
10000672e:	65 20 49 6e 	andb	%cl, %gs:110(%rcx)
100006732:	74 65 	je	101 <__cstring+0x239>
100006734:	6c 	insb	%dx, %es:(%rdi)
100006735:	20 70 72 	andb	%dh, 114(%rax)
100006738:	6f 	outsl	(%rsi), %dx
100006739:	63  <unknown>
10000673a:	65 73 73 	jae	115 <__cstring+0x250>
10000673d:	6f 	outsl	(%rsi), %dx
10000673e:	72 73 	jb	115 <__cstring+0x253>
100006740:	20 77 69 	andb	%dh, 105(%rdi)
100006743:	74 68 	je	104 <__cstring+0x24D>
100006745:	20 73 75 	andb	%dh, 117(%rbx)
100006748:	70 70 	jo	112 <__cstring+0x25A>
10000674a:	6c 	insb	%dx, %es:(%rdi)
10000674b:	65 6d 	insl	%dx, %es:(%rdi)
10000674d:	65 6e 	outsb	%gs:(%rsi), %dx
10000674f:	74 61 	je	97 <__cstring+0x252>
100006751:	6c 	insb	%dx, %es:(%rdi)
100006752:	20 53 74 	andb	%dl, 116(%rbx)
100006755:	72 65 	jb	101 <__cstring+0x25C>
100006757:	61  <unknown>
100006758:	6d 	insl	%dx, %es:(%rdi)
100006759:	69 6e 67 20 53 49 4d 	imull	$1296651040, 103(%rsi), %ebp
100006760:	44 20 45 78 	andb	%r8b, 120(%rbp)
100006764:	74 65 	je	101 <__cstring+0x26B>
100006766:	6e 	outsb	(%rsi), %dx
100006767:	73 69 	jae	105 <__cstring+0x272>
100006769:	6f 	outsl	(%rsi), %dx
10000676a:	6e 	outsb	(%rsi), %dx
10000676b:	73 20 	jae	32 <__cstring+0x22D>
10000676d:	33 20 	xorl	(%rax), %esp
10000676f:	28 53 53 	subb	%dl, 83(%rbx)
100006772:	53 	pushq	%rbx
100006773:	45 33 29 	xorl	(%r9), %r13d
100006776:	20 69 6e 	andb	%ch, 110(%rcx)
100006779:	73 74 	jae	116 <__cstring+0x28F>
10000677b:	72 75 	jb	117 <__cstring+0x292>
10000677d:	63  <unknown>
10000677e:	74 69 	je	105 <__cstring+0x289>
100006780:	6f 	outsl	(%rsi), %dx
100006781:	6e 	outsb	(%rsi), %dx
100006782:	20 73 75 	andb	%dh, 117(%rbx)
100006785:	70 70 	jo	112 <__cstring+0x297>
100006787:	6f 	outsl	(%rsi), %dx
100006788:	72 74 	jb	116 <__cstring+0x29E>
10000678a:	00 00 	addb	%al, (%rax)
10000678c:	00 00 	addb	%al, (%rax)
10000678e:	00 00 	addb	%al, (%rax)
100006790:	00 00 	addb	%al, (%rax)
100006792:	00 00 	addb	%al, (%rax)
100006794:	00 00 	addb	%al, (%rax)
100006796:	00 00 	addb	%al, (%rax)
100006798:	00 00 	addb	%al, (%rax)
10000679a:	00 00 	addb	%al, (%rax)
10000679c:	00 00 	addb	%al, (%rax)
10000679e:	00 00 	addb	%al, (%rax)
1000067a0:	49 6e 	outsb	(%rsi), %dx
1000067a2:	74 65 	je	101 <__cstring+0x2A9>
1000067a4:	6c 	insb	%dx, %es:(%rdi)
1000067a5:	28 52 29 	subb	%dl, 41(%rdx)
1000067a8:	20 50 65 	andb	%dl, 101(%rax)
1000067ab:	6e 	outsb	(%rsi), %dx
1000067ac:	74 69 	je	105 <__cstring+0x2B7>
1000067ae:	75 6d 	jne	109 <__cstring+0x2BD>
1000067b0:	28 52 29 	subb	%dl, 41(%rdx)
1000067b3:	20 34 20 	andb	%dh, (%rax)
1000067b6:	61  <unknown>
1000067b7:	6e 	outsb	(%rsi), %dx
1000067b8:	64 20 63 6f 	andb	%ah, %fs:111(%rbx)
1000067bc:	6d 	insl	%dx, %es:(%rdi)
1000067bd:	70 61 	jo	97 <__cstring+0x2C0>
1000067bf:	74 69 	je	105 <__cstring+0x2CA>
1000067c1:	62  <unknown>
1000067c2:	6c 	insb	%dx, %es:(%rdi)
1000067c3:	65 20 49 6e 	andb	%cl, %gs:110(%rcx)
1000067c7:	74 65 	je	101 <__cstring+0x2CE>
1000067c9:	6c 	insb	%dx, %es:(%rdi)
1000067ca:	20 70 72 	andb	%dh, 114(%rax)
1000067cd:	6f 	outsl	(%rsi), %dx
1000067ce:	63  <unknown>
1000067cf:	65 73 73 	jae	115 <__cstring+0x2E5>
1000067d2:	6f 	outsl	(%rsi), %dx
1000067d3:	72 73 	jb	115 <__cstring+0x2E8>
1000067d5:	20 77 69 	andb	%dh, 105(%rdi)
1000067d8:	74 68 	je	104 <__cstring+0x2E2>
1000067da:	20 49 6e 	andb	%cl, 110(%rcx)
1000067dd:	74 65 	je	101 <__cstring+0x2E4>
1000067df:	6c 	insb	%dx, %es:(%rdi)
1000067e0:	28 52 29 	subb	%dl, 41(%rdx)
1000067e3:	20 53 74 	andb	%dl, 116(%rbx)
1000067e6:	72 65 	jb	101 <__cstring+0x2ED>
1000067e8:	61  <unknown>
1000067e9:	6d 	insl	%dx, %es:(%rdi)
1000067ea:	69 6e 67 20 53 49 4d 	imull	$1296651040, 103(%rsi), %ebp
1000067f1:	44 20 45 78 	andb	%r8b, 120(%rbp)
1000067f5:	74 65 	je	101 <__cstring+0x2FC>
1000067f7:	6e 	outsb	(%rsi), %dx
1000067f8:	73 69 	jae	105 <__cstring+0x303>
1000067fa:	6f 	outsl	(%rsi), %dx
1000067fb:	6e 	outsb	(%rsi), %dx
1000067fc:	73 20 	jae	32 <__cstring+0x2BE>
1000067fe:	33 20 	xorl	(%rax), %esp
100006800:	28 49 6e 	subb	%cl, 110(%rcx)
100006803:	74 65 	je	101 <__cstring+0x30A>
100006805:	6c 	insb	%dx, %es:(%rdi)
100006806:	28 52 29 	subb	%dl, 41(%rdx)
100006809:	20 53 53 	andb	%dl, 83(%rbx)
10000680c:	45 33 29 	xorl	(%r9), %r13d
10000680f:	20 69 6e 	andb	%ch, 110(%rcx)
100006812:	73 74 	jae	116 <__cstring+0x328>
100006814:	72 75 	jb	117 <__cstring+0x32B>
100006816:	63  <unknown>
100006817:	74 69 	je	105 <__cstring+0x322>
100006819:	6f 	outsl	(%rsi), %dx
10000681a:	6e 	outsb	(%rsi), %dx
10000681b:	20 73 75 	andb	%dh, 117(%rbx)
10000681e:	70 70 	jo	112 <__cstring+0x330>
100006820:	6f 	outsl	(%rsi), %dx
100006821:	72 74 	jb	116 <__cstring+0x337>
100006823:	00 00 	addb	%al, (%rax)
100006825:	00 00 	addb	%al, (%rax)
100006827:	00 00 	addb	%al, (%rax)
100006829:	00 00 	addb	%al, (%rax)
10000682b:	00 00 	addb	%al, (%rax)
10000682d:	00 00 	addb	%al, (%rax)
10000682f:	00 00 	addb	%al, (%rax)
100006831:	00 00 	addb	%al, (%rax)
100006833:	00 00 	addb	%al, (%rax)
100006835:	00 00 	addb	%al, (%rax)
100006837:	00 00 	addb	%al, (%rax)
100006839:	00 00 	addb	%al, (%rax)
10000683b:	00 00 	addb	%al, (%rax)
10000683d:	00 00 	addb	%al, (%rax)
10000683f:	00 49 6e 	addb	%cl, 110(%rcx)
100006842:	74 65 	je	101 <__cstring+0x349>
100006844:	6c 	insb	%dx, %es:(%rdi)
100006845:	28 52 29 	subb	%dl, 41(%rdx)
100006848:	20 50 65 	andb	%dl, 101(%rax)
10000684b:	6e 	outsb	(%rsi), %dx
10000684c:	74 69 	je	105 <__cstring+0x357>
10000684e:	75 6d 	jne	109 <__cstring+0x35D>
100006850:	28 52 29 	subb	%dl, 41(%rdx)
100006853:	20 34 20 	andb	%dh, (%rax)
100006856:	61  <unknown>
100006857:	6e 	outsb	(%rsi), %dx
100006858:	64 20 63 6f 	andb	%ah, %fs:111(%rbx)
10000685c:	6d 	insl	%dx, %es:(%rdi)
10000685d:	70 61 	jo	97 <__cstring+0x360>
10000685f:	74 69 	je	105 <__cstring+0x36A>
100006861:	62  <unknown>
100006862:	6c 	insb	%dx, %es:(%rdi)
100006863:	65 20 49 6e 	andb	%cl, %gs:110(%rcx)
100006867:	74 65 	je	101 <__cstring+0x36E>
100006869:	6c 	insb	%dx, %es:(%rdi)
10000686a:	20 70 72 	andb	%dh, 114(%rax)
10000686d:	6f 	outsl	(%rsi), %dx
10000686e:	63  <unknown>
10000686f:	65 73 73 	jae	115 <__cstring+0x385>
100006872:	6f 	outsl	(%rsi), %dx
100006873:	72 73 	jb	115 <__cstring+0x388>
100006875:	2e 20 45 6e 	andb	%al, %cs:110(%rbp)
100006879:	61  <unknown>
10000687a:	62  <unknown>
10000687b:	6c 	insb	%dx, %es:(%rdi)
10000687c:	65 73 20 	jae	32 <__cstring+0x33F>
10000687f:	6e 	outsb	(%rsi), %dx
100006880:	65 77 20 	ja	32 <__cstring+0x343>
100006883:	6f 	outsl	(%rsi), %dx
100006884:	70 74 	jo	116 <__cstring+0x39A>
100006886:	69 6d 69 7a 61 74 69 	imull	$1769234810, 105(%rbp), %ebp
10000688d:	6f 	outsl	(%rsi), %dx
10000688e:	6e 	outsb	(%rsi), %dx
10000688f:	73 20 	jae	32 <__cstring+0x351>
100006891:	69 6e 20 61 64 64 69 	imull	$1768186977, 32(%rsi), %ebp
100006898:	74 69 	je	105 <__cstring+0x3A3>
10000689a:	6f 	outsl	(%rsi), %dx
10000689b:	6e 	outsb	(%rsi), %dx
10000689c:	20 74 6f 20 	andb	%dh, 32(%rdi,%rbp,2)
1000068a0:	49 6e 	outsb	(%rsi), %dx
1000068a2:	74 65 	je	101 <__cstring+0x3A9>
1000068a4:	6c 	insb	%dx, %es:(%rdi)
1000068a5:	20 70 72 	andb	%dh, 114(%rax)
1000068a8:	6f 	outsl	(%rsi), %dx
1000068a9:	63  <unknown>
1000068aa:	65 73 73 	jae	115 <__cstring+0x3C0>
1000068ad:	6f 	outsl	(%rsi), %dx
1000068ae:	72 2d 	jb	45 <__cstring+0x37D>
1000068b0:	73 70 	jae	112 <__cstring+0x3C2>
1000068b2:	65 63  <unknown>
1000068b4:	69 66 69 63 20 6f 70 	imull	$1886330979, 105(%rsi), %esp
1000068bb:	74 69 	je	105 <__cstring+0x3C6>
1000068bd:	6d 	insl	%dx, %es:(%rdi)
1000068be:	69 7a 61 74 69 6f 6e 	imull	$1852795252, 97(%rdx), %edi
1000068c5:	73 00 	jae	0 <__cstring+0x367>
1000068c7:	00 00 	addb	%al, (%rax)
1000068c9:	00 00 	addb	%al, (%rax)
1000068cb:	00 00 	addb	%al, (%rax)
1000068cd:	00 00 	addb	%al, (%rax)
1000068cf:	00 00 	addb	%al, (%rax)
1000068d1:	00 00 	addb	%al, (%rax)
1000068d3:	00 00 	addb	%al, (%rax)
1000068d5:	00 00 	addb	%al, (%rax)
1000068d7:	00 00 	addb	%al, (%rax)
1000068d9:	00 00 	addb	%al, (%rax)
1000068db:	00 00 	addb	%al, (%rax)
1000068dd:	00 00 	addb	%al, (%rax)
1000068df:	00 49 6e 	addb	%cl, 110(%rcx)
1000068e2:	74 65 	je	101 <__cstring+0x3E9>
1000068e4:	6c 	insb	%dx, %es:(%rdi)
1000068e5:	28 52 29 	subb	%dl, 41(%rdx)
1000068e8:	20 70 72 	andb	%dh, 114(%rax)
1000068eb:	6f 	outsl	(%rsi), %dx
1000068ec:	63  <unknown>
1000068ed:	65 73 73 	jae	115 <__cstring+0x403>
1000068f0:	6f 	outsl	(%rsi), %dx
1000068f1:	72 73 	jb	115 <__cstring+0x406>
1000068f3:	20 77 69 	andb	%dh, 105(%rdi)
1000068f6:	74 68 	je	104 <__cstring+0x400>
1000068f8:	20 53 53 	andb	%dl, 83(%rbx)
1000068fb:	45 34 2e 	xorb	$46, %al
1000068fe:	32 20 	xorb	(%rax), %ah
100006900:	61  <unknown>
100006901:	6e 	outsb	(%rsi), %dx
100006902:	64 20 50 4f 	andb	%dl, %fs:79(%rax)
100006906:	50 	pushq	%rax
100006907:	43  <unknown>
100006908:	4e 54 	pushq	%rsp
10000690a:	20 69 6e 	andb	%ch, 110(%rcx)
10000690d:	73 74 	jae	116 <__cstring+0x423>
10000690f:	72 75 	jb	117 <__cstring+0x426>
100006911:	63  <unknown>
100006912:	74 69 	je	105 <__cstring+0x41D>
100006914:	6f 	outsl	(%rsi), %dx
100006915:	6e 	outsb	(%rsi), %dx
100006916:	73 20 	jae	32 <__cstring+0x3D8>
100006918:	73 75 	jae	117 <__cstring+0x42F>
10000691a:	70 70 	jo	112 <__cstring+0x42C>
10000691c:	6f 	outsl	(%rsi), %dx
10000691d:	72 74 	jb	116 <__cstring+0x433>
10000691f:	00 50 6c 	addb	%dl, 108(%rax)
100006922:	65 61  <unknown>
100006924:	73 65 	jae	101 <__cstring+0x42B>
100006926:	20 76 65 	andb	%dh, 101(%rsi)
100006929:	72 69 	jb	105 <__cstring+0x434>
10000692b:	66 79 20 	jns	32 <__cstring+0x3EE>
10000692e:	74 68 	je	104 <__cstring+0x438>
100006930:	61  <unknown>
100006931:	74 20 	je	32 <__cstring+0x3F3>
100006933:	62  <unknown>
100006934:	6f 	outsl	(%rsi), %dx
100006935:	74 68 	je	104 <__cstring+0x43F>
100006937:	20 74 68 65 	andb	%dh, 101(%rax,%rbp,2)
10000693b:	20 6f 70 	andb	%ch, 112(%rdi)
10000693e:	65 72 61 	jb	97 <__cstring+0x442>
100006941:	74 69 	je	105 <__cstring+0x44C>
100006943:	6e 	outsb	(%rsi), %dx
100006944:	67 20 73 79 	andb	%dh, 121(%ebx)
100006948:	73 74 	jae	116 <__cstring+0x45E>
10000694a:	65 6d 	insl	%dx, %es:(%rdi)
10000694c:	20 61 6e 	andb	%ah, 110(%rcx)
10000694f:	64 20 74 68 65 	andb	%dh, %fs:101(%rax,%rbp,2)
100006954:	20 70 72 	andb	%dh, 114(%rax)
100006957:	6f 	outsl	(%rsi), %dx
100006958:	63  <unknown>
100006959:	65 73 73 	jae	115 <__cstring+0x46F>
10000695c:	6f 	outsl	(%rsi), %dx
10000695d:	72 20 	jb	32 <__cstring+0x41F>
10000695f:	73 75 	jae	117 <__cstring+0x476>
100006961:	70 70 	jo	112 <__cstring+0x473>
100006963:	6f 	outsl	(%rsi), %dx
100006964:	72 74 	jb	116 <__cstring+0x47A>
100006966:	20 49 6e 	andb	%cl, 110(%rcx)
100006969:	74 65 	je	101 <__cstring+0x470>
10000696b:	6c 	insb	%dx, %es:(%rdi)
10000696c:	28 52 29 	subb	%dl, 41(%rdx)
10000696f:	20 41 56 	andb	%al, 86(%rcx)
100006972:	58 	popq	%rax
100006973:	2e 00 00 	addb	%al, %cs:(%rax)
100006976:	00 00 	addb	%al, (%rax)
100006978:	00 00 	addb	%al, (%rax)
10000697a:	00 00 	addb	%al, (%rax)
10000697c:	00 00 	addb	%al, (%rax)
10000697e:	00 00 	addb	%al, (%rax)
100006980:	50 	pushq	%rax
100006981:	6c 	insb	%dx, %es:(%rdi)
100006982:	65 61  <unknown>
100006984:	73 65 	jae	101 <__cstring+0x48B>
100006986:	20 76 65 	andb	%dh, 101(%rsi)
100006989:	72 69 	jb	105 <__cstring+0x494>
10000698b:	66 79 20 	jns	32 <__cstring+0x44E>
10000698e:	74 68 	je	104 <__cstring+0x498>
100006990:	61  <unknown>
100006991:	74 20 	je	32 <__cstring+0x453>
100006993:	62  <unknown>
100006994:	6f 	outsl	(%rsi), %dx
100006995:	74 68 	je	104 <__cstring+0x49F>
100006997:	20 74 68 65 	andb	%dh, 101(%rax,%rbp,2)
10000699b:	20 6f 70 	andb	%ch, 112(%rdi)
10000699e:	65 72 61 	jb	97 <__cstring+0x4A2>
1000069a1:	74 69 	je	105 <__cstring+0x4AC>
1000069a3:	6e 	outsb	(%rsi), %dx
1000069a4:	67 20 73 79 	andb	%dh, 121(%ebx)
1000069a8:	73 74 	jae	116 <__cstring+0x4BE>
1000069aa:	65 6d 	insl	%dx, %es:(%rdi)
1000069ac:	20 61 6e 	andb	%ah, 110(%rcx)
1000069af:	64 20 74 68 65 	andb	%dh, %fs:101(%rax,%rbp,2)
1000069b4:	20 70 72 	andb	%dh, 114(%rax)
1000069b7:	6f 	outsl	(%rsi), %dx
1000069b8:	63  <unknown>
1000069b9:	65 73 73 	jae	115 <__cstring+0x4CF>
1000069bc:	6f 	outsl	(%rsi), %dx
1000069bd:	72 20 	jb	32 <__cstring+0x47F>
1000069bf:	73 75 	jae	117 <__cstring+0x4D6>
1000069c1:	70 70 	jo	112 <__cstring+0x4D3>
1000069c3:	6f 	outsl	(%rsi), %dx
1000069c4:	72 74 	jb	116 <__cstring+0x4DA>
1000069c6:	20 49 6e 	andb	%cl, 110(%rcx)
1000069c9:	74 65 	je	101 <__cstring+0x4D0>
1000069cb:	6c 	insb	%dx, %es:(%rdi)
1000069cc:	28 52 29 	subb	%dl, 41(%rdx)
1000069cf:	20 41 56 	andb	%al, 86(%rcx)
1000069d2:	58 	popq	%rax
1000069d3:	2c 20 	subb	$32, %al
1000069d5:	46 31 36 	xorl	%r14d, (%rsi)
1000069d8:	43 20 61 6e 	andb	%spl, 110(%r9)
1000069dc:	64 20 52 44 	andb	%dl, %fs:68(%rdx)
1000069e0:	52 	pushq	%rdx
1000069e1:	41  <unknown>
1000069e2:	4e  <unknown>
1000069e3:	44 20 69 6e 	andb	%r13b, 110(%rcx)
1000069e7:	73 74 	jae	116 <__cstring+0x4FD>
1000069e9:	72 75 	jb	117 <__cstring+0x500>
1000069eb:	63  <unknown>
1000069ec:	74 69 	je	105 <__cstring+0x4F7>
1000069ee:	6f 	outsl	(%rsi), %dx
1000069ef:	6e 	outsb	(%rsi), %dx
1000069f0:	73 2e 	jae	46 <__cstring+0x4C0>
1000069f2:	00 00 	addb	%al, (%rax)
1000069f4:	00 00 	addb	%al, (%rax)
1000069f6:	00 00 	addb	%al, (%rax)
1000069f8:	00 00 	addb	%al, (%rax)
1000069fa:	00 00 	addb	%al, (%rax)
1000069fc:	00 00 	addb	%al, (%rax)
1000069fe:	00 00 	addb	%al, (%rax)
100006a00:	50 	pushq	%rax
100006a01:	6c 	insb	%dx, %es:(%rdi)
100006a02:	65 61  <unknown>
100006a04:	73 65 	jae	101 <__cstring+0x50B>
100006a06:	20 76 65 	andb	%dh, 101(%rsi)
100006a09:	72 69 	jb	105 <__cstring+0x514>
100006a0b:	66 79 20 	jns	32 <__cstring+0x4CE>
100006a0e:	74 68 	je	104 <__cstring+0x518>
100006a10:	61  <unknown>
100006a11:	74 20 	je	32 <__cstring+0x4D3>
100006a13:	62  <unknown>
100006a14:	6f 	outsl	(%rsi), %dx
100006a15:	74 68 	je	104 <__cstring+0x51F>
100006a17:	20 74 68 65 	andb	%dh, 101(%rax,%rbp,2)
100006a1b:	20 6f 70 	andb	%ch, 112(%rdi)
100006a1e:	65 72 61 	jb	97 <__cstring+0x522>
100006a21:	74 69 	je	105 <__cstring+0x52C>
100006a23:	6e 	outsb	(%rsi), %dx
100006a24:	67 20 73 79 	andb	%dh, 121(%ebx)
100006a28:	73 74 	jae	116 <__cstring+0x53E>
100006a2a:	65 6d 	insl	%dx, %es:(%rdi)
100006a2c:	20 61 6e 	andb	%ah, 110(%rcx)
100006a2f:	64 20 74 68 65 	andb	%dh, %fs:101(%rax,%rbp,2)
100006a34:	20 70 72 	andb	%dh, 114(%rax)
100006a37:	6f 	outsl	(%rsi), %dx
100006a38:	63  <unknown>
100006a39:	65 73 73 	jae	115 <__cstring+0x54F>
100006a3c:	6f 	outsl	(%rsi), %dx
100006a3d:	72 20 	jb	32 <__cstring+0x4FF>
100006a3f:	73 75 	jae	117 <__cstring+0x556>
100006a41:	70 70 	jo	112 <__cstring+0x553>
100006a43:	6f 	outsl	(%rsi), %dx
100006a44:	72 74 	jb	116 <__cstring+0x55A>
100006a46:	20 49 6e 	andb	%cl, 110(%rcx)
100006a49:	74 65 	je	101 <__cstring+0x550>
100006a4b:	6c 	insb	%dx, %es:(%rdi)
100006a4c:	28 52 29 	subb	%dl, 41(%rdx)
100006a4f:	20 41 56 	andb	%al, 86(%rcx)
100006a52:	58 	popq	%rax
100006a53:	32 2c 20 	xorb	(%rax), %ch
100006a56:	42  <unknown>
100006a57:	4d  <unknown>
100006a58:	49 2c 20 	subb	$32, %al
100006a5b:	4c 5a 	popq	%rdx
100006a5d:	43  <unknown>
100006a5e:	4e 54 	pushq	%rsp
100006a60:	2c 20 	subb	$32, %al
100006a62:	48  <unknown>
100006a63:	4c  <unknown>
100006a64:	45 2c 20 	subb	$32, %al
100006a67:	52 	pushq	%rdx
100006a68:	54 	pushq	%rsp
100006a69:	4d 20 61 6e 	andb	%r12b, 110(%r9)
100006a6d:	64 20 46 4d 	andb	%al, %fs:77(%rsi)
100006a71:	41 20 69 6e 	andb	%bpl, 110(%r9)
100006a75:	73 74 	jae	116 <__cstring+0x58B>
100006a77:	72 75 	jb	117 <__cstring+0x58E>
100006a79:	63  <unknown>
100006a7a:	74 69 	je	105 <__cstring+0x585>
100006a7c:	6f 	outsl	(%rsi), %dx
100006a7d:	6e 	outsb	(%rsi), %dx
100006a7e:	73 2e 	jae	46 <__cstring+0x54E>
100006a80:	00 00 	addb	%al, (%rax)
100006a82:	00 00 	addb	%al, (%rax)
100006a84:	00 00 	addb	%al, (%rax)
100006a86:	00 00 	addb	%al, (%rax)
100006a88:	00 00 	addb	%al, (%rax)
100006a8a:	00 00 	addb	%al, (%rax)
100006a8c:	00 00 	addb	%al, (%rax)
100006a8e:	00 00 	addb	%al, (%rax)
100006a90:	00 00 	addb	%al, (%rax)
100006a92:	00 00 	addb	%al, (%rax)
100006a94:	00 00 	addb	%al, (%rax)
100006a96:	00 00 	addb	%al, (%rax)
100006a98:	00 00 	addb	%al, (%rax)
100006a9a:	00 00 	addb	%al, (%rax)
100006a9c:	00 00 	addb	%al, (%rax)
100006a9e:	00 00 	addb	%al, (%rax)
100006aa0:	50 	pushq	%rax
100006aa1:	6c 	insb	%dx, %es:(%rdi)
100006aa2:	65 61  <unknown>
100006aa4:	73 65 	jae	101 <__cstring+0x5AB>
100006aa6:	20 76 65 	andb	%dh, 101(%rsi)
100006aa9:	72 69 	jb	105 <__cstring+0x5B4>
100006aab:	66 79 20 	jns	32 <__cstring+0x56E>
100006aae:	74 68 	je	104 <__cstring+0x5B8>
100006ab0:	61  <unknown>
100006ab1:	74 20 	je	32 <__cstring+0x573>
100006ab3:	62  <unknown>
100006ab4:	6f 	outsl	(%rsi), %dx
100006ab5:	74 68 	je	104 <__cstring+0x5BF>
100006ab7:	20 74 68 65 	andb	%dh, 101(%rax,%rbp,2)
100006abb:	20 6f 70 	andb	%ch, 112(%rdi)
100006abe:	65 72 61 	jb	97 <__cstring+0x5C2>
100006ac1:	74 69 	je	105 <__cstring+0x5CC>
100006ac3:	6e 	outsb	(%rsi), %dx
100006ac4:	67 20 73 79 	andb	%dh, 121(%ebx)
100006ac8:	73 74 	jae	116 <__cstring+0x5DE>
100006aca:	65 6d 	insl	%dx, %es:(%rdi)
100006acc:	20 61 6e 	andb	%ah, 110(%rcx)
100006acf:	64 20 74 68 65 	andb	%dh, %fs:101(%rax,%rbp,2)
100006ad4:	20 70 72 	andb	%dh, 114(%rax)
100006ad7:	6f 	outsl	(%rsi), %dx
100006ad8:	63  <unknown>
100006ad9:	65 73 73 	jae	115 <__cstring+0x5EF>
100006adc:	6f 	outsl	(%rsi), %dx
100006add:	72 20 	jb	32 <__cstring+0x59F>
100006adf:	73 75 	jae	117 <__cstring+0x5F6>
100006ae1:	70 70 	jo	112 <__cstring+0x5F3>
100006ae3:	6f 	outsl	(%rsi), %dx
100006ae4:	72 74 	jb	116 <__cstring+0x5FA>
100006ae6:	20 49 6e 	andb	%cl, 110(%rcx)
100006ae9:	74 65 	je	101 <__cstring+0x5F0>
100006aeb:	6c 	insb	%dx, %es:(%rdi)
100006aec:	28 52 29 	subb	%dl, 41(%rdx)
100006aef:	20 25 73 20 69 6e 	andb	%ah, 1852383347(%rip)
100006af5:	73 74 	jae	116 <__cstring+0x60B>
100006af7:	72 75 	jb	117 <__cstring+0x60E>
100006af9:	63  <unknown>
100006afa:	74 69 	je	105 <__cstring+0x605>
100006afc:	6f 	outsl	(%rsi), %dx
100006afd:	6e 	outsb	(%rsi), %dx
100006afe:	73 2e 	jae	46 <__cstring+0x5CE>
100006b00:	00 00 	addb	%al, (%rax)
100006b02:	00 00 	addb	%al, (%rax)
100006b04:	00 00 	addb	%al, (%rax)
100006b06:	00 00 	addb	%al, (%rax)
100006b08:	00 00 	addb	%al, (%rax)
100006b0a:	00 00 	addb	%al, (%rax)
100006b0c:	00 00 	addb	%al, (%rax)
100006b0e:	00 00 	addb	%al, (%rax)
100006b10:	00 00 	addb	%al, (%rax)
100006b12:	00 00 	addb	%al, (%rax)
100006b14:	00 00 	addb	%al, (%rax)
100006b16:	00 00 	addb	%al, (%rax)
100006b18:	00 00 	addb	%al, (%rax)
100006b1a:	00 00 	addb	%al, (%rax)
100006b1c:	00 00 	addb	%al, (%rax)
100006b1e:	00 00 	addb	%al, (%rax)
100006b20:	50 	pushq	%rax
100006b21:	6c 	insb	%dx, %es:(%rdi)
100006b22:	65 61  <unknown>
100006b24:	73 65 	jae	101 <__cstring+0x62B>
100006b26:	20 76 65 	andb	%dh, 101(%rsi)
100006b29:	72 69 	jb	105 <__cstring+0x634>
100006b2b:	66 79 20 	jns	32 <__cstring+0x5EE>
100006b2e:	74 68 	je	104 <__cstring+0x638>
100006b30:	61  <unknown>
100006b31:	74 20 	je	32 <__cstring+0x5F3>
100006b33:	79 6f 	jns	111 <__cstring+0x644>
100006b35:	75 72 	jne	114 <__cstring+0x649>
100006b37:	20 61 70 	andb	%ah, 112(%rcx)
100006b3a:	70 6c 	jo	108 <__cstring+0x648>
100006b3c:	69 63 61 74 69 6f 6e 	imull	$1852795252, 97(%rbx), %esp
100006b43:	20 77 61 	andb	%dh, 97(%rdi)
100006b46:	73 20 	jae	32 <__cstring+0x608>
100006b48:	62  <unknown>
100006b49:	75 69 	jne	105 <__cstring+0x654>
100006b4b:	6c 	insb	%dx, %es:(%rdi)
100006b4c:	74 20 	je	32 <__cstring+0x60E>
100006b4e:	77 69 	ja	105 <__cstring+0x659>
100006b50:	74 68 	je	104 <__cstring+0x65A>
100006b52:	20 63 6f 	andb	%ah, 111(%rbx)
100006b55:	6d 	insl	%dx, %es:(%rdi)
100006b56:	70 61 	jo	97 <__cstring+0x659>
100006b58:	74 69 	je	105 <__cstring+0x663>
100006b5a:	62  <unknown>
100006b5b:	6c 	insb	%dx, %es:(%rdi)
100006b5c:	65 20 49 6e 	andb	%cl, %gs:110(%rcx)
100006b60:	74 65 	je	101 <__cstring+0x667>
100006b62:	6c 	insb	%dx, %es:(%rdi)
100006b63:	28 52 29 	subb	%dl, 41(%rdx)
100006b66:	20 6c 69 62 	andb	%ch, 98(%rcx,%rbp,2)
100006b6a:	69 72 63 20 6c 69 62 	imull	$1651076128, 99(%rdx), %esi
100006b71:	72 61 	jb	97 <__cstring+0x674>
100006b73:	72 79 	jb	121 <__cstring+0x68E>
100006b75:	00 00 	addb	%al, (%rax)
100006b77:	00 00 	addb	%al, (%rax)
100006b79:	00 00 	addb	%al, (%rax)
100006b7b:	00 00 	addb	%al, (%rax)
100006b7d:	00 00 	addb	%al, (%rax)
100006b7f:	00 55 73 	addb	%dl, 115(%rbp)
100006b82:	65 20 6f 66 	andb	%ch, %gs:102(%rdi)
100006b86:	20 69 6e 	andb	%ch, 110(%rcx)
100006b89:	63  <unknown>
100006b8a:	6f 	outsl	(%rsi), %dx
100006b8b:	6d 	insl	%dx, %es:(%rdi)
100006b8c:	70 61 	jo	97 <__cstring+0x68F>
100006b8e:	74 69 	je	105 <__cstring+0x699>
100006b90:	62  <unknown>
100006b91:	6c 	insb	%dx, %es:(%rdi)
100006b92:	65 20 6f 72 	andb	%ch, %gs:114(%rdi)
100006b96:	20 69 6e 	andb	%ch, 110(%rcx)
100006b99:	74 65 	je	101 <__cstring+0x6A0>
100006b9b:	72 6e 	jb	110 <__cstring+0x6AB>
100006b9d:	61  <unknown>
100006b9e:	6c 	insb	%dx, %es:(%rdi)
100006b9f:	6c 	insb	%dx, %es:(%rdi)
100006ba0:	79 20 	jns	32 <__cstring+0x662>
100006ba2:	69 6e 63 6f 6e 73 69 	imull	$1769172591, 99(%rsi), %ebp
100006ba9:	73 74 	jae	116 <__cstring+0x6BF>
100006bab:	65 6e 	outsb	%gs:(%rsi), %dx
100006bad:	74 20 	je	32 <__cstring+0x66F>
100006baf:	49 6e 	outsb	(%rsi), %dx
100006bb1:	74 65 	je	101 <__cstring+0x6B8>
100006bb3:	6c 	insb	%dx, %es:(%rdi)
100006bb4:	28 52 29 	subb	%dl, 41(%rdx)
100006bb7:	20 6c 69 62 	andb	%ch, 98(%rcx,%rbp,2)
100006bbb:	69 72 63 20 6c 69 62 	imull	$1651076128, 99(%rdx), %esi
100006bc2:	72 61 	jb	97 <__cstring+0x6C5>
100006bc4:	72 79 	jb	121 <__cstring+0x6DF>
100006bc6:	00 00 	addb	%al, (%rax)
100006bc8:	00 00 	addb	%al, (%rax)
100006bca:	00 00 	addb	%al, (%rax)
100006bcc:	00 00 	addb	%al, (%rax)
100006bce:	00 00 	addb	%al, (%rax)
100006bd0:	00 00 	addb	%al, (%rax)
100006bd2:	00 00 	addb	%al, (%rax)
100006bd4:	00 00 	addb	%al, (%rax)
100006bd6:	00 00 	addb	%al, (%rax)
100006bd8:	00 00 	addb	%al, (%rax)
100006bda:	00 00 	addb	%al, (%rax)
100006bdc:	00 00 	addb	%al, (%rax)
100006bde:	00 00 	addb	%al, (%rax)
100006be0:	52 	pushq	%rdx
100006be1:	75 6e 	jne	110 <__cstring+0x6F1>
100006be3:	2d 54 69 6d 65 	subl	$1701669204, %eax
100006be8:	20 43 68 	andb	%al, 104(%rbx)
100006beb:	65 63  <unknown>
100006bed:	6b 20 46 	imull	$70, (%rax), %esp
100006bf0:	61  <unknown>
100006bf1:	69 6c 75 72 65 3a 20 54 	imull	$1411398245, 114(%rbp,%rsi,2), %ebp
100006bf9:	68 65 20 76 61 	pushq	$1635131493
100006bfe:	72 69 	jb	105 <__cstring+0x709>
100006c00:	61  <unknown>
100006c01:	62  <unknown>
100006c02:	6c 	insb	%dx, %es:(%rdi)
100006c03:	65 20 27 	andb	%ah, %gs:(%rdi)
100006c06:	25 73 27 20 69 	andl	$1763714931, %eax
100006c0b:	73 20 	jae	32 <__cstring+0x6CD>
100006c0d:	62  <unknown>
100006c0e:	65 69 6e 67 20 75 73 65 	imull	$1702065440, %gs:103(%rsi), %ebp
100006c16:	64 20 69 6e 	andb	%ch, %fs:110(%rcx)
100006c1a:	20 25 73 20 77 69 	andb	%ah, 1769414771(%rip)
100006c20:	74 68 	je	104 <__cstring+0x72A>
100006c22:	6f 	outsl	(%rsi), %dx
100006c23:	75 74 	jne	116 <__cstring+0x739>
100006c25:	20 62 65 	andb	%ah, 101(%rdx)
100006c28:	69 6e 67 20 69 6e 69 	imull	$1768843552, 103(%rsi), %ebp
100006c2f:	74 69 	je	105 <__cstring+0x73A>
100006c31:	61  <unknown>
100006c32:	6c 	insb	%dx, %es:(%rdi)
100006c33:	69 7a 65 64 00 69 72 	imull	$1919484004, 101(%rdx), %edi
100006c3a:	63  <unknown>
100006c3b:	5f 	popq	%rdi
100006c3c:	6d 	insl	%dx, %es:(%rdi)
100006c3d:	73 67 	jae	103 <__cstring+0x746>
100006c3f:	2e 63  <unknown>
100006c41:	61  <unknown>
100006c42:	74 00 	je	0 <__cstring+0x6E4>
100006c44:	0a 00 	orb	(%rax), %al
100006c46:	00 00 	addb	%al, (%rax)
100006c48:	43 6f 	outsl	(%rsi), %dx
100006c4a:	6e 	outsb	(%rsi), %dx
100006c4b:	73 74 	jae	116 <__cstring+0x761>
100006c4d:	61  <unknown>
100006c4e:	6e 	outsb	(%rsi), %dx
100006c4f:	74 20 	je	32 <__cstring+0x711>
100006c51:	70 72 	jo	114 <__cstring+0x765>
100006c53:	6f 	outsl	(%rsi), %dx
100006c54:	70 61 	jo	97 <__cstring+0x757>
100006c56:	67 61  <unknown>
100006c58:	74 69 	je	105 <__cstring+0x763>
100006c5a:	6f 	outsl	(%rsi), %dx
100006c5b:	6e 	outsb	(%rsi), %dx
100006c5c:	20 65 72 	andb	%ah, 114(%rbp)
100006c5f:	72 6f 	jb	111 <__cstring+0x770>
100006c61:	72 20 	jb	32 <__cstring+0x723>
100006c63:	28 25 73 20 73 75 	subb	%ah, 1970479219(%rip)
100006c69:	62 73 74 69 74  <unknown>
100006c6e:	75 74 	jne	116 <__cstring+0x784>
100006c70:	69 6f 6e 29 3a 00 00 	imull	$14889, 110(%rdi), %ebp
100006c77:	00 46 4f 	addb	%al, 79(%rsi)
100006c7a:	52 	pushq	%rdx
100006c7b:	4d  <unknown>
100006c7c:	41  <unknown>
100006c7d:	4c 00 00 	addb	%r8b, (%rax)
100006c80:	52 	pushq	%rdx
100006c81:	45 54 	pushq	%r12
100006c83:	55 	pushq	%rbp
100006c84:	52 	pushq	%rdx
100006c85:	4e 00 00 	addb	%r8b, (%rax)
100006c88:	47  <unknown>
100006c89:	4c  <unknown>
100006c8a:	4f  <unknown>
100006c8b:	42  <unknown>
100006c8c:	41  <unknown>
100006c8d:	4c 00 00 	addb	%r8b, (%rax)
100006c90:	09 49 33 	orl	%ecx, 51(%rcx)
100006c93:	32 20 	xorb	(%rax), %ah
100006c95:	25 6c 78 20 21 	andl	$555776108, %eax
100006c9a:	3d 20 25 6c 78 	cmpl	$2020353312, %eax
100006c9f:	00 09 	addb	%cl, (%rcx)
100006ca1:	53 	pushq	%rbx
100006ca2:	49 33 32 	xorq	(%r10), %rsi
100006ca5:	20 25 6c 64 20 21 	andb	%ah, 555770988(%rip)
100006cab:	3d 20 25 6c 64 	cmpl	$1684808992, %eax
100006cb0:	00 00 	addb	%al, (%rax)
100006cb2:	00 00 	addb	%al, (%rax)
100006cb4:	09 46 33 	orl	%eax, 51(%rsi)
100006cb7:	32 20 	xorb	(%rax), %ah
100006cb9:	25 66 20 21 3d 	andl	$1025581158, %eax
100006cbe:	20 25 66 00 00 00 	andb	%ah, 102(%rip)
100006cc4:	09 49 36 	orl	%ecx, 54(%rcx)
100006cc7:	34 20 	xorb	$32, %al
100006cc9:	25 6c 78 3a 25 	andl	$624588908, %eax
100006cce:	6c 	insb	%dx, %es:(%rdi)
100006ccf:	78 20 	js	32 <__cstring+0x791>
100006cd1:	21 3d 20 25 6c 78 	andl	%edi, 2020353312(%rip)
100006cd7:	3a 25 6c 78 00 09 	cmpb	151025772(%rip), %ah
100006cdd:	53 	pushq	%rbx
100006cde:	49 36 	ss
100006ce0:	34 20 	xorb	$32, %al
100006ce2:	25 6c 64 3a 25 	andl	$624583788, %eax
100006ce7:	6c 	insb	%dx, %es:(%rdi)
100006ce8:	64 20 21 	andb	%ah, %fs:(%rcx)
100006ceb:	3d 20 25 6c 64 	cmpl	$1684808992, %eax
100006cf0:	3a 25 6c 64 00 00 	cmpb	25708(%rip), %ah
100006cf6:	00 00 	addb	%al, (%rax)
100006cf8:	09 46 36 	orl	%eax, 54(%rsi)
100006cfb:	34 20 	xorb	$32, %al
100006cfd:	25 66 20 21 3d 	andl	$1025581158, %eax
100006d02:	20 25 66 00 00 00 	andb	%ah, 102(%rip)
100006d08:	42 61  <unknown>
100006d0a:	64 20 73 65 	andb	%dh, %fs:101(%rbx)
100006d0e:	63  <unknown>
100006d0f:	6f 	outsl	(%rsi), %dx
100006d10:	6e 	outsb	(%rsi), %dx
100006d11:	64 20 61 72 	andb	%ah, %fs:114(%rcx)
100006d15:	67 75 6d 	jne	109 <__cstring+0x825>
100006d18:	65 6e 	outsb	%gs:(%rsi), %dx
100006d1a:	74 00 	je	0 <__cstring+0x7BC>
100006d1c:	46 61  <unknown>
100006d1e:	74 61 	je	97 <__cstring+0x821>
100006d20:	6c 	insb	%dx, %es:(%rdi)
100006d21:	20 45 72 	andb	%al, 114(%rbp)
100006d24:	72 6f 	jb	111 <__cstring+0x835>
100006d26:	72 3a 	jb	58 <__cstring+0x802>
100006d28:	20 43 61 	andb	%al, 97(%rbx)
100006d2b:	6e 	outsb	(%rsi), %dx
100006d2c:	20 6e 6f 	andb	%ch, 111(%rsi)
100006d2f:	74 20 	je	32 <__cstring+0x7F1>
100006d31:	69 6e 69 74 69 61 74 	imull	$1952541044, 105(%rsi), %ebp
100006d38:	65 20 74 68 65 	andb	%dh, %gs:101(%rax,%rbp,2)
100006d3d:	20 48 65 	andb	%cl, 101(%rax)
100006d40:	61  <unknown>
100006d41:	70 00 	jo	0 <__cstring+0x7E3>
100006d43:	00 55 73 	addb	%dl, 115(%rbp)
100006d46:	61  <unknown>
100006d47:	67 65 3a 20 	cmpb	%gs:(%eax), %ah
100006d4b:	25 73 20 69 6e 	andl	$1852383347, %eax
100006d50:	70 75 	jo	117 <__cstring+0x867>
100006d52:	74 5f 	je	95 <__cstring+0x853>
100006d54:	66 69 6c 65 20 6f 75 	imulw	$30063, 32(%rbp), %bp
100006d5b:	74 70 	je	112 <__cstring+0x86D>
100006d5d:	75 74 	jne	116 <__cstring+0x873>
100006d5f:	5f 	popq	%rdi
100006d60:	66 69 6c 65 00 00 00 	imulw	$0, (%rbp), %bp
100006d67:	00 55 73 	addb	%dl, 115(%rbp)
100006d6a:	61  <unknown>
100006d6b:	67 65 3a 20 	cmpb	%gs:(%eax), %ah
100006d6f:	25 73 20 73 65 	andl	$1702043763, %eax
100006d74:	67 6d 	insl	%dx, %es:(%edi)
100006d76:	65 6e 	outsb	%gs:(%rsi), %dx
100006d78:	74 5f 	je	95 <__cstring+0x879>
100006d7a:	73 69 	jae	105 <__cstring+0x885>
100006d7c:	7a 65 	jp	101 <__cstring+0x883>
100006d7e:	20 69 6e 	andb	%ch, 110(%rcx)
100006d81:	70 75 	jo	117 <__cstring+0x898>
100006d83:	74 5f 	je	95 <__cstring+0x884>
100006d85:	66 69 6c 65 20 5b 2d 	imulw	$11611, 32(%rbp), %bp
100006d8c:	74 72 	je	114 <__cstring+0x8A0>
100006d8e:	61  <unknown>
100006d8f:	63  <unknown>
100006d90:	65 5d 	popq	%rbp
100006d92:	00 00 	addb	%al, (%rax)
100006d94:	43 6f 	outsl	(%rsi), %dx
100006d96:	6e 	outsb	(%rsi), %dx
100006d97:	76 65 	jbe	101 <__cstring+0x89E>
100006d99:	72 73 	jb	115 <__cstring+0x8AE>
100006d9b:	69 6f 6e 20 66 72 6f 	imull	$1869768224, 110(%rdi), %ebp
100006da2:	6d 	insl	%dx, %es:(%rdi)
100006da3:	20 74 65 78 	andb	%dh, 120(%rbp)
100006da7:	74 20 	je	32 <__cstring+0x869>
100006da9:	66 69 6c 65 20 25 73 	imulw	$29477, 32(%rbp), %bp
100006db0:	20 74 6f 20 	andb	%dh, 32(%rdi,%rbp,2)
100006db4:	62  <unknown>
100006db5:	69 6e 61 72 79 20 25 	imull	$622885234, 97(%rsi), %ebp
100006dbc:	73 20 	jae	32 <__cstring+0x87E>
100006dbe:	63  <unknown>
100006dbf:	6f 	outsl	(%rsi), %dx
100006dc0:	6d 	insl	%dx, %es:(%rdi)
100006dc1:	70 6c 	jo	108 <__cstring+0x8CF>
100006dc3:	65 74 65 	je	101 <__cstring+0x8CB>
100006dc6:	64 00 73 65 	addb	%dh, %fs:101(%rbx)
100006dca:	67 6d 	insl	%dx, %es:(%edi)
100006dcc:	65 6e 	outsb	%gs:(%rsi), %dx
100006dce:	74 5f 	je	95 <__cstring+0x8CF>
100006dd0:	73 69 	jae	105 <__cstring+0x8DB>
100006dd2:	7a 65 	jp	101 <__cstring+0x8D9>
100006dd4:	20 3d 20 30 78 25 	andb	%bh, 628633632(%rip)
100006dda:	78 20 	js	32 <__cstring+0x89C>
100006ddc:	3d 20 25 64 00 	cmpl	$6563104, %eax
100006de1:	00 00 	addb	%al, (%rax)
100006de3:	00 43 61 	addb	%al, 97(%rbx)
100006de6:	6e 	outsb	(%rsi), %dx
100006de7:	6e 	outsb	(%rsi), %dx
100006de8:	6f 	outsl	(%rsi), %dx
100006de9:	74 20 	je	32 <__cstring+0x8AB>
100006deb:	61  <unknown>
100006dec:	6c 	insb	%dx, %es:(%rdi)
100006ded:	6c 	insb	%dx, %es:(%rdi)
100006dee:	6f 	outsl	(%rsi), %dx
100006def:	63  <unknown>
100006df0:	61  <unknown>
100006df1:	74 65 	je	101 <__cstring+0x8F8>
100006df3:	20 6d 65 	andb	%ch, 101(%rbp)
100006df6:	6d 	insl	%dx, %es:(%rdi)
100006df7:	6f 	outsl	(%rsi), %dx
100006df8:	72 79 	jb	121 <__cstring+0x913>
100006dfa:	20 74 6f 20 	andb	%dh, 32(%rdi,%rbp,2)
100006dfe:	68 6f 6c 64 20 	pushq	$543452271
100006e03:	73 65 	jae	101 <__cstring+0x90A>
100006e05:	67 6d 	insl	%dx, %es:(%edi)
100006e07:	65 6e 	outsb	%gs:(%rsi), %dx
100006e09:	74 20 	je	32 <__cstring+0x8CB>
100006e0b:	28 73 69 	subb	%dh, 105(%rbx)
100006e0e:	7a 65 	jp	101 <__cstring+0x915>
100006e10:	20 3d 20 30 78 25 	andb	%bh, 628633632(%rip)
100006e16:	78 29 	js	41 <__cstring+0x8E1>
100006e18:	00 00 	addb	%al, (%rax)
100006e1a:	00 00 	addb	%al, (%rax)
100006e1c:	49 6e 	outsb	(%rsi), %dx
100006e1e:	70 75 	jo	117 <__cstring+0x935>
100006e20:	74 20 	je	32 <__cstring+0x8E2>
100006e22:	66 69 6c 65 3a 20 25 	imulw	$9504, 58(%rbp), %bp
100006e29:	73 20 	jae	32 <__cstring+0x8EB>
100006e2b:	63  <unknown>
100006e2c:	6f 	outsl	(%rsi), %dx
100006e2d:	72 72 	jb	114 <__cstring+0x941>
100006e2f:	75 70 	jne	112 <__cstring+0x941>
100006e31:	74 65 	je	101 <__cstring+0x938>
100006e33:	64 00 00 	addb	%al, %fs:(%rax)
100006e36:	00 00 	addb	%al, (%rax)
100006e38:	72 6f 	jb	111 <__cstring+0x949>
100006e3a:	75 74 	jne	116 <__cstring+0x950>
100006e3c:	69 6e 65 5f 6e 61 6d 	imull	$1835101791, 101(%rsi), %ebp
100006e43:	65 20 3d 20 27 25 73 	andb	%bh, %gs:1931814688(%rip)
100006e4a:	27  <unknown>
100006e4b:	00 66 69 	addb	%ah, 105(%rsi)
100006e4e:	6c 	insb	%dx, %es:(%rdi)
100006e4f:	65 5f 	popq	%rdi
100006e51:	6e 	outsb	(%rsi), %dx
100006e52:	61  <unknown>
100006e53:	6d 	insl	%dx, %es:(%rdi)
100006e54:	65 20 20 	andb	%ah, %gs:(%rax)
100006e57:	20 20 	andb	%ah, (%rax)
100006e59:	3d 20 27 25 73 	cmpl	$1931814688, %eax
100006e5e:	27  <unknown>
100006e5f:	00 70 72 	addb	%dh, 114(%rax)
100006e62:	6f 	outsl	(%rsi), %dx
100006e63:	66 5f 	popw	%di
100006e65:	64 69 72 20 20 20 20 20 	imull	$538976288, %fs:32(%rdx), %esi
100006e6d:	3d 20 27 25 73 	cmpl	$1931814688, %eax
100006e72:	27  <unknown>
100006e73:	00 44 79 6e 	addb	%al, 110(%rcx,%rdi,2)
100006e77:	61  <unknown>
100006e78:	6d 	insl	%dx, %es:(%rdi)
100006e79:	69 63 20 70 72 6f 66 	imull	$1718579824, 32(%rbx), %esp
100006e80:	69 6c 65 20 63 72 65 61 	imull	$1634038371, 32(%rbp), %ebp
100006e88:	74 65 	je	101 <__cstring+0x98F>
100006e8a:	64 20 66 72 	andb	%ah, %fs:114(%rsi)
100006e8e:	6f 	outsl	(%rsi), %dx
100006e8f:	6d 	insl	%dx, %es:(%rdi)
100006e90:	20 66 69 	andb	%ah, 105(%rsi)
100006e93:	6c 	insb	%dx, %es:(%rdi)
100006e94:	65 20 25 73 20 63 6f 	andb	%ah, %gs:1868767347(%rip)
100006e9b:	6d 	insl	%dx, %es:(%rdi)
100006e9c:	70 6c 	jo	108 <__cstring+0x9AA>
100006e9e:	65 74 65 	je	101 <__cstring+0x9A6>
100006ea1:	64 00 00 	addb	%al, %fs:(%rax)
100006ea4:	54 	pushq	%rsp
100006ea5:	68 65 20 61 6c 	pushq	$1818304613
100006eaa:	6c 	insb	%dx, %es:(%rdi)
100006eab:	6f 	outsl	(%rsi), %dx
100006eac:	77 65 	ja	101 <__cstring+0x9B3>
100006eae:	64 20 70 72 	andb	%dh, %fs:114(%rax)
100006eb2:	6f 	outsl	(%rsi), %dx
100006eb3:	63  <unknown>
100006eb4:	65 73 73 	jae	115 <__cstring+0x9CA>
100006eb7:	6f 	outsl	(%rsi), %dx
100006eb8:	72 73 	jb	115 <__cstring+0x9CD>
100006eba:	20 61 72 	andb	%ah, 114(%rcx)
100006ebd:	65 3a 20 	cmpb	%gs:(%rax), %ah
100006ec0:	25 73 2e 00 45 	andl	$1157639795, %eax
100006ec5:	72 72 	jb	114 <__cstring+0x9D9>
100006ec7:	6f 	outsl	(%rsi), %dx
100006ec8:	72 3a 	jb	58 <__cstring+0x9A4>
100006eca:	20 20 	andb	%ah, (%rax)
100006ecc:	42 75 66 	jne	102 <__cstring+0x9D5>
100006ecf:	66 65 72 20 	jb	32 <__cstring+0x993>
100006ed3:	6f 	outsl	(%rsi), %dx
100006ed4:	76 65 	jbe	101 <__cstring+0x9DB>
100006ed6:	72 72 	jb	114 <__cstring+0x9EA>
100006ed8:	75 6e 	jne	110 <__cstring+0x9E8>
100006eda:	20 6f 63 	andb	%ch, 99(%rdi)
100006edd:	63  <unknown>
100006ede:	75 72 	jne	114 <__cstring+0x9F2>
100006ee0:	72 65 	jb	101 <__cstring+0x9E7>
100006ee2:	64 2c 20 	subb	$32, %al
100006ee5:	66 6f 	outsw	(%rsi), %dx
100006ee7:	72 63 	jb	99 <__cstring+0x9EC>
100006ee9:	65 64 20 65 78 	andb	%ah, %fs:120(%rbp)
100006eee:	69 74 00 00 00 00 49 6e 	imull	$1850277888, (%rax,%rax), %esi
100006ef6:	69 74 69 61 6c 69 7a 61 	imull	$1635412332, 97(%rcx,%rbp,2), %esi
100006efe:	74 69 	je	105 <__cstring+0xA09>
100006f00:	6f 	outsl	(%rsi), %dx
100006f01:	6e 	outsb	(%rsi), %dx
100006f02:	20 6f 66 	andb	%ch, 102(%rdi)
100006f05:	20 73 79 	andb	%dh, 121(%rbx)
100006f08:	6d 	insl	%dx, %es:(%rdi)
100006f09:	62  <unknown>
100006f0a:	6f 	outsl	(%rsi), %dx
100006f0b:	6c 	insb	%dx, %es:(%rdi)
100006f0c:	20 68 61 	andb	%ch, 97(%rax)
100006f0f:	6e 	outsb	(%rsi), %dx
100006f10:	64 6c 	insb	%dx, %es:(%rdi)
100006f12:	65 72 20 	jb	32 <__cstring+0x9D5>
100006f15:	66 61  <unknown>
100006f17:	69 6c 65 64 2e 20 45 72 	imull	$1917132846, 100(%rbp), %ebp
100006f1f:	72 6f 	jb	111 <__cstring+0xA30>
100006f21:	72 20 	jb	32 <__cstring+0x9E3>
100006f23:	63  <unknown>
100006f24:	6f 	outsl	(%rsi), %dx
100006f25:	64 65 20 25 64 00 00 4e 	andb	%ah, %gs:1308622948(%rip)
100006f2d:	54 	pushq	%rsp
100006f2e:	44  <unknown>
100006f2f:	4c  <unknown>
100006f30:	4c 20 6d 6f 	andb	%r13b, 111(%rbp)
100006f34:	64 75 6c 	jne	108 <__cstring+0xA43>
100006f37:	65 20 6e 6f 	andb	%ch, %gs:111(%rsi)
100006f3b:	74 20 	je	32 <__cstring+0x9FD>
100006f3d:	66 6f 	outsw	(%rsi), %dx
100006f3f:	75 6e 	jne	110 <__cstring+0xA4F>
100006f41:	64 00 00 	addb	%al, %fs:(%rax)
100006f44:	52 	pushq	%rdx
100006f45:	74 6c 	je	108 <__cstring+0xA53>
100006f47:	43 61  <unknown>
100006f49:	70 74 	jo	116 <__cstring+0xA5F>
100006f4b:	75 72 	jne	114 <__cstring+0xA5F>
100006f4d:	65 43 6f 	outsl	%gs:(%rsi), %dx
100006f50:	6e 	outsb	(%rsi), %dx
100006f51:	74 65 	je	101 <__cstring+0xA58>
100006f53:	78 74 	js	116 <__cstring+0xA69>
100006f55:	20 66 75 	andb	%ah, 117(%rsi)
100006f58:	6e 	outsb	(%rsi), %dx
100006f59:	63  <unknown>
100006f5a:	74 69 	je	105 <__cstring+0xA65>
100006f5c:	6f 	outsl	(%rsi), %dx
100006f5d:	6e 	outsb	(%rsi), %dx
100006f5e:	20 6e 6f 	andb	%ch, 111(%rsi)
100006f61:	74 20 	je	32 <__cstring+0xA23>
100006f63:	66 6f 	outsw	(%rsi), %dx
100006f65:	75 6e 	jne	110 <__cstring+0xA75>
100006f67:	64 20 69 6e 	andb	%ch, %fs:110(%rcx)
100006f6b:	20 6e 74 	andb	%ch, 116(%rsi)
100006f6e:	64 6c 	insb	%dx, %es:(%rdi)
100006f70:	6c 	insb	%dx, %es:(%rdi)
100006f71:	2e 64 6c 	insb	%dx, %es:(%rdi)
100006f74:	6c 	insb	%dx, %es:(%rdi)
100006f75:	00 00 	addb	%al, (%rax)
100006f77:	00 53 74 	addb	%dl, 116(%rbx)
100006f7a:	61  <unknown>
100006f7b:	63  <unknown>
100006f7c:	6b 57 61 6c 	imull	$108, 97(%rdi), %edx
100006f80:	6b 20 69 	imull	$105, (%rax), %esp
100006f83:	73 20 	jae	32 <__cstring+0xA45>
100006f85:	74 65 	je	101 <__cstring+0xA8C>
100006f87:	72 6d 	jb	109 <__cstring+0xA96>
100006f89:	69 6e 61 74 65 64 20 	imull	$543450484, 97(%rsi), %ebp
100006f90:	61  <unknown>
100006f91:	62  <unknown>
100006f92:	6e 	outsb	(%rsi), %dx
100006f93:	6f 	outsl	(%rsi), %dx
100006f94:	72 6d 	jb	109 <__cstring+0xAA3>
100006f96:	61  <unknown>
100006f97:	6c 	insb	%dx, %es:(%rdi)
100006f98:	6c 	insb	%dx, %es:(%rdi)
100006f99:	79 2e 	jns	46 <__cstring+0xA69>
100006f9b:	20 45 72 	andb	%al, 114(%rbp)
100006f9e:	72 6f 	jb	111 <__cstring+0xAAF>
100006fa0:	72 20 	jb	32 <__cstring+0xA62>
100006fa2:	63  <unknown>
100006fa3:	6f 	outsl	(%rsi), %dx
100006fa4:	64 65 20 25 64 00 00 00 	andb	%ah, %gs:100(%rip)
100006fac:	45 78 63 	js	99 <__cstring+0xAB2>
100006faf:	65 70 74 	jo	116 <__cstring+0xAC6>
100006fb2:	69 6f 6e 20 69 73 20 	imull	$544434464, 110(%rdi), %ebp
100006fb9:	72 61 	jb	97 <__cstring+0xABC>
100006fbb:	69 73 65 64 20 64 75 	imull	$1969496164, 101(%rbx), %esi
100006fc2:	72 69 	jb	105 <__cstring+0xACD>
100006fc4:	6e 	outsb	(%rsi), %dx
100006fc5:	67 20 73 74 	andb	%dh, 116(%ebx)
100006fc9:	61  <unknown>
100006fca:	63  <unknown>
100006fcb:	6b 20 77 	imull	$119, (%rax), %esp
100006fce:	61  <unknown>
100006fcf:	6c 	insb	%dx, %es:(%rdi)
100006fd0:	6b 69 6e 67 	imull	$103, 110(%rcx), %ebp
100006fd4:	00 00 	addb	%al, (%rax)
100006fd6:	00 00 	addb	%al, (%rax)
100006fd8:	53 	pushq	%rbx
100006fd9:	69 67 6e 61 6c 20 25 	imull	$622881889, 110(%rdi), %esp
100006fe0:	73 20 	jae	32 <__cstring+0xAA2>
100006fe2:	69 73 20 72 61 69 73 	imull	$1936286066, 32(%rbx), %esi
100006fe9:	65 64 00 53 69 	addb	%dl, %fs:105(%rbx)
100006fee:	67 6e 	outsb	(%esi), %dx
100006ff0:	61  <unknown>
100006ff1:	6c 	insb	%dx, %es:(%rdi)
100006ff2:	20 25 73 20 69 73 	andb	%ah, 1936269427(%rip)
100006ff8:	20 72 61 	andb	%dh, 97(%rdx)
100006ffb:	69 73 65 64 20 61 74 	imull	$1952522340, 101(%rbx), %esi
100007002:	20 30 	andb	%dh, (%rax)
100007004:	78 25 	js	37 <__cstring+0xACB>
100007006:	70 00 	jo	0 <__cstring+0xAA8>
100007008:	53 	pushq	%rbx
100007009:	49  <unknown>
10000700a:	47 53 	pushq	%r11
10000700c:	45  <unknown>
10000700d:	47 56 	pushq	%r14
10000700f:	00 53 49 	addb	%dl, 73(%rbx)
100007012:	47  <unknown>
100007013:	49  <unknown>
100007014:	4c  <unknown>
100007015:	4c 00 00 	addb	%r8b, (%rax)
100007018:	53 	pushq	%rbx
100007019:	49  <unknown>
10000701a:	47  <unknown>
10000701b:	42 55 	pushq	%rbp
10000701d:	53 	pushq	%rbx
10000701e:	00 00 	addb	%al, (%rax)
100007020:	53 	pushq	%rbx
100007021:	49  <unknown>
100007022:	47  <unknown>
100007023:	46 50 	pushq	%rax
100007025:	45 00 00 	addb	%r8b, (%r8)
100007028:	75 6e 	jne	110 <__cstring+0xB38>
10000702a:	6b 6e 6f 77 	imull	$119, 111(%rsi), %ebp
10000702e:	6e 	outsb	(%rsi), %dx
10000702f:	00 4e 6f 	addb	%cl, 111(%rsi)
100007032:	20 65 72 	andb	%ah, 114(%rbp)
100007035:	72 6f 	jb	111 <__cstring+0xB46>
100007037:	72 00 	jb	0 <__cstring+0xAD9>
100007039:	00 00 	addb	%al, (%rax)
10000703b:	00 59 6f 	addb	%bl, 111(%rcx)
10000703e:	75 20 	jne	32 <__cstring+0xB00>
100007040:	6d 	insl	%dx, %es:(%rdi)
100007041:	75 73 	jne	115 <__cstring+0xB56>
100007043:	74 20 	je	32 <__cstring+0xB05>
100007045:	6c 	insb	%dx, %es:(%rdi)
100007046:	69 6e 6b 20 77 69 74 	imull	$1953068832, 107(%rsi), %ebp
10000704d:	68 20 6c 69 62 	pushq	$1651076128
100007052:	75 6e 	jne	110 <__cstring+0xB62>
100007054:	77 69 	ja	105 <__cstring+0xB5F>
100007056:	6e 	outsb	(%rsi), %dx
100007057:	64 20 74 6f 20 	andb	%dh, %fs:32(%rdi,%rbp,2)
10000705c:	75 73 	jne	115 <__cstring+0xB71>
10000705e:	65 20 74 72 61 	andb	%dh, %gs:97(%rdx,%rsi,2)
100007063:	63  <unknown>
100007064:	65 62  <unknown>
100007066:	61  <unknown>
100007067:	63  <unknown>
100007068:	6b 20 66 	imull	$102, (%rax), %esp
10000706b:	75 6e 	jne	110 <__cstring+0xB7B>
10000706d:	63  <unknown>
10000706e:	74 69 	je	105 <__cstring+0xB79>
100007070:	6f 	outsl	(%rsi), %dx
100007071:	6e 	outsb	(%rsi), %dx
100007072:	61  <unknown>
100007073:	6c 	insb	%dx, %es:(%rdi)
100007074:	69 74 79 00 49 6e 74 65 	imull	$1702129225, (%rcx,%rdi,2), %esi
10000707c:	6c 	insb	%dx, %es:(%rdi)
10000707d:	28 52 29 	subb	%dl, 41(%rdx)
100007080:	20 50 65 	andb	%dl, 101(%rax)
100007083:	6e 	outsb	(%rsi), %dx
100007084:	74 69 	je	105 <__cstring+0xB8F>
100007086:	75 6d 	jne	109 <__cstring+0xB95>
100007088:	28 52 29 	subb	%dl, 41(%rdx)
10000708b:	20 4d 20 	andb	%cl, 32(%rbp)
10000708e:	61  <unknown>
10000708f:	6e 	outsb	(%rsi), %dx
100007090:	64 20 63 6f 	andb	%ah, %fs:111(%rbx)
100007094:	6d 	insl	%dx, %es:(%rdi)
100007095:	70 61 	jo	97 <__cstring+0xB98>
100007097:	74 69 	je	105 <__cstring+0xBA2>
100007099:	62  <unknown>
10000709a:	6c 	insb	%dx, %es:(%rdi)
10000709b:	65 20 49 6e 	andb	%cl, %gs:110(%rcx)
10000709f:	74 65 	je	101 <__cstring+0xBA6>
1000070a1:	6c 	insb	%dx, %es:(%rdi)
1000070a2:	20 70 72 	andb	%dh, 114(%rax)
1000070a5:	6f 	outsl	(%rsi), %dx
1000070a6:	63  <unknown>
1000070a7:	65 73 73 	jae	115 <__cstring+0xBBD>
1000070aa:	6f 	outsl	(%rsi), %dx
1000070ab:	72 73 	jb	115 <__cstring+0xBC0>
1000070ad:	00 00 	addb	%al, (%rax)
1000070af:	00 49 6e 	addb	%cl, 110(%rcx)
1000070b2:	74 65 	je	101 <__cstring+0xBB9>
1000070b4:	6c 	insb	%dx, %es:(%rdi)
1000070b5:	28 52 29 	subb	%dl, 41(%rdx)
1000070b8:	20 70 72 	andb	%dh, 114(%rax)
1000070bb:	6f 	outsl	(%rsi), %dx
1000070bc:	63  <unknown>
1000070bd:	65 73 73 	jae	115 <__cstring+0xBD3>
1000070c0:	6f 	outsl	(%rsi), %dx
1000070c1:	72 73 	jb	115 <__cstring+0xBD6>
1000070c3:	20 77 69 	andb	%dh, 105(%rdi)
1000070c6:	74 68 	je	104 <__cstring+0xBD0>
1000070c8:	20 53 77 	andb	%dl, 119(%rbx)
1000070cb:	69 6e 67 20 4e 65 77 	imull	$2003127840, 103(%rsi), %ebp
1000070d2:	20 49 6e 	andb	%cl, 110(%rcx)
1000070d5:	73 74 	jae	116 <__cstring+0xBEB>
1000070d7:	72 75 	jb	117 <__cstring+0xBEE>
1000070d9:	63  <unknown>
1000070da:	74 69 	je	105 <__cstring+0xBE5>
1000070dc:	6f 	outsl	(%rsi), %dx
1000070dd:	6e 	outsb	(%rsi), %dx
1000070de:	73 20 	jae	32 <__cstring+0xBA0>
1000070e0:	73 75 	jae	117 <__cstring+0xBF7>
1000070e2:	70 70 	jo	112 <__cstring+0xBF4>
1000070e4:	6f 	outsl	(%rsi), %dx
1000070e5:	72 74 	jb	116 <__cstring+0xBFB>
1000070e7:	00 49 6e 	addb	%cl, 110(%rcx)
1000070ea:	74 65 	je	101 <__cstring+0xBF1>
1000070ec:	6c 	insb	%dx, %es:(%rdi)
1000070ed:	28 52 29 	subb	%dl, 41(%rdx)
1000070f0:	20 70 72 	andb	%dh, 114(%rax)
1000070f3:	6f 	outsl	(%rsi), %dx
1000070f4:	63  <unknown>
1000070f5:	65 73 73 	jae	115 <__cstring+0xC0B>
1000070f8:	6f 	outsl	(%rsi), %dx
1000070f9:	72 73 	jb	115 <__cstring+0xC0E>
1000070fb:	20 77 69 	andb	%dh, 105(%rdi)
1000070fe:	74 68 	je	104 <__cstring+0xC08>
100007100:	20 4d 4f 	andb	%cl, 79(%rbp)
100007103:	56 	pushq	%rsi
100007104:	42  <unknown>
100007105:	45 20 69 6e 	andb	%r13b, 110(%r9)
100007109:	73 74 	jae	116 <__cstring+0xC1F>
10000710b:	72 75 	jb	117 <__cstring+0xC22>
10000710d:	63  <unknown>
10000710e:	74 69 	je	105 <__cstring+0xC19>
100007110:	6f 	outsl	(%rsi), %dx
100007111:	6e 	outsb	(%rsi), %dx
100007112:	73 20 	jae	32 <__cstring+0xBD4>
100007114:	73 75 	jae	117 <__cstring+0xC2B>
100007116:	70 70 	jo	112 <__cstring+0xC28>
100007118:	6f 	outsl	(%rsi), %dx
100007119:	72 74 	jb	116 <__cstring+0xC2F>
10000711b:	00 46 61 	addb	%al, 97(%rsi)
10000711e:	74 61 	je	97 <__cstring+0xC21>
100007120:	6c 	insb	%dx, %es:(%rdi)
100007121:	20 45 72 	andb	%al, 114(%rbp)
100007124:	72 6f 	jb	111 <__cstring+0xC35>
100007126:	72 3a 	jb	58 <__cstring+0xC02>
100007128:	20 54 68 69 	andb	%dl, 105(%rax,%rbp,2)
10000712c:	73 20 	jae	32 <__cstring+0xBEE>
10000712e:	70 72 	jo	114 <__cstring+0xC42>
100007130:	6f 	outsl	(%rsi), %dx
100007131:	67 72 61 	jb	97 <__cstring+0xC35>
100007134:	6d 	insl	%dx, %es:(%rdi)
100007135:	20 77 61 	andb	%dh, 97(%rdi)
100007138:	73 20 	jae	32 <__cstring+0xBFA>
10000713a:	6e 	outsb	(%rsi), %dx
10000713b:	6f 	outsl	(%rsi), %dx
10000713c:	74 20 	je	32 <__cstring+0xBFE>
10000713e:	62  <unknown>
10000713f:	75 69 	jne	105 <__cstring+0xC4A>
100007141:	6c 	insb	%dx, %es:(%rdi)
100007142:	74 20 	je	32 <__cstring+0xC04>
100007144:	74 6f 	je	111 <__cstring+0xC55>
100007146:	20 72 75 	andb	%dh, 117(%rdx)
100007149:	6e 	outsb	(%rsi), %dx
10000714a:	20 69 6e 	andb	%ch, 110(%rcx)
10000714d:	20 79 6f 	andb	%bh, 111(%rcx)
100007150:	75 72 	jne	114 <__cstring+0xC64>
100007152:	20 73 79 	andb	%dh, 121(%rbx)
100007155:	73 74 	jae	116 <__cstring+0xC6B>
100007157:	65 6d 	insl	%dx, %es:(%rdi)
100007159:	2e 00 00 	addb	%al, %cs:(%rax)
10000715c:	42 6f 	outsl	(%rsi), %dx
10000715e:	75 6e 	jne	110 <__cstring+0xC6E>
100007160:	64 61  <unknown>
100007162:	72 79 	jb	121 <__cstring+0xC7D>
100007164:	20 52 75 	andb	%dl, 117(%rdx)
100007167:	6e 	outsb	(%rsi), %dx
100007168:	2d 54 69 6d 65 	subl	$1701669204, %eax
10000716d:	20 43 68 	andb	%al, 104(%rbx)
100007170:	65 63  <unknown>
100007172:	6b 20 46 	imull	$70, (%rax), %esp
100007175:	61  <unknown>
100007176:	69 6c 75 72 65 20 66 6f 	imull	$1868963941, 114(%rbp,%rsi,2), %ebp
10000717e:	72 20 	jb	32 <__cstring+0xC40>
100007180:	76 61 	jbe	97 <__cstring+0xC83>
100007182:	72 69 	jb	105 <__cstring+0xC8D>
100007184:	61  <unknown>
100007185:	62  <unknown>
100007186:	6c 	insb	%dx, %es:(%rdi)
100007187:	65 20 27 	andb	%ah, %gs:(%rdi)
10000718a:	25 73 27 00 00 	andl	$10099, %eax
10000718f:	00 42 6f 	addb	%al, 111(%rdx)
100007192:	75 6e 	jne	110 <__cstring+0xCA2>
100007194:	64 61  <unknown>
100007196:	72 79 	jb	121 <__cstring+0xCB1>
100007198:	20 52 75 	andb	%dl, 117(%rdx)
10000719b:	6e 	outsb	(%rsi), %dx
10000719c:	2d 54 69 6d 65 	subl	$1701669204, %eax
1000071a1:	20 43 68 	andb	%al, 104(%rbx)
1000071a4:	65 63  <unknown>
1000071a6:	6b 20 46 	imull	$70, (%rax), %esp
1000071a9:	61  <unknown>
1000071aa:	69 6c 75 72 65 00 43 6f 	imull	$1866661989, 114(%rbp,%rsi,2), %ebp
1000071b2:	6e 	outsb	(%rsi), %dx
1000071b3:	76 65 	jbe	101 <__cstring+0xCBA>
1000071b5:	72 73 	jb	115 <__cstring+0xCCA>
1000071b7:	69 6f 6e 20 52 75 6e 	imull	$1853182496, 110(%rdi), %ebp
1000071be:	2d 54 69 6d 65 	subl	$1701669204, %eax
1000071c3:	20 43 68 	andb	%al, 104(%rbx)
1000071c6:	65 63  <unknown>
1000071c8:	6b 20 46 	imull	$70, (%rax), %esp
1000071cb:	61  <unknown>
1000071cc:	69 6c 75 72 65 00 00 00 	imull	$101, 114(%rbp,%rsi,2), %ebp
1000071d4:	20 61 6e 	andb	%ah, 110(%rcx)
1000071d7:	64 20 00 	andb	%al, %fs:(%rax)
1000071da:	00 00 	addb	%al, (%rax)
1000071dc:	00 00 	addb	%al, (%rax)
1000071de:	00 00 	addb	%al, (%rax)
1000071e0:	4c  <unknown>
1000071e1:	41  <unknown>
1000071e2:	4e  <unknown>
1000071e3:	47 00 00 	addb	%r8b, (%r8)
1000071e6:	00 00 	addb	%al, (%rax)
1000071e8:	47  <unknown>
1000071e9:	45  <unknown>
1000071ea:	4e  <unknown>
1000071eb:	45 52 	pushq	%r10
1000071ed:	49  <unknown>
1000071ee:	43 5f 	popq	%r15
1000071f0:	49  <unknown>
1000071f1:	41 33 32 	xorl	(%r10), %esi
1000071f4:	00 00 	addb	%al, (%rax)
1000071f6:	00 00 	addb	%al, (%rax)
1000071f8:	58 	popq	%rax
1000071f9:	38 37 	cmpb	%dh, (%rdi)
1000071fb:	00 43 4d 	addb	%al, 77(%rbx)
1000071fe:	4f 56 	pushq	%r14
100007200:	00 00 	addb	%al, (%rax)
100007202:	00 00 	addb	%al, (%rax)
100007204:	4d  <unknown>
100007205:	4d 58 	popq	%r8
100007207:	00 46 58 	addb	%al, 88(%rsi)
10000720a:	53 	pushq	%rbx
10000720b:	41 56 	pushq	%r14
10000720d:	45 00 00 	addb	%r8b, (%r8)
100007210:	53 	pushq	%rbx
100007211:	53 	pushq	%rbx
100007212:	45 00 53 53 	addb	%r10b, 83(%r11)
100007216:	45 32 00 	xorb	(%r8), %r8b
100007219:	00 00 	addb	%al, (%rax)
10000721b:	00 53 53 	addb	%dl, 83(%rbx)
10000721e:	45 33 00 	xorl	(%r8), %r8d
100007221:	00 00 	addb	%al, (%rax)
100007223:	00 53 53 	addb	%dl, 83(%rbx)
100007226:	53 	pushq	%rbx
100007227:	45 33 00 	xorl	(%r8), %r8d
10000722a:	00 00 	addb	%al, (%rax)
10000722c:	53 	pushq	%rbx
10000722d:	53 	pushq	%rbx
10000722e:	45 34 5f 	xorb	$95, %al
100007231:	31 00 	xorl	%eax, (%rax)
100007233:	00 53 53 	addb	%dl, 83(%rbx)
100007236:	45 34 5f 	xorb	$95, %al
100007239:	32 00 	xorb	(%rax), %al
10000723b:	00 4d 4f 	addb	%cl, 79(%rbp)
10000723e:	56 	pushq	%rsi
10000723f:	42  <unknown>
100007240:	45 00 00 	addb	%r8b, (%r8)
100007243:	00 50 4f 	addb	%dl, 79(%rax)
100007246:	50 	pushq	%rax
100007247:	43  <unknown>
100007248:	4e 54 	pushq	%rsp
10000724a:	00 00 	addb	%al, (%rax)
10000724c:	50 	pushq	%rax
10000724d:	43  <unknown>
10000724e:	4c  <unknown>
10000724f:	4d 55 	pushq	%r13
100007251:	4c 51 	pushq	%rcx
100007253:	44 51 	pushq	%rcx
100007255:	00 00 	addb	%al, (%rax)
100007257:	00 41 45 	addb	%al, 69(%rcx)
10000725a:	53 	pushq	%rbx
10000725b:	00 46 31 	addb	%al, 49(%rsi)
10000725e:	36 43 00 00 	addb	%al, %ss:(%r8)
100007262:	00 00 	addb	%al, (%rax)
100007264:	41 56 	pushq	%r14
100007266:	58 	popq	%rax
100007267:	00 52 44 	addb	%dl, 68(%rdx)
10000726a:	52 	pushq	%rdx
10000726b:	4e  <unknown>
10000726c:	44 00 00 	addb	%r8b, (%rax)
10000726f:	00 46 4d 	addb	%al, 77(%rsi)
100007272:	41 00 42 4d 	addb	%al, 77(%r10)
100007276:	49 00 4c 5a 43 	addb	%cl, 67(%r10,%rbx,2)
10000727b:	4e 54 	pushq	%rsp
10000727d:	00 00 	addb	%al, (%rax)
10000727f:	00 48 4c 	addb	%cl, 76(%rax)
100007282:	45 00 52 54 	addb	%r10b, 84(%r10)
100007286:	4d 00 41 56 	addb	%r8b, 86(%r9)
10000728a:	58 	popq	%rax
10000728b:	32 00 	xorb	(%rax), %al
10000728d:	00 00 	addb	%al, (%rax)
10000728f:	00 41 56 	addb	%al, 86(%rcx)
100007292:	58 	popq	%rax
100007293:	35 31 32 44 51 	xorl	$1363423793, %eax
100007298:	00 00 	addb	%al, (%rax)
10000729a:	00 00 	addb	%al, (%rax)
10000729c:	4b  <unknown>
10000729d:	4e  <unknown>
10000729e:	43  <unknown>
10000729f:	4e  <unknown>
1000072a0:	49 00 00 	addb	%al, (%r8)
1000072a3:	00 41 56 	addb	%al, 86(%rcx)
1000072a6:	58 	popq	%rax
1000072a7:	35 31 32 46 00 	xorl	$4600369, %eax
1000072ac:	41  <unknown>
1000072ad:	44 58 	popq	%rax
1000072af:	00 52 44 	addb	%dl, 68(%rdx)
1000072b2:	53 	pushq	%rbx
1000072b3:	45  <unknown>
1000072b4:	45  <unknown>
1000072b5:	44 00 00 	addb	%r8b, (%rax)
1000072b8:	41 56 	pushq	%r14
1000072ba:	58 	popq	%rax
1000072bb:	35 31 32 49 46 	xorl	$1179202097, %eax
1000072c0:	4d  <unknown>
1000072c1:	41 35 32 00 00 00 	xorl	$50, %eax
1000072c7:	00 46 55 	addb	%al, 85(%rsi)
1000072ca:	4c  <unknown>
1000072cb:	4c 59 	popq	%rcx
1000072cd:	20 49 4e 	andb	%cl, 78(%rcx)
1000072d0:	4f 52 	pushq	%r10
1000072d2:	44  <unknown>
1000072d3:	45 52 	pushq	%r10
1000072d5:	20 50 52 	andb	%dl, 82(%rax)
1000072d8:	4f  <unknown>
1000072d9:	43  <unknown>
1000072da:	45 53 	pushq	%r11
1000072dc:	53 	pushq	%rbx
1000072dd:	4f 52 	pushq	%r10
1000072df:	00 41 56 	addb	%al, 86(%rcx)
1000072e2:	58 	popq	%rax
1000072e3:	35 31 32 45 52 	xorl	$1380266545, %eax
1000072e8:	00 00 	addb	%al, (%rax)
1000072ea:	00 00 	addb	%al, (%rax)
1000072ec:	41 56 	pushq	%r14
1000072ee:	58 	popq	%rax
1000072ef:	35 31 32 50 46 	xorl	$1179660849, %eax
1000072f4:	00 00 	addb	%al, (%rax)
1000072f6:	00 00 	addb	%al, (%rax)
1000072f8:	41 56 	pushq	%r14
1000072fa:	58 	popq	%rax
1000072fb:	35 31 32 43 44 	xorl	$1145254449, %eax
100007300:	00 00 	addb	%al, (%rax)
100007302:	00 00 	addb	%al, (%rax)
100007304:	53 	pushq	%rbx
100007305:	48  <unknown>
100007306:	41 00 4d 50 	addb	%cl, 80(%r13)
10000730a:	58 	popq	%rax
10000730b:	00 41 56 	addb	%al, 86(%rcx)
10000730e:	58 	popq	%rax
10000730f:	35 31 32 42 57 	xorl	$1463956017, %eax
100007314:	00 00 	addb	%al, (%rax)
100007316:	00 00 	addb	%al, (%rax)
100007318:	41 56 	pushq	%r14
10000731a:	58 	popq	%rax
10000731b:	35 31 32 56 4c 	xorl	$1280717361, %eax
100007320:	00 00 	addb	%al, (%rax)
100007322:	00 00 	addb	%al, (%rax)
100007324:	41 56 	pushq	%r14
100007326:	58 	popq	%rax
100007327:	35 31 32 56 42 	xorl	$1112945201, %eax
10000732c:	4d  <unknown>
10000732d:	49 00 00 	addb	%al, (%r8)
100007330:	41 56 	pushq	%r14
100007332:	58 	popq	%rax
100007333:	35 31 32 5f 34 	xorl	$878654001, %eax
100007338:	46  <unknown>
100007339:	4d  <unknown>
10000733a:	41 50 	pushq	%r8
10000733c:	53 	pushq	%rbx
10000733d:	00 00 	addb	%al, (%rax)
10000733f:	00 41 56 	addb	%al, 86(%rcx)
100007342:	58 	popq	%rax
100007343:	35 31 32 5f 34 	xorl	$878654001, %eax
100007348:	56 	pushq	%rsi
100007349:	4e  <unknown>
10000734a:	4e  <unknown>
10000734b:	49 57 	pushq	%r15
10000734d:	00 00 	addb	%al, (%rax)
10000734f:	00 41 56 	addb	%al, 86(%rcx)
100007352:	58 	popq	%rax
100007353:	35 31 32 5f 56 	xorl	$1449079345, %eax
100007358:	50 	pushq	%rax
100007359:	4f 50 	pushq	%r8
10000735b:	43  <unknown>
10000735c:	4e 54 	pushq	%rsp
10000735e:	44 51 	pushq	%rcx
100007360:	00 00 	addb	%al, (%rax)
100007362:	00 00 	addb	%al, (%rax)
100007364:	2c 20 	subb	$32, %al
100007366:	00  <unknown>
Disassembly of section __TEXT,__const:
__const:
100007380:	51 	pushq	%rcx
100007381:	01 3e 	addl	%edi, (%rsi)
100007383:	01 29 	addl	%ebp, (%rcx)
100007385:	01 14 01 	addl	%edx, (%rcx,%rax)
100007388:	ff 00 	incl	(%rax)
10000738a:	ea  <unknown>
10000738b:	00 d5 	addb	%dl, %ch
10000738d:	00 c0 	addb	%al, %al
10000738f:	00 a8 00 90 00 78 	addb	%ch, 2013302784(%rax)
100007395:	00 60 00 	addb	%ah, (%rax)
100007398:	48 00 30 	addb	%sil, (%rax)
10000739b:	00 18 	addb	%bl, (%rax)
10000739d:	00 00 	addb	%al, (%rax)
10000739f:	00 67 62 	addb	%ah, 98(%rdi)
1000073a2:	5b 	popq	%rbx
1000073a3:	54 	pushq	%rsp
1000073a4:	4d  <unknown>
1000073a5:	46 3f  <unknown>
1000073a7:	38 31 	cmpb	%dh, (%rcx)
1000073a9:	2a 23 	subb	(%rbx), %ah
1000073ab:	1c 15 	sbbb	$21, %al
1000073ad:	0e  <unknown>
1000073ae:	07  <unknown>
1000073af:	00 67 62 	addb	%ah, 98(%rdi)
1000073b2:	5b 	popq	%rbx
1000073b3:	54 	pushq	%rsp
1000073b4:	4d  <unknown>
1000073b5:	46 3f  <unknown>
1000073b7:	38 31 	cmpb	%dh, (%rcx)
1000073b9:	2a 23 	subb	(%rbx), %ah
1000073bb:	1c 15 	sbbb	$21, %al
1000073bd:	0e  <unknown>
1000073be:	07  <unknown>
1000073bf:	00 20 	addb	%ah, (%rax)
1000073c1:	20 20 	andb	%ah, (%rax)
1000073c3:	20 20 	andb	%ah, (%rax)
1000073c5:	20 20 	andb	%ah, (%rax)
1000073c7:	20 20 	andb	%ah, (%rax)
1000073c9:	20 20 	andb	%ah, (%rax)
1000073cb:	20 20 	andb	%ah, (%rax)
1000073cd:	20 20 	andb	%ah, (%rax)
1000073cf:	20 00 	andb	%al, (%rax)
1000073d1:	00 00 	addb	%al, (%rax)
1000073d3:	00 00 	addb	%al, (%rax)
1000073d5:	00 00 	addb	%al, (%rax)
1000073d7:	00 00 	addb	%al, (%rax)
1000073d9:	00 00 	addb	%al, (%rax)
1000073db:	00 00 	addb	%al, (%rax)
1000073dd:	00 00 	addb	%al, (%rax)
1000073df:	00 80 96 98 00 40 	addb	%al, 1073780886(%rax)

___libirc_factors_64:
1000073e0:	80 96 98 00 40 42 0f 	adcb	$15, 1111490712(%rsi)
1000073e7:	00 a0 86 01 00 10 	addb	%ah, 268435846(%rax)
1000073ed:	27  <unknown>
1000073ee:	00 00 	addb	%al, (%rax)
1000073f0:	e8 03 00 00 64 	callq	1677721603 <___intel_cpu_feature_indicator_x+0x63FFE4B0>
1000073f5:	00 00 	addb	%al, (%rax)
1000073f7:	00 0a 	addb	%cl, (%rdx)
1000073f9:	00 00 	addb	%al, (%rax)
1000073fb:	00 01 	addb	%al, (%rcx)
1000073fd:	00 00 	addb	%al, (%rax)
1000073ff:	00 80 96 98 00 40 	addb	%al, 1073780886(%rax)
100007405:	42 0f 00 a0 86 01 00 10 	verr	268435846(%rax)
10000740d:	27  <unknown>
10000740e:	00 00 	addb	%al, (%rax)
100007410:	e8 03 00 00 64 	callq	1677721603 <___intel_cpu_feature_indicator_x+0x63FFE4D0>
100007415:	00 00 	addb	%al, (%rax)
100007417:	00 0a 	addb	%cl, (%rdx)
100007419:	00 00 	addb	%al, (%rax)
10000741b:	00 01 	addb	%al, (%rcx)
10000741d:	00 00 	addb	%al, (%rax)
10000741f:	00 80 96 98 00 40 	addb	%al, 1073780886(%rax)

___libirc_factors:
100007420:	80 96 98 00 40 42 0f 	adcb	$15, 1111490712(%rsi)
100007427:	00 a0 86 01 00 10 	addb	%ah, 268435846(%rax)
10000742d:	27  <unknown>
10000742e:	00 00 	addb	%al, (%rax)
100007430:	e8 03 00 00 64 	callq	1677721603 <___intel_cpu_feature_indicator_x+0x63FFE4F0>
100007435:	00 00 	addb	%al, (%rax)
100007437:	00 0a 	addb	%cl, (%rdx)
100007439:	00 00 	addb	%al, (%rax)
10000743b:	00 01 	addb	%al, (%rcx)
10000743d:	00 00 	addb	%al, (%rax)
10000743f:	00 0a 	addb	%cl, (%rdx)
100007441:	00 00 	addb	%al, (%rax)
100007443:	00 01 	addb	%al, (%rcx)
100007445:	00 00 	addb	%al, (%rax)
100007447:	00 00 	addb	%al, (%rax)
100007449:	00 00 	addb	%al, (%rax)
10000744b:	00 00 	addb	%al, (%rax)
10000744d:	00 00 	addb	%al, (%rax)
10000744f:	00 00 	addb	%al, (%rax)
100007451:	00 00 	addb	%al, (%rax)
100007453:	00 00 	addb	%al, (%rax)
100007455:	00 00 	addb	%al, (%rax)
100007457:	00 00 	addb	%al, (%rax)
100007459:	00 00 	addb	%al, (%rax)
10000745b:	00 00 	addb	%al, (%rax)
10000745d:	00 00 	addb	%al, (%rax)
10000745f:	00 ff 	addb	%bh, %bh

___libirc_excess_vecs:
100007460:	ff 00 	incl	(%rax)
100007462:	00 00 	addb	%al, (%rax)
100007464:	00 00 	addb	%al, (%rax)
100007466:	00 00 	addb	%al, (%rax)
100007468:	00 00 	addb	%al, (%rax)
10000746a:	00 00 	addb	%al, (%rax)
10000746c:	00 00 	addb	%al, (%rax)
10000746e:	00 00 	addb	%al, (%rax)
100007470:	ff ff  <unknown>
100007472:	00 00 	addb	%al, (%rax)
100007474:	00 00 	addb	%al, (%rax)
100007476:	00 00 	addb	%al, (%rax)
100007478:	00 00 	addb	%al, (%rax)
10000747a:	00 00 	addb	%al, (%rax)
10000747c:	00 00 	addb	%al, (%rax)
10000747e:	00 00 	addb	%al, (%rax)
100007480:	ff ff  <unknown>
100007482:	ff 00 	incl	(%rax)
100007484:	00 00 	addb	%al, (%rax)
100007486:	00 00 	addb	%al, (%rax)
100007488:	00 00 	addb	%al, (%rax)
10000748a:	00 00 	addb	%al, (%rax)
10000748c:	00 00 	addb	%al, (%rax)
10000748e:	00 00 	addb	%al, (%rax)
100007490:	ff ff  <unknown>
100007492:	ff ff  <unknown>
100007494:	00 00 	addb	%al, (%rax)
100007496:	00 00 	addb	%al, (%rax)
100007498:	00 00 	addb	%al, (%rax)
10000749a:	00 00 	addb	%al, (%rax)
10000749c:	00 00 	addb	%al, (%rax)
10000749e:	00 00 	addb	%al, (%rax)
1000074a0:	ff ff  <unknown>
1000074a2:	ff ff  <unknown>
1000074a4:	ff 00 	incl	(%rax)
1000074a6:	00 00 	addb	%al, (%rax)
1000074a8:	00 00 	addb	%al, (%rax)
1000074aa:	00 00 	addb	%al, (%rax)
1000074ac:	00 00 	addb	%al, (%rax)
1000074ae:	00 00 	addb	%al, (%rax)
1000074b0:	ff ff  <unknown>
1000074b2:	ff ff  <unknown>
1000074b4:	ff ff  <unknown>
1000074b6:	00 00 	addb	%al, (%rax)
1000074b8:	00 00 	addb	%al, (%rax)
1000074ba:	00 00 	addb	%al, (%rax)
1000074bc:	00 00 	addb	%al, (%rax)
1000074be:	00 00 	addb	%al, (%rax)
1000074c0:	ff ff  <unknown>
1000074c2:	ff ff  <unknown>
1000074c4:	ff ff  <unknown>
1000074c6:	ff 00 	incl	(%rax)
1000074c8:	00 00 	addb	%al, (%rax)
1000074ca:	00 00 	addb	%al, (%rax)
1000074cc:	00 00 	addb	%al, (%rax)
1000074ce:	00 00 	addb	%al, (%rax)
1000074d0:	ff ff  <unknown>
1000074d2:	ff ff  <unknown>
1000074d4:	ff ff  <unknown>
1000074d6:	ff ff  <unknown>
1000074d8:	00 00 	addb	%al, (%rax)
1000074da:	00 00 	addb	%al, (%rax)
1000074dc:	00 00 	addb	%al, (%rax)
1000074de:	00 00 	addb	%al, (%rax)
1000074e0:	ff ff  <unknown>
1000074e2:	ff ff  <unknown>
1000074e4:	ff ff  <unknown>
1000074e6:	ff ff  <unknown>
1000074e8:	ff 00 	incl	(%rax)
1000074ea:	00 00 	addb	%al, (%rax)
1000074ec:	00 00 	addb	%al, (%rax)
1000074ee:	00 00 	addb	%al, (%rax)
1000074f0:	ff ff  <unknown>
1000074f2:	ff ff  <unknown>
1000074f4:	ff ff  <unknown>
1000074f6:	ff ff  <unknown>
1000074f8:	ff ff  <unknown>
1000074fa:	00 00 	addb	%al, (%rax)
1000074fc:	00 00 	addb	%al, (%rax)
1000074fe:	00 00 	addb	%al, (%rax)
100007500:	ff ff  <unknown>
100007502:	ff ff  <unknown>
100007504:	ff ff  <unknown>
100007506:	ff ff  <unknown>
100007508:	ff ff  <unknown>
10000750a:	ff 00 	incl	(%rax)
10000750c:	00 00 	addb	%al, (%rax)
10000750e:	00 00 	addb	%al, (%rax)
100007510:	ff ff  <unknown>
100007512:	ff ff  <unknown>
100007514:	ff ff  <unknown>
100007516:	ff ff  <unknown>
100007518:	ff ff  <unknown>
10000751a:	ff ff  <unknown>
10000751c:	00 00 	addb	%al, (%rax)
10000751e:	00 00 	addb	%al, (%rax)
100007520:	ff ff  <unknown>
100007522:	ff ff  <unknown>
100007524:	ff ff  <unknown>
100007526:	ff ff  <unknown>
100007528:	ff ff  <unknown>
10000752a:	ff ff  <unknown>
10000752c:	ff 00 	incl	(%rax)
10000752e:	00 00 	addb	%al, (%rax)
100007530:	ff ff  <unknown>
100007532:	ff ff  <unknown>
100007534:	ff ff  <unknown>
100007536:	ff ff  <unknown>
100007538:	ff ff  <unknown>
10000753a:	ff ff  <unknown>
10000753c:	ff ff  <unknown>
10000753e:	00 00 	addb	%al, (%rax)
100007540:	ff ff  <unknown>
100007542:	ff ff  <unknown>
100007544:	ff ff  <unknown>
100007546:	ff ff  <unknown>
100007548:	ff ff  <unknown>
10000754a:	ff ff  <unknown>
10000754c:	ff ff  <unknown>
10000754e:	ff 00 	incl	(%rax)
100007550:	ff ff  <unknown>
100007552:	ff ff  <unknown>
100007554:	ff ff  <unknown>
100007556:	ff ff  <unknown>
100007558:	ff ff  <unknown>
10000755a:	ff ff  <unknown>
10000755c:	ff ff  <unknown>
10000755e:	ff ff  <unknown>

___libirc_spaces_vec:
100007560:	09 0a 	orl	%ecx, (%rdx)
100007562:	0b 0c 0d 20 00 00 00 	orl	32(,%rcx), %ecx
100007569:	00 00 	addb	%al, (%rax)
10000756b:	00 00 	addb	%al, (%rax)
10000756d:	00 00 	addb	%al, (%rax)
10000756f:	00 30 	addb	%dh, (%rax)

___libirc_dig_range_vec:
100007570:	30 39 	xorb	%bh, (%rcx)
100007572:	30 39 	xorb	%bh, (%rcx)
100007574:	30 39 	xorb	%bh, (%rcx)
100007576:	30 39 	xorb	%bh, (%rcx)
100007578:	30 39 	xorb	%bh, (%rcx)
10000757a:	30 39 	xorb	%bh, (%rcx)
10000757c:	30 39 	xorb	%bh, (%rcx)
10000757e:	30 39 	xorb	%bh, (%rcx)

___libirc_zero_vec:
100007580:	30 30 	xorb	%dh, (%rax)
100007582:	30 30 	xorb	%dh, (%rax)
100007584:	30 30 	xorb	%dh, (%rax)
100007586:	30 30 	xorb	%dh, (%rax)
100007588:	30 30 	xorb	%dh, (%rax)
10000758a:	30 30 	xorb	%dh, (%rax)
10000758c:	30 30 	xorb	%dh, (%rax)
10000758e:	30 30 	xorb	%dh, (%rax)

___libirc_byte_factor_64:
100007590:	0a 01 	orb	(%rcx), %al
100007592:	0a 01 	orb	(%rcx), %al
100007594:	0a 01 	orb	(%rcx), %al
100007596:	0a 01 	orb	(%rcx), %al
100007598:	0a 01 	orb	(%rcx), %al
10000759a:	0a 01 	orb	(%rcx), %al
10000759c:	0a 01 	orb	(%rcx), %al
10000759e:	0a 01 	orb	(%rcx), %al

___libirc_word_factor_64:
1000075a0:	64 00 01 	addb	%al, %fs:(%rcx)
1000075a3:	00 64 00 01 	addb	%ah, 1(%rax,%rax)
1000075a7:	00 64 00 01 	addb	%ah, 1(%rax,%rax)
1000075ab:	00 64 00 01 	addb	%ah, 1(%rax,%rax)
1000075af:	00 10 	addb	%dl, (%rax)

___libirc_dword_factor_64:
1000075b0:	10 27 	adcb	%ah, (%rdi)
1000075b2:	00 00 	addb	%al, (%rax)
1000075b4:	01 00 	addl	%eax, (%rax)
1000075b6:	00 00 	addb	%al, (%rax)
1000075b8:	10 27 	adcb	%ah, (%rdi)
1000075ba:	00 00 	addb	%al, (%rax)
1000075bc:	01 00 	addl	%eax, (%rax)
1000075be:	00 00 	addb	%al, (%rax)

___libirc_qword_factor_64:
1000075c0:	00 e1 	addb	%ah, %cl
1000075c2:	f5 	cmc
1000075c3:	05 00 00 00 00 	addl	$0, %eax
1000075c8:	01 00 	addl	%eax, (%rax)
1000075ca:	00 00 	addb	%al, (%rax)
1000075cc:	00 00 	addb	%al, (%rax)
1000075ce:	00 00 	addb	%al, (%rax)

___libirc_byte_factor:
1000075d0:	0a 01 	orb	(%rcx), %al
1000075d2:	0a 01 	orb	(%rcx), %al
1000075d4:	0a 01 	orb	(%rcx), %al
1000075d6:	0a 01 	orb	(%rcx), %al
1000075d8:	0a 01 	orb	(%rcx), %al
1000075da:	00 00 	addb	%al, (%rax)
1000075dc:	00 00 	addb	%al, (%rax)
1000075de:	00 00 	addb	%al, (%rax)

___libirc_word_factor:
1000075e0:	64 00 01 	addb	%al, %fs:(%rcx)
1000075e3:	00 64 00 01 	addb	%ah, 1(%rax,%rax)
1000075e7:	00 01 	addb	%al, (%rcx)
1000075e9:	00 00 	addb	%al, (%rax)
1000075eb:	00 00 	addb	%al, (%rax)
1000075ed:	00 00 	addb	%al, (%rax)
1000075ef:	00 10 	addb	%dl, (%rax)

___libirc_dword_factor:
1000075f0:	10 27 	adcb	%ah, (%rdi)
1000075f2:	00 00 	addb	%al, (%rax)
1000075f4:	01 00 	addl	%eax, (%rax)
1000075f6:	00 00 	addb	%al, (%rax)
1000075f8:	01 00 	addl	%eax, (%rax)
1000075fa:	00 00 	addb	%al, (%rax)
1000075fc:	00 00 	addb	%al, (%rax)
1000075fe:	00 00 	addb	%al, (%rax)

___libirc_vector5a41:
100007600:	41 5a 	popq	%r10
100007602:	41 5a 	popq	%r10
100007604:	41 5a 	popq	%r10
100007606:	41 5a 	popq	%r10
100007608:	41 5a 	popq	%r10
10000760a:	41 5a 	popq	%r10
10000760c:	41 5a 	popq	%r10
10000760e:	41 5a 	popq	%r10

___libirc_vector7a61:
100007610:	61  <unknown>
100007611:	7a 61 	jp	97 <___libirc_vector7b+0x14>
100007613:	7a 61 	jp	97 <___libirc_vector7b+0x16>
100007615:	7a 61 	jp	97 <___libirc_vector7b+0x18>
100007617:	7a 61 	jp	97 <___libirc_vector7b+0x1A>
100007619:	7a 61 	jp	97 <___libirc_vector7b+0x1C>
10000761b:	7a 61 	jp	97 <___libirc_vector7b+0x1E>
10000761d:	7a 61 	jp	97
10000761f:	7a 20 	jp	32 <___libirc_vector5b+0x1>

___libirc_vector20:
100007620:	20 20 	andb	%ah, (%rax)
100007622:	20 20 	andb	%ah, (%rax)
100007624:	20 20 	andb	%ah, (%rax)
100007626:	20 20 	andb	%ah, (%rax)
100007628:	20 20 	andb	%ah, (%rax)
10000762a:	20 20 	andb	%ah, (%rax)
10000762c:	20 20 	andb	%ah, (%rax)
10000762e:	20 20 	andb	%ah, (%rax)

___libirc_vector40:
100007630:	40  <unknown>
100007631:	40  <unknown>
100007632:	40  <unknown>
100007633:	40  <unknown>
100007634:	40  <unknown>
100007635:	40  <unknown>
100007636:	40  <unknown>
100007637:	40  <unknown>
100007638:	40  <unknown>
100007639:	40  <unknown>
10000763a:	40  <unknown>
10000763b:	40  <unknown>
10000763c:	40  <unknown>
10000763d:	40  <unknown>
10000763e:	40  <unknown>
10000763f:	40 5b 	popq	%rbx

___libirc_vector5b:
100007640:	5b 	popq	%rbx
100007641:	5b 	popq	%rbx
100007642:	5b 	popq	%rbx
100007643:	5b 	popq	%rbx
100007644:	5b 	popq	%rbx
100007645:	5b 	popq	%rbx
100007646:	5b 	popq	%rbx
100007647:	5b 	popq	%rbx
100007648:	5b 	popq	%rbx
100007649:	5b 	popq	%rbx
10000764a:	5b 	popq	%rbx
10000764b:	5b 	popq	%rbx
10000764c:	5b 	popq	%rbx
10000764d:	5b 	popq	%rbx
10000764e:	5b 	popq	%rbx
10000764f:	5b 	popq	%rbx

___libirc_vector60:
100007650:	60  <unknown>
100007651:	60  <unknown>
100007652:	60  <unknown>
100007653:	60  <unknown>
100007654:	60  <unknown>
100007655:	60  <unknown>
100007656:	60  <unknown>
100007657:	60  <unknown>
100007658:	60  <unknown>
100007659:	60  <unknown>
10000765a:	60  <unknown>
10000765b:	60  <unknown>
10000765c:	60  <unknown>
10000765d:	60  <unknown>
10000765e:	60  <unknown>
10000765f:	60  <unknown>

___libirc_vector7b:
100007660:	7b 7b 	jnp	123
100007662:	7b 7b 	jnp	123
100007664:	7b 7b 	jnp	123
100007666:	7b 7b 	jnp	123
100007668:	7b 7b 	jnp	123
10000766a:	7b 7b 	jnp	123
10000766c:	7b 7b 	jnp	123
10000766e:	7b 7b 	jnp	123
100007670:	00 00 	addb	%al, (%rax)
100007672:	00 00 	addb	%al, (%rax)
100007674:	00 00 	addb	%al, (%rax)
100007676:	00 00 	addb	%al, (%rax)
100007678:	00 00 	addb	%al, (%rax)
10000767a:	00 00 	addb	%al, (%rax)
10000767c:	00 00 	addb	%al, (%rax)
10000767e:	00 00 	addb	%al, (%rax)
Disassembly of section __TEXT,__unwind_info:
__unwind_info:
100007680:	01 00 	addl	%eax, (%rax)
100007682:	00 00 	addb	%al, (%rax)
100007684:	1c 00 	sbbb	$0, %al
100007686:	00 00 	addb	%al, (%rax)
100007688:	01 00 	addl	%eax, (%rax)
10000768a:	00 00 	addb	%al, (%rax)
10000768c:	20 00 	andb	%al, (%rax)
10000768e:	00 00 	addb	%al, (%rax)
100007690:	00 00 	addb	%al, (%rax)
100007692:	00 00 	addb	%al, (%rax)
100007694:	20 00 	andb	%al, (%rax)
100007696:	00 00 	addb	%al, (%rax)
100007698:	02 00 	addb	(%rax), %al
10000769a:	00 00 	addb	%al, (%rax)
10000769c:	00 00 	addb	%al, (%rax)
10000769e:	00 02 	addb	%al, (%rdx)
1000076a0:	b0 0a 	movb	$10, %al
1000076a2:	00 00 	addb	%al, (%rax)
1000076a4:	38 00 	cmpb	%al, (%rax)
1000076a6:	00 00 	addb	%al, (%rax)
1000076a8:	38 00 	cmpb	%al, (%rax)
1000076aa:	00 00 	addb	%al, (%rax)
1000076ac:	51 	pushq	%rcx
1000076ad:	64 00 00 	addb	%al, %fs:(%rax)
1000076b0:	00 00 	addb	%al, (%rax)
1000076b2:	00 00 	addb	%al, (%rax)
1000076b4:	38 00 	cmpb	%al, (%rax)
1000076b6:	00 00 	addb	%al, (%rax)
1000076b8:	03 00 	addl	(%rax), %eax
1000076ba:	00 00 	addb	%al, (%rax)
1000076bc:	0c 00 	orb	$0, %al
1000076be:	0d 00 40 00 0b 	orl	$184565760, %eax
1000076c3:	00 00 	addb	%al, (%rax)
1000076c5:	00 00 	addb	%al, (%rax)
1000076c7:	0b e0 	orl	%eax, %esp
1000076c9:	08 00 	orb	%al, (%rax)
1000076cb:	0a 40 09 	orb	9(%rax), %al
1000076ce:	00 00 	addb	%al, (%rax)
1000076d0:	30 0c 00 	xorb	%cl, (%rax,%rax)
1000076d3:	09 10 	orl	%edx, (%rax)
1000076d5:	15 00 08 a0 17 	adcl	$396363776, %eax
1000076da:	00 07 	addb	%al, (%rdi)
1000076dc:	b0 1a 	movb	$26, %al
1000076de:	00 06 	addb	%al, (%rsi)
1000076e0:	c0 1a 00 	rcrb	$0, (%rdx)
1000076e3:	05 d0 1a 00 04 	addl	$67115728, %eax
1000076e8:	70 1f 	jo	31 <__unwind_info+0x89>
1000076ea:	00 03 	addb	%al, (%rbx)
1000076ec:	70 20 	jo	32 <__unwind_info+0x8E>
1000076ee:	00 02 	addb	%al, (%rdx)
1000076f0:	b0 24 	movb	$36, %al
1000076f2:	00 00 	addb	%al, (%rax)
1000076f4:	90 	nop
1000076f5:	52 	pushq	%rdx
1000076f6:	00 01 	addb	%al, (%rcx)
1000076f8:	f8 	clc
1000076f9:	05 00 04 18 05 	addl	$85459968, %eax
1000076fe:	00 04 00 	addb	%al, (%rax,%rax)
100007701:	00 42 02 	addb	%al, 2(%rdx)
100007704:	70 03 	jo	3 <__unwind_info+0x89>
100007706:	00 04 40 	addb	%al, (%rax,%rax,2)
100007709:	03 00 	addl	(%rax), %eax
10000770b:	04 10 	addb	$16, %al
10000770d:	03 00 	addl	(%rax), %eax
10000770f:	04 2f 	addb	$47, %al
100007711:	11 2e 	adcl	%ebp, (%rsi)
100007713:	02 45 0c 	addb	12(%rbp), %al
100007716:	2e 02 28 	addb	%cs:(%rax), %ch
100007719:	01 00 	addl	%eax, (%rax)
10000771b:	04 00 	addb	$0, %al
10000771d:	00 08 	addb	%cl, (%rax)
10000771f:	02 18 	addb	(%rax), %bl
100007721:	00 00 	addb	%al, (%rax)
100007723:	04  <unknown>
Disassembly of section __TEXT,__eh_frame:
__eh_frame:
100007728:	14 00 	adcb	$0, %al
10000772a:	00 00 	addb	%al, (%rax)
10000772c:	00 00 	addb	%al, (%rax)
10000772e:	00 00 	addb	%al, (%rax)
100007730:	01 7a 52 	addl	%edi, 82(%rdx)
100007733:	00 01 	addb	%al, (%rcx)
100007735:	78 10 	js	16 <__eh_frame+0x1F>
100007737:	01 10 	addl	%edx, (%rax)
100007739:	0c 07 	orb	$7, %al
10000773b:	08 90 01 90 01 0c 	orb	%dl, 201428993(%rax)
100007741:	01 00 	addl	%eax, (%rax)
100007743:	00 1c 00 	addb	%bl, (%rax,%rax)
100007746:	00 00 	addb	%al, (%rax)
100007748:	68 93 ff ff ff 	pushq	$-109
10000774d:	ff ff  <unknown>
10000774f:	ff e0 	jmpq	*%rax
100007751:	08 00 	orb	%al, (%rax)
100007753:	00 00 	addb	%al, (%rax)
100007755:	00 00 	addb	%al, (%rax)
100007757:	00 00 	addb	%al, (%rax)
100007759:	04 01 	addb	$1, %al
10000775b:	00 00 	addb	%al, (%rax)
10000775d:	00 0e 	addb	%cl, (%rsi)
10000775f:	10 04 03 	adcb	%al, (%rbx,%rax)
100007762:	00 00 	addb	%al, (%rax)
100007764:	00 0c 06 	addb	%cl, (%rsi,%rax)
100007767:	10 86 02 04 14 00 	adcb	%al, 1311746(%rsi)
10000776d:	00 00 	addb	%al, (%rax)
10000776f:	10 03 	adcb	%al, (%rbx)
100007771:	0e  <unknown>
100007772:	38 1c 0d 80 ff ff ff 	cmpb	%bl, -128(,%rcx)
100007779:	1a 0d d8 ff ff ff 	sbbb	-40(%rip), %cl
10000777f:	22 10 	andb	(%rax), %dl
100007781:	0c 0e 	orb	$14, %al
100007783:	38 1c 0d 80 ff ff ff 	cmpb	%bl, -128(,%rcx)
10000778a:	1a 0d f8 ff ff ff 	sbbb	-8(%rip), %cl
100007790:	22 10 	andb	(%rax), %dl
100007792:	0d 0e 38 1c 0d 	orl	$219953166, %eax
100007797:	80 ff ff 	cmpb	$-1, %bh
10000779a:	ff 1a 	lcalll	*(%rdx)
10000779c:	0d f0 ff ff ff 	orl	$4294967280, %eax
1000077a1:	22 10 	andb	(%rax), %dl
1000077a3:	0e  <unknown>
1000077a4:	0e  <unknown>
1000077a5:	38 1c 0d 80 ff ff ff 	cmpb	%bl, -128(,%rcx)
1000077ac:	1a 0d e8 ff ff ff 	sbbb	-24(%rip), %cl
1000077b2:	22 10 	andb	(%rax), %dl
1000077b4:	0f 0e 	femms
1000077b6:	38 1c 0d 80 ff ff ff 	cmpb	%bl, -128(,%rcx)
1000077bd:	1a 0d e0 ff ff ff 	sbbb	-32(%rip), %cl
1000077c3:	22 04 8b 	andb	(%rbx,%rcx,4), %al
1000077c6:	08 00 	orb	%al, (%rax)
1000077c8:	00 c3 	addb	%al, %bl
1000077ca:	04 01 	addb	$1, %al
1000077cc:	00 00 	addb	%al, (%rax)
1000077ce:	00 cf 	addb	%cl, %bh
1000077d0:	04 02 	addb	$2, %al
1000077d2:	00 00 	addb	%al, (%rax)
1000077d4:	00 ce 	addb	%cl, %dh
1000077d6:	04 02 	addb	$2, %al
1000077d8:	00 00 	addb	%al, (%rax)
1000077da:	00 cd 	addb	%cl, %ch
1000077dc:	04 02 	addb	$2, %al
1000077de:	00 00 	addb	%al, (%rax)
1000077e0:	00 cc 	addb	%cl, %ah
1000077e2:	04 06 	addb	$6, %al
1000077e4:	00 00 	addb	%al, (%rax)
1000077e6:	00 0c 07 	addb	%cl, (%rdi,%rax)
1000077e9:	08 c6 	orb	%al, %dh
1000077eb:	04 01 	addb	$1, %al
1000077ed:	00 00 	addb	%al, (%rax)
1000077ef:	00 0c 06 	addb	%cl, (%rsi,%rax)
1000077f2:	10 10 	adcb	%dl, (%rax)
1000077f4:	03 0e 	addl	(%rsi), %ecx
1000077f6:	38 1c 0d 80 ff ff ff 	cmpb	%bl, -128(,%rcx)
1000077fd:	1a 0d d8 ff ff ff 	sbbb	-40(%rip), %cl
100007803:	22 86 02 10 0c 0e 	andb	235671554(%rsi), %al
100007809:	38 1c 0d 80 ff ff ff 	cmpb	%bl, -128(,%rcx)
100007810:	1a 0d f8 ff ff ff 	sbbb	-8(%rip), %cl
100007816:	22 10 	andb	(%rax), %dl
100007818:	0d 0e 38 1c 0d 	orl	$219953166, %eax
10000781d:	80 ff ff 	cmpb	$-1, %bh
100007820:	ff 1a 	lcalll	*(%rdx)
100007822:	0d f0 ff ff ff 	orl	$4294967280, %eax
100007827:	22 10 	andb	(%rax), %dl
100007829:	0e  <unknown>
10000782a:	0e  <unknown>
10000782b:	38 1c 0d 80 ff ff ff 	cmpb	%bl, -128(,%rcx)
100007832:	1a 0d e8 ff ff ff 	sbbb	-24(%rip), %cl
100007838:	22 10 	andb	(%rax), %dl
10000783a:	0f 0e 	femms
10000783c:	38 1c 0d 80 ff ff ff 	cmpb	%bl, -128(,%rcx)
100007843:	1a 0d e0 ff ff ff 	sbbb	-32(%rip), %cl
100007849:	22 00 	andb	(%rax), %al
10000784b:	00 00 	addb	%al, (%rax)
10000784d:	00 00 	addb	%al, (%rax)
10000784f:	00 b4 01 00 00 2c 01 	addb	%dh, 19660800(%rcx,%rax)
100007856:	00 00 	addb	%al, (%rax)
100007858:	88 9e ff ff ff ff 	movb	%bl, -1(%rsi)
10000785e:	ff ff  <unknown>
100007860:	d0 08 	rorb	(%rax)
100007862:	00 00 	addb	%al, (%rax)
100007864:	00 00 	addb	%al, (%rax)
100007866:	00 00 	addb	%al, (%rax)
100007868:	00 04 01 	addb	%al, (%rcx,%rax)
10000786b:	00 00 	addb	%al, (%rax)
10000786d:	00 0e 	addb	%cl, (%rsi)
10000786f:	10 04 03 	adcb	%al, (%rbx,%rax)
100007872:	00 00 	addb	%al, (%rax)
100007874:	00 0c 06 	addb	%cl, (%rsi,%rax)
100007877:	10 86 02 04 11 00 	adcb	%al, 1115138(%rsi)
10000787d:	00 00 	addb	%al, (%rax)
10000787f:	10 03 	adcb	%al, (%rbx)
100007881:	0e  <unknown>
100007882:	38 1c 0d e0 ff ff ff 	cmpb	%bl, -32(,%rcx)
100007889:	1a 0d d8 ff ff ff 	sbbb	-40(%rip), %cl
10000788f:	22 10 	andb	(%rax), %dl
100007891:	0c 0e 	orb	$14, %al
100007893:	38 1c 0d e0 ff ff ff 	cmpb	%bl, -32(,%rcx)
10000789a:	1a 0d f8 ff ff ff 	sbbb	-8(%rip), %cl
1000078a0:	22 10 	andb	(%rax), %dl
1000078a2:	0d 0e 38 1c 0d 	orl	$219953166, %eax
1000078a7:	e0 ff 	loopne	-1
1000078a9:	ff ff  <unknown>
1000078ab:	1a 0d f0 ff ff ff 	sbbb	-16(%rip), %cl
1000078b1:	22 10 	andb	(%rax), %dl
1000078b3:	0e  <unknown>
1000078b4:	0e  <unknown>
1000078b5:	38 1c 0d e0 ff ff ff 	cmpb	%bl, -32(,%rcx)
1000078bc:	1a 0d e8 ff ff ff 	sbbb	-24(%rip), %cl
1000078c2:	22 10 	andb	(%rax), %dl
1000078c4:	0f 0e 	femms
1000078c6:	38 1c 0d e0 ff ff ff 	cmpb	%bl, -32(,%rcx)
1000078cd:	1a 0d e0 ff ff ff 	sbbb	-32(%rip), %cl
1000078d3:	22 04 d7 	andb	(%rdi,%rdx,8), %al
1000078d6:	07  <unknown>
1000078d7:	00 00 	addb	%al, (%rax)
1000078d9:	c3 	retq
1000078da:	04 01 	addb	$1, %al
1000078dc:	00 00 	addb	%al, (%rax)
1000078de:	00 cf 	addb	%cl, %bh
1000078e0:	04 02 	addb	$2, %al
1000078e2:	00 00 	addb	%al, (%rax)
1000078e4:	00 ce 	addb	%cl, %dh
1000078e6:	04 02 	addb	$2, %al
1000078e8:	00 00 	addb	%al, (%rax)
1000078ea:	00 cd 	addb	%cl, %ch
1000078ec:	04 02 	addb	$2, %al
1000078ee:	00 00 	addb	%al, (%rax)
1000078f0:	00 cc 	addb	%cl, %ah
1000078f2:	04 06 	addb	$6, %al
1000078f4:	00 00 	addb	%al, (%rax)
1000078f6:	00 0c 07 	addb	%cl, (%rdi,%rax)
1000078f9:	08 c6 	orb	%al, %dh
1000078fb:	04 01 	addb	$1, %al
1000078fd:	00 00 	addb	%al, (%rax)
1000078ff:	00 0c 06 	addb	%cl, (%rsi,%rax)
100007902:	10 10 	adcb	%dl, (%rax)
100007904:	03 0e 	addl	(%rsi), %ecx
100007906:	38 1c 0d e0 ff ff ff 	cmpb	%bl, -32(,%rcx)
10000790d:	1a 0d d8 ff ff ff 	sbbb	-40(%rip), %cl
100007913:	22 86 02 10 0c 0e 	andb	235671554(%rsi), %al
100007919:	38 1c 0d e0 ff ff ff 	cmpb	%bl, -32(,%rcx)
100007920:	1a 0d f8 ff ff ff 	sbbb	-8(%rip), %cl
100007926:	22 10 	andb	(%rax), %dl
100007928:	0d 0e 38 1c 0d 	orl	$219953166, %eax
10000792d:	e0 ff 	loopne	-1
10000792f:	ff ff  <unknown>
100007931:	1a 0d f0 ff ff ff 	sbbb	-16(%rip), %cl
100007937:	22 10 	andb	(%rax), %dl
100007939:	0e  <unknown>
10000793a:	0e  <unknown>
10000793b:	38 1c 0d e0 ff ff ff 	cmpb	%bl, -32(,%rcx)
100007942:	1a 0d e8 ff ff ff 	sbbb	-24(%rip), %cl
100007948:	22 10 	andb	(%rax), %dl
10000794a:	0f 0e 	femms
10000794c:	38 1c 0d e0 ff ff ff 	cmpb	%bl, -32(,%rcx)
100007953:	1a 0d e0 ff ff ff 	sbbb	-32(%rip), %cl
100007959:	22 04 a8 	andb	(%rax,%rbp,4), %al
10000795c:	00 00 	addb	%al, (%rax)
10000795e:	00 c3 	addb	%al, %bl
100007960:	04 01 	addb	$1, %al
100007962:	00 00 	addb	%al, (%rax)
100007964:	00 cf 	addb	%cl, %bh
100007966:	04 02 	addb	$2, %al
100007968:	00 00 	addb	%al, (%rax)
10000796a:	00 ce 	addb	%cl, %dh
10000796c:	04 02 	addb	$2, %al
10000796e:	00 00 	addb	%al, (%rax)
100007970:	00 cd 	addb	%cl, %ch
100007972:	04 02 	addb	$2, %al
100007974:	00 00 	addb	%al, (%rax)
100007976:	00 cc 	addb	%cl, %ah
100007978:	04 06 	addb	$6, %al
10000797a:	00 00 	addb	%al, (%rax)
10000797c:	00 0c 07 	addb	%cl, (%rdi,%rax)
10000797f:	08 c6 	orb	%al, %dh
100007981:	04 01 	addb	$1, %al
100007983:	00 00 	addb	%al, (%rax)
100007985:	00 0c 06 	addb	%cl, (%rsi,%rax)
100007988:	10 10 	adcb	%dl, (%rax)
10000798a:	03 0e 	addl	(%rsi), %ecx
10000798c:	38 1c 0d e0 ff ff ff 	cmpb	%bl, -32(,%rcx)
100007993:	1a 0d d8 ff ff ff 	sbbb	-40(%rip), %cl
100007999:	22 86 02 10 0c 0e 	andb	235671554(%rsi), %al
10000799f:	38 1c 0d e0 ff ff ff 	cmpb	%bl, -32(,%rcx)
1000079a6:	1a 0d f8 ff ff ff 	sbbb	-8(%rip), %cl
1000079ac:	22 10 	andb	(%rax), %dl
1000079ae:	0d 0e 38 1c 0d 	orl	$219953166, %eax
1000079b3:	e0 ff 	loopne	-1
1000079b5:	ff ff  <unknown>
1000079b7:	1a 0d f0 ff ff ff 	sbbb	-16(%rip), %cl
1000079bd:	22 10 	andb	(%rax), %dl
1000079bf:	0e  <unknown>
1000079c0:	0e  <unknown>
1000079c1:	38 1c 0d e0 ff ff ff 	cmpb	%bl, -32(,%rcx)
1000079c8:	1a 0d e8 ff ff ff 	sbbb	-24(%rip), %cl
1000079ce:	22 10 	andb	(%rax), %dl
1000079d0:	0f 0e 	femms
1000079d2:	38 1c 0d e0 ff ff ff 	cmpb	%bl, -32(,%rcx)
1000079d9:	1a 0d e0 ff ff ff 	sbbb	-32(%rip), %cl
1000079df:	22 04 09 	andb	(%rcx,%rcx), %al
1000079e2:	00 00 	addb	%al, (%rax)
1000079e4:	00 c3 	addb	%al, %bl
1000079e6:	04 01 	addb	$1, %al
1000079e8:	00 00 	addb	%al, (%rax)
1000079ea:	00 cf 	addb	%cl, %bh
1000079ec:	04 02 	addb	$2, %al
1000079ee:	00 00 	addb	%al, (%rax)
1000079f0:	00 ce 	addb	%cl, %dh
1000079f2:	04 02 	addb	$2, %al
1000079f4:	00 00 	addb	%al, (%rax)
1000079f6:	00 cd 	addb	%cl, %ch
1000079f8:	04 02 	addb	$2, %al
1000079fa:	00 00 	addb	%al, (%rax)
1000079fc:	00 cc 	addb	%cl, %ah
1000079fe:	04 06 	addb	$6, %al
100007a00:	00 00 	addb	%al, (%rax)
100007a02:	00 0c 07 	addb	%cl, (%rdi,%rax)
100007a05:	08 c6 	orb	%al, %dh
100007a07:	00 14 00 	addb	%dl, (%rax,%rax)
100007a0a:	00 00 	addb	%al, (%rax)
100007a0c:	00 00 	addb	%al, (%rax)
100007a0e:	00 00 	addb	%al, (%rax)
100007a10:	01 7a 52 	addl	%edi, 82(%rdx)
100007a13:	00 01 	addb	%al, (%rcx)
100007a15:	78 10 	js	16 <__eh_frame+0x2FF>
100007a17:	01 10 	addl	%edx, (%rax)
100007a19:	0c 07 	orb	$7, %al
100007a1b:	08 90 01 90 01 14 	orb	%dl, 335646721(%rax)
100007a21:	00 00 	addb	%al, (%rax)
100007a23:	00 00 	addb	%al, (%rax)
100007a25:	00 00 	addb	%al, (%rax)
100007a27:	00 01 	addb	%al, (%rcx)
100007a29:	7a 52 	jp	82 <__eh_frame+0x355>
100007a2b:	00 01 	addb	%al, (%rcx)
100007a2d:	78 10 	js	16 <__eh_frame+0x317>
100007a2f:	01 10 	addl	%edx, (%rax)
100007a31:	0c 07 	orb	$7, %al
100007a33:	08 90 01 90 01 2c 	orb	%dl, 738299905(%rax)
100007a39:	00 00 	addb	%al, (%rax)
100007a3b:	00 1c 00 	addb	%bl, (%rax,%rax)
100007a3e:	00 00 	addb	%al, (%rax)
100007a40:	20 ab ff ff ff ff 	andb	%ch, -1(%rbx)
100007a46:	ff ff  <unknown>
100007a48:	10 00 	adcb	%al, (%rax)
100007a4a:	00 00 	addb	%al, (%rax)
100007a4c:	00 00 	addb	%al, (%rax)
100007a4e:	00 00 	addb	%al, (%rax)
100007a50:	00 04 01 	addb	%al, (%rcx,%rax)
100007a53:	00 00 	addb	%al, (%rax)
100007a55:	00 0e 	addb	%cl, (%rsi)
100007a57:	10 80 02 04 07 00 	adcb	%al, 459778(%rax)
100007a5d:	00 00 	addb	%al, (%rax)
100007a5f:	c0 04 01 00 	rolb	$0, (%rcx,%rax)
100007a63:	00 00 	addb	%al, (%rax)
100007a65:	0e  <unknown>
100007a66:	08 00 	orb	%al, (%rax)
100007a68:	2c 00 	subb	$0, %al
100007a6a:	00 00 	addb	%al, (%rax)
100007a6c:	4c 00 00 	addb	%r8b, (%rax)
100007a6f:	00 00 	addb	%al, (%rax)
100007a71:	ab 	stosl	%eax, %es:(%rdi)
100007a72:	ff ff  <unknown>
100007a74:	ff ff  <unknown>
100007a76:	ff ff  <unknown>
100007a78:	10 00 	adcb	%al, (%rax)
100007a7a:	00 00 	addb	%al, (%rax)
100007a7c:	00 00 	addb	%al, (%rax)
100007a7e:	00 00 	addb	%al, (%rax)
100007a80:	00 04 01 	addb	%al, (%rcx,%rax)
100007a83:	00 00 	addb	%al, (%rax)
100007a85:	00 0e 	addb	%cl, (%rsi)
100007a87:	10 80 02 04 0a 00 	adcb	%al, 656386(%rax)
100007a8d:	00 00 	addb	%al, (%rax)
100007a8f:	c0 04 01 00 	rolb	$0, (%rcx,%rax)
100007a93:	00 00 	addb	%al, (%rax)
100007a95:	0e  <unknown>
100007a96:	08 00 	orb	%al, (%rax)
100007a98:	74 01 	je	1 <__eh_frame+0x373>
100007a9a:	00 00 	addb	%al, (%rax)
100007a9c:	7c 00 	jl	0 <__eh_frame+0x376>
100007a9e:	00 00 	addb	%al, (%rax)
100007aa0:	e0 aa 	loopne	-86
100007aa2:	ff ff  <unknown>
100007aa4:	ff ff  <unknown>
100007aa6:	ff ff  <unknown>
100007aa8:	90 	nop
100007aa9:	04 00 	addb	$0, %al
100007aab:	00 00 	addb	%al, (%rax)
100007aad:	00 00 	addb	%al, (%rax)
100007aaf:	00 00 	addb	%al, (%rax)
100007ab1:	04 01 	addb	$1, %al
100007ab3:	00 00 	addb	%al, (%rax)
100007ab5:	00 0e 	addb	%cl, (%rsi)
100007ab7:	10 81 02 04 01 00 	adcb	%al, 66562(%rcx)
100007abd:	00 00 	addb	%al, (%rax)
100007abf:	0e  <unknown>
100007ac0:	18 82 03 04 01 00 	sbbb	%al, 66563(%rdx)
100007ac6:	00 00 	addb	%al, (%rax)
100007ac8:	0e  <unknown>
100007ac9:	20 83 04 04 01 00 	andb	%al, 66564(%rbx)
100007acf:	00 00 	addb	%al, (%rax)
100007ad1:	0e  <unknown>
100007ad2:	28 84 05 04 02 00 00 	subb	%al, 516(%rbp,%rax)
100007ad9:	00 0e 	addb	%cl, (%rsi)
100007adb:	30 89 06 04 02 00 	xorb	%cl, 132102(%rcx)
100007ae1:	00 00 	addb	%al, (%rax)
100007ae3:	0e  <unknown>
100007ae4:	38 8c 07 04 02 00 00 	cmpb	%cl, 516(%rdi,%rax)
100007aeb:	00 0e 	addb	%cl, (%rsi)
100007aed:	40 8e 08 	movl	(%rax), %cs
100007af0:	04 01 	addb	$1, %al
100007af2:	00 00 	addb	%al, (%rax)
100007af4:	00 0e 	addb	%cl, (%rsi)
100007af6:	48 86 09 	xchgb	%cl, (%rcx)
100007af9:	04 1d 	addb	$29, %al
100007afb:	04 00 	addb	$0, %al
100007afd:	00 c6 	addb	%al, %dh
100007aff:	04 01 	addb	$1, %al
100007b01:	00 00 	addb	%al, (%rax)
100007b03:	00 0e 	addb	%cl, (%rsi)
100007b05:	40 ce 	into
100007b07:	04 02 	addb	$2, %al
100007b09:	00 00 	addb	%al, (%rax)
100007b0b:	00 0e 	addb	%cl, (%rsi)
100007b0d:	38 cc 	cmpb	%cl, %ah
100007b0f:	04 02 	addb	$2, %al
100007b11:	00 00 	addb	%al, (%rax)
100007b13:	00 0e 	addb	%cl, (%rsi)
100007b15:	30 c9 	xorb	%cl, %cl
100007b17:	04 02 	addb	$2, %al
100007b19:	00 00 	addb	%al, (%rax)
100007b1b:	00 0e 	addb	%cl, (%rsi)
100007b1d:	28 c4 	subb	%al, %ah
100007b1f:	04 01 	addb	$1, %al
100007b21:	00 00 	addb	%al, (%rax)
100007b23:	00 0e 	addb	%cl, (%rsi)
100007b25:	20 c3 	andb	%al, %bl
100007b27:	04 01 	addb	$1, %al
100007b29:	00 00 	addb	%al, (%rax)
100007b2b:	00 0e 	addb	%cl, (%rsi)
100007b2d:	18 c2 	sbbb	%al, %dl
100007b2f:	04 01 	addb	$1, %al
100007b31:	00 00 	addb	%al, (%rax)
100007b33:	00 0e 	addb	%cl, (%rsi)
100007b35:	10 c1 	adcb	%al, %cl
100007b37:	04 01 	addb	$1, %al
100007b39:	00 00 	addb	%al, (%rax)
100007b3b:	00 0e 	addb	%cl, (%rsi)
100007b3d:	08 04 01 	orb	%al, (%rcx,%rax)
100007b40:	00 00 	addb	%al, (%rax)
100007b42:	00 0e 	addb	%cl, (%rsi)
100007b44:	48 81 02 82 03 83 04 	addq	$75694978, (%rdx)
100007b4b:	86 09 	xchgb	%cl, (%rcx)
100007b4d:	84 05 89 06 8c 07 	testb	126617225(%rip), %al
100007b53:	8e 08 	movl	(%rax), %cs
100007b55:	04 0e 	addb	$14, %al
100007b57:	00 00 	addb	%al, (%rax)
100007b59:	00 c6 	addb	%al, %dh
100007b5b:	04 01 	addb	$1, %al
100007b5d:	00 00 	addb	%al, (%rax)
100007b5f:	00 0e 	addb	%cl, (%rsi)
100007b61:	40 ce 	into
100007b63:	04 02 	addb	$2, %al
100007b65:	00 00 	addb	%al, (%rax)
100007b67:	00 0e 	addb	%cl, (%rsi)
100007b69:	38 cc 	cmpb	%cl, %ah
100007b6b:	04 02 	addb	$2, %al
100007b6d:	00 00 	addb	%al, (%rax)
100007b6f:	00 0e 	addb	%cl, (%rsi)
100007b71:	30 c9 	xorb	%cl, %cl
100007b73:	04 02 	addb	$2, %al
100007b75:	00 00 	addb	%al, (%rax)
100007b77:	00 0e 	addb	%cl, (%rsi)
100007b79:	28 c4 	subb	%al, %ah
100007b7b:	04 01 	addb	$1, %al
100007b7d:	00 00 	addb	%al, (%rax)
100007b7f:	00 0e 	addb	%cl, (%rsi)
100007b81:	20 c3 	andb	%al, %bl
100007b83:	04 01 	addb	$1, %al
100007b85:	00 00 	addb	%al, (%rax)
100007b87:	00 0e 	addb	%cl, (%rsi)
100007b89:	18 c2 	sbbb	%al, %dl
100007b8b:	04 01 	addb	$1, %al
100007b8d:	00 00 	addb	%al, (%rax)
100007b8f:	00 0e 	addb	%cl, (%rsi)
100007b91:	10 c1 	adcb	%al, %cl
100007b93:	04 01 	addb	$1, %al
100007b95:	00 00 	addb	%al, (%rax)
100007b97:	00 0e 	addb	%cl, (%rsi)
100007b99:	08 04 01 	orb	%al, (%rcx,%rax)
100007b9c:	00 00 	addb	%al, (%rax)
100007b9e:	00 0e 	addb	%cl, (%rsi)
100007ba0:	48 81 02 82 03 83 04 	addq	$75694978, (%rdx)
100007ba7:	86 09 	xchgb	%cl, (%rcx)
100007ba9:	84 05 89 06 8c 07 	testb	126617225(%rip), %al
100007baf:	8e 08 	movl	(%rax), %cs
100007bb1:	04 0b 	addb	$11, %al
100007bb3:	00 00 	addb	%al, (%rax)
100007bb5:	00 c6 	addb	%al, %dh
100007bb7:	04 01 	addb	$1, %al
100007bb9:	00 00 	addb	%al, (%rax)
100007bbb:	00 0e 	addb	%cl, (%rsi)
100007bbd:	40 ce 	into
100007bbf:	04 02 	addb	$2, %al
100007bc1:	00 00 	addb	%al, (%rax)
100007bc3:	00 0e 	addb	%cl, (%rsi)
100007bc5:	38 cc 	cmpb	%cl, %ah
100007bc7:	04 02 	addb	$2, %al
100007bc9:	00 00 	addb	%al, (%rax)
100007bcb:	00 0e 	addb	%cl, (%rsi)
100007bcd:	30 c9 	xorb	%cl, %cl
100007bcf:	04 02 	addb	$2, %al
100007bd1:	00 00 	addb	%al, (%rax)
100007bd3:	00 0e 	addb	%cl, (%rsi)
100007bd5:	28 c4 	subb	%al, %ah
100007bd7:	04 01 	addb	$1, %al
100007bd9:	00 00 	addb	%al, (%rax)
100007bdb:	00 0e 	addb	%cl, (%rsi)
100007bdd:	20 c3 	andb	%al, %bl
100007bdf:	04 01 	addb	$1, %al
100007be1:	00 00 	addb	%al, (%rax)
100007be3:	00 0e 	addb	%cl, (%rsi)
100007be5:	18 c2 	sbbb	%al, %dl
100007be7:	04 01 	addb	$1, %al
100007be9:	00 00 	addb	%al, (%rax)
100007beb:	00 0e 	addb	%cl, (%rsi)
100007bed:	10 c1 	adcb	%al, %cl
100007bef:	04 01 	addb	$1, %al
100007bf1:	00 00 	addb	%al, (%rax)
100007bf3:	00 0e 	addb	%cl, (%rsi)
100007bf5:	08 04 01 	orb	%al, (%rcx,%rax)
100007bf8:	00 00 	addb	%al, (%rax)
100007bfa:	00 0e 	addb	%cl, (%rsi)
100007bfc:	48 81 02 82 03 83 04 	addq	$75694978, (%rdx)
100007c03:	86 09 	xchgb	%cl, (%rcx)
100007c05:	84 05 89 06 8c 07 	testb	126617225(%rip), %al
100007c0b:	8e 08 	movl	(%rax), %cs
100007c0d:	00 00 	addb	%al, (%rax)
100007c0f:	00 14 00 	addb	%dl, (%rax,%rax)
100007c12:	00 00 	addb	%al, (%rax)
100007c14:	00 00 	addb	%al, (%rax)
100007c16:	00 00 	addb	%al, (%rax)
100007c18:	01 7a 52 	addl	%edi, 82(%rdx)
100007c1b:	00 01 	addb	%al, (%rcx)
100007c1d:	78 10 	js	16 <__eh_frame+0x507>
100007c1f:	01 10 	addl	%edx, (%rax)
100007c21:	0c 07 	orb	$7, %al
100007c23:	08 90 01 90 01 14 	orb	%dl, 335646721(%rax)
100007c29:	00 00 	addb	%al, (%rax)
100007c2b:	00 00 	addb	%al, (%rax)
100007c2d:	00 00 	addb	%al, (%rax)
100007c2f:	00 01 	addb	%al, (%rcx)
100007c31:	7a 52 	jp	82 <__eh_frame+0x55D>
100007c33:	00 01 	addb	%al, (%rcx)
100007c35:	78 10 	js	16 <__eh_frame+0x51F>
100007c37:	01 10 	addl	%edx, (%rax)
100007c39:	0c 07 	orb	$7, %al
100007c3b:	08 90 01 90 01 7c 	orb	%dl, 2080477185(%rax)
100007c41:	00 00 	addb	%al, (%rax)
100007c43:	00 1c 00 	addb	%bl, (%rax,%rax)
100007c46:	00 00 	addb	%al, (%rax)
100007c48:	d8 ae ff ff ff ff 	fsubrs	-1(%rsi)
100007c4e:	ff ff  <unknown>
100007c50:	30 04 00 	xorb	%al, (%rax,%rax)
100007c53:	00 00 	addb	%al, (%rax)
100007c55:	00 00 	addb	%al, (%rax)
100007c57:	00 00 	addb	%al, (%rax)
100007c59:	42 0e  <unknown>
100007c5b:	10 8c 02 42 0e 18 8d 	adcb	%cl, -1927803326(%rdx,%rax)
100007c62:	03 42 0e 	addl	14(%rdx), %eax
100007c65:	20 8e 04 42 0e 28 	andb	%cl, 672023044(%rsi)
100007c6b:	8f 05 47 0e c0 08 	popq	146804295(%rip)
100007c71:	02 6f 83 	addb	-125(%rdi), %ch
100007c74:	07  <unknown>
100007c75:	86 08 	xchgb	%cl, (%rax)
100007c77:	03 fb 	addl	%ebx, %edi
100007c79:	01 c3 	addl	%eax, %ebx
100007c7b:	4b c6 45 83 07 	movb	$7, -125(%r13)
100007c80:	86 08 	xchgb	%cl, (%rax)
100007c82:	02 7b c3 	addb	-61(%rbx), %bh
100007c85:	c6 6d 83  <unknown>
100007c88:	07  <unknown>
100007c89:	86 08 	xchgb	%cl, (%rax)
100007c8b:	7b c3 	jnp	-61 <__eh_frame+0x528>
100007c8d:	c6 50 0e  <unknown>
100007c90:	28 cf 	subb	%cl, %bh
100007c92:	42 0e  <unknown>
100007c94:	20 ce 	andb	%cl, %dh
100007c96:	42 0e  <unknown>
100007c98:	18 cd 	sbbb	%cl, %ch
100007c9a:	42 0e  <unknown>
100007c9c:	10 cc 	adcb	%cl, %ah
100007c9e:	42 0e  <unknown>
100007ca0:	08 41 0e 	orb	%al, 14(%rcx)
100007ca3:	c0 08 83 	rorb	$131, (%rax)
100007ca6:	07  <unknown>
100007ca7:	86 08 	xchgb	%cl, (%rax)
100007ca9:	8c 02 	movl	%es, (%rdx)
100007cab:	8d 03 	leal	(%rbx), %eax
100007cad:	8e 04 8f 	movl	(%rdi,%rcx,4), %es
100007cb0:	05 67 c3 48 c6 	addl	$3326657383, %eax
100007cb5:	4a 83 07 86 	addq	$-122, (%rdi)
100007cb9:	08 48 c3 	orb	%cl, -61(%rax)
100007cbc:	48 c6 00 00 	movb	$0, (%rax)
100007cc0:	14 00 	adcb	$0, %al
100007cc2:	00 00 	addb	%al, (%rax)
100007cc4:	00 00 	addb	%al, (%rax)
100007cc6:	00 00 	addb	%al, (%rax)
100007cc8:	01 7a 52 	addl	%edi, 82(%rdx)
100007ccb:	00 01 	addb	%al, (%rcx)
100007ccd:	78 10 	js	16 <__eh_frame+0x5B7>
100007ccf:	01 10 	addl	%edx, (%rax)
100007cd1:	0c 07 	orb	$7, %al
100007cd3:	08 90 01 90 01 14 	orb	%dl, 335646721(%rax)
100007cd9:	00 00 	addb	%al, (%rax)
100007cdb:	00 00 	addb	%al, (%rax)
100007cdd:	00 00 	addb	%al, (%rax)
100007cdf:	00 01 	addb	%al, (%rcx)
100007ce1:	7a 52 	jp	82 <__eh_frame+0x60D>
100007ce3:	00 01 	addb	%al, (%rcx)
100007ce5:	78 10 	js	16 <__eh_frame+0x5CF>
100007ce7:	01 10 	addl	%edx, (%rax)
100007ce9:	0c 07 	orb	$7, %al
100007ceb:	08 90 01 90 01 14 	orb	%dl, 335646721(%rax)
100007cf1:	00 00 	addb	%al, (%rax)
100007cf3:	00 00 	addb	%al, (%rax)
100007cf5:	00 00 	addb	%al, (%rax)
100007cf7:	00 01 	addb	%al, (%rcx)
100007cf9:	7a 52 	jp	82 <__eh_frame+0x625>
100007cfb:	00 01 	addb	%al, (%rcx)
100007cfd:	78 10 	js	16 <__eh_frame+0x5E7>
100007cff:	01 10 	addl	%edx, (%rax)
100007d01:	0c 07 	orb	$7, %al
100007d03:	08 90 01 90 01 14 	orb	%dl, 335646721(%rax)
100007d09:	00 00 	addb	%al, (%rax)
100007d0b:	00 00 	addb	%al, (%rax)
100007d0d:	00 00 	addb	%al, (%rax)
100007d0f:	00 01 	addb	%al, (%rcx)
100007d11:	7a 52 	jp	82 <__eh_frame+0x63D>
100007d13:	00 01 	addb	%al, (%rcx)
100007d15:	78 10 	js	16 <__eh_frame+0x5FF>
100007d17:	01 10 	addl	%edx, (%rax)
100007d19:	0c 07 	orb	$7, %al
100007d1b:	08 90 01 90 01 c4 	orb	%dl, -1006530559(%rax)
100007d21:	02 00 	addb	(%rax), %al
100007d23:	00 1c 00 	addb	%bl, (%rax,%rax)
100007d26:	00 00 	addb	%al, (%rax)
100007d28:	18 e0 	sbbb	%ah, %al
100007d2a:	ff ff  <unknown>
100007d2c:	ff ff  <unknown>
100007d2e:	ff ff  <unknown>
100007d30:	00 07 	addb	%al, (%rdi)
100007d32:	00 00 	addb	%al, (%rax)
100007d34:	00 00 	addb	%al, (%rax)
100007d36:	00 00 	addb	%al, (%rax)
100007d38:	00 04 01 	addb	%al, (%rcx,%rax)
100007d3b:	00 00 	addb	%al, (%rax)
100007d3d:	00 0e 	addb	%cl, (%rsi)
100007d3f:	10 84 02 04 01 00 00 	adcb	%al, 260(%rdx,%rax)
100007d46:	00 0e 	addb	%cl, (%rsi)
100007d48:	18 85 03 04 02 00 	sbbb	%al, 132099(%rbp)
100007d4e:	00 00 	addb	%al, (%rax)
100007d50:	0e  <unknown>
100007d51:	20 8c 04 04 07 00 00 	andb	%cl, 1796(%rsp,%rax)
100007d58:	00 0e 	addb	%cl, (%rsi)
100007d5a:	c0 01 04 	rolb	$4, (%rcx)
100007d5d:	6f 	outsl	(%rsi), %dx
100007d5e:	00 00 	addb	%al, (%rax)
100007d60:	00 97 14 98 18 99 	addb	%dl, -1726441452(%rdi)
100007d66:	06  <unknown>
100007d67:	9a  <unknown>
100007d68:	08 9b 0a 9c 0c 9d 	orb	%bl, -1660118006(%rbx)
100007d6e:	0e  <unknown>
100007d6f:	9e 	sahf
100007d70:	10 9f 12 a0 16 04 	adcb	%bl, 68591634(%rdi)
100007d76:	3c 03 	cmpb	$3, %al
100007d78:	00 00 	addb	%al, (%rax)
100007d7a:	d7 	xlatb
100007d7b:	04 04 	addb	$4, %al
100007d7d:	00 00 	addb	%al, (%rax)
100007d7f:	00 d8 	addb	%bl, %al
100007d81:	04 09 	addb	$9, %al
100007d83:	00 00 	addb	%al, (%rax)
100007d85:	00 d9 	addb	%bl, %cl
100007d87:	04 09 	addb	$9, %al
100007d89:	00 00 	addb	%al, (%rax)
100007d8b:	00 da 	addb	%bl, %dl
100007d8d:	04 06 	addb	$6, %al
100007d8f:	00 00 	addb	%al, (%rax)
100007d91:	00 db 	addb	%bl, %bl
100007d93:	04 06 	addb	$6, %al
100007d95:	00 00 	addb	%al, (%rax)
100007d97:	00 dc 	addb	%bl, %ah
100007d99:	04 06 	addb	$6, %al
100007d9b:	00 00 	addb	%al, (%rax)
100007d9d:	00 dd 	addb	%bl, %ch
100007d9f:	04 06 	addb	$6, %al
100007da1:	00 00 	addb	%al, (%rax)
100007da3:	00 de 	addb	%bl, %dh
100007da5:	04 06 	addb	$6, %al
100007da7:	00 00 	addb	%al, (%rax)
100007da9:	00 df 	addb	%bl, %bh
100007dab:	04 06 	addb	$6, %al
100007dad:	00 00 	addb	%al, (%rax)
100007daf:	00 e0 	addb	%ah, %al
100007db1:	04 17 	addb	$23, %al
100007db3:	00 00 	addb	%al, (%rax)
100007db5:	00 0e 	addb	%cl, (%rsi)
100007db7:	20 cc 	andb	%cl, %ah
100007db9:	04 02 	addb	$2, %al
100007dbb:	00 00 	addb	%al, (%rax)
100007dbd:	00 0e 	addb	%cl, (%rsi)
100007dbf:	18 c5 	sbbb	%al, %ch
100007dc1:	04 01 	addb	$1, %al
100007dc3:	00 00 	addb	%al, (%rax)
100007dc5:	00 0e 	addb	%cl, (%rsi)
100007dc7:	10 c4 	adcb	%al, %ah
100007dc9:	04 01 	addb	$1, %al
100007dcb:	00 00 	addb	%al, (%rax)
100007dcd:	00 0e 	addb	%cl, (%rsi)
100007dcf:	08 04 01 	orb	%al, (%rcx,%rax)
100007dd2:	00 00 	addb	%al, (%rax)
100007dd4:	00 0e 	addb	%cl, (%rsi)
100007dd6:	c0 01 84 	rolb	$132, (%rcx)
100007dd9:	02 85 03 8c 04 97 	addb	-1761309693(%rbp), %al
100007ddf:	14 98 	adcb	$-104, %al
100007de1:	18 99 06 9a 08 9b 	sbbb	%bl, -1693935098(%rcx)
100007de7:	0a 9c 0c 9d 0e 9e 10 	orb	278793885(%rsp,%rcx), %bl
100007dee:	9f 	lahf
100007def:	12 a0 16 04 0e 00 	adcb	918550(%rax), %ah
100007df5:	00 00 	addb	%al, (%rax)
100007df7:	d7 	xlatb
100007df8:	04 04 	addb	$4, %al
100007dfa:	00 00 	addb	%al, (%rax)
100007dfc:	00 d8 	addb	%bl, %al
100007dfe:	04 09 	addb	$9, %al
100007e00:	00 00 	addb	%al, (%rax)
100007e02:	00 d9 	addb	%bl, %cl
100007e04:	04 09 	addb	$9, %al
100007e06:	00 00 	addb	%al, (%rax)
100007e08:	00 da 	addb	%bl, %dl
100007e0a:	04 06 	addb	$6, %al
100007e0c:	00 00 	addb	%al, (%rax)
100007e0e:	00 db 	addb	%bl, %bl
100007e10:	04 06 	addb	$6, %al
100007e12:	00 00 	addb	%al, (%rax)
100007e14:	00 dc 	addb	%bl, %ah
100007e16:	04 06 	addb	$6, %al
100007e18:	00 00 	addb	%al, (%rax)
100007e1a:	00 dd 	addb	%bl, %ch
100007e1c:	04 06 	addb	$6, %al
100007e1e:	00 00 	addb	%al, (%rax)
100007e20:	00 de 	addb	%bl, %dh
100007e22:	04 06 	addb	$6, %al
100007e24:	00 00 	addb	%al, (%rax)
100007e26:	00 df 	addb	%bl, %bh
100007e28:	04 06 	addb	$6, %al
100007e2a:	00 00 	addb	%al, (%rax)
100007e2c:	00 e0 	addb	%ah, %al
100007e2e:	04 07 	addb	$7, %al
100007e30:	00 00 	addb	%al, (%rax)
100007e32:	00 0e 	addb	%cl, (%rsi)
100007e34:	20 cc 	andb	%cl, %ah
100007e36:	04 02 	addb	$2, %al
100007e38:	00 00 	addb	%al, (%rax)
100007e3a:	00 0e 	addb	%cl, (%rsi)
100007e3c:	18 c5 	sbbb	%al, %ch
100007e3e:	04 01 	addb	$1, %al
100007e40:	00 00 	addb	%al, (%rax)
100007e42:	00 0e 	addb	%cl, (%rsi)
100007e44:	10 c4 	adcb	%al, %ah
100007e46:	04 01 	addb	$1, %al
100007e48:	00 00 	addb	%al, (%rax)
100007e4a:	00 0e 	addb	%cl, (%rsi)
100007e4c:	08 04 01 	orb	%al, (%rcx,%rax)
100007e4f:	00 00 	addb	%al, (%rax)
100007e51:	00 0e 	addb	%cl, (%rsi)
100007e53:	c0 01 84 	rolb	$132, (%rcx)
100007e56:	02 85 03 8c 04 97 	addb	-1761309693(%rbp), %al
100007e5c:	14 98 	adcb	$-104, %al
100007e5e:	18 99 06 9a 08 9b 	sbbb	%bl, -1693935098(%rcx)
100007e64:	0a 9c 0c 9d 0e 9e 10 	orb	278793885(%rsp,%rcx), %bl
100007e6b:	9f 	lahf
100007e6c:	12 a0 16 04 05 00 	adcb	328726(%rax), %ah
100007e72:	00 00 	addb	%al, (%rax)
100007e74:	d7 	xlatb
100007e75:	04 06 	addb	$6, %al
100007e77:	00 00 	addb	%al, (%rax)
100007e79:	00 d8 	addb	%bl, %al
100007e7b:	04 09 	addb	$9, %al
100007e7d:	00 00 	addb	%al, (%rax)
100007e7f:	00 d9 	addb	%bl, %cl
100007e81:	04 09 	addb	$9, %al
100007e83:	00 00 	addb	%al, (%rax)
100007e85:	00 da 	addb	%bl, %dl
100007e87:	04 06 	addb	$6, %al
100007e89:	00 00 	addb	%al, (%rax)
100007e8b:	00 db 	addb	%bl, %bl
100007e8d:	04 06 	addb	$6, %al
100007e8f:	00 00 	addb	%al, (%rax)
100007e91:	00 dc 	addb	%bl, %ah
100007e93:	04 06 	addb	$6, %al
100007e95:	00 00 	addb	%al, (%rax)
100007e97:	00 dd 	addb	%bl, %ch
100007e99:	04 06 	addb	$6, %al
100007e9b:	00 00 	addb	%al, (%rax)
100007e9d:	00 de 	addb	%bl, %dh
100007e9f:	04 06 	addb	$6, %al
100007ea1:	00 00 	addb	%al, (%rax)
100007ea3:	00 df 	addb	%bl, %bh
100007ea5:	04 06 	addb	$6, %al
100007ea7:	00 00 	addb	%al, (%rax)
100007ea9:	00 e0 	addb	%ah, %al
100007eab:	04 07 	addb	$7, %al
100007ead:	00 00 	addb	%al, (%rax)
100007eaf:	00 0e 	addb	%cl, (%rsi)
100007eb1:	20 cc 	andb	%cl, %ah
100007eb3:	04 02 	addb	$2, %al
100007eb5:	00 00 	addb	%al, (%rax)
100007eb7:	00 0e 	addb	%cl, (%rsi)
100007eb9:	18 c5 	sbbb	%al, %ch
100007ebb:	04 01 	addb	$1, %al
100007ebd:	00 00 	addb	%al, (%rax)
100007ebf:	00 0e 	addb	%cl, (%rsi)
100007ec1:	10 c4 	adcb	%al, %ah
100007ec3:	04 01 	addb	$1, %al
100007ec5:	00 00 	addb	%al, (%rax)
100007ec7:	00 0e 	addb	%cl, (%rsi)
100007ec9:	08 04 01 	orb	%al, (%rcx,%rax)
100007ecc:	00 00 	addb	%al, (%rax)
100007ece:	00 0e 	addb	%cl, (%rsi)
100007ed0:	c0 01 84 	rolb	$132, (%rcx)
100007ed3:	02 85 03 8c 04 97 	addb	-1761309693(%rbp), %al
100007ed9:	14 98 	adcb	$-104, %al
100007edb:	18 99 06 9a 08 9b 	sbbb	%bl, -1693935098(%rcx)
100007ee1:	0a 9c 0c 9d 0e 9e 10 	orb	278793885(%rsp,%rcx), %bl
100007ee8:	9f 	lahf
100007ee9:	12 a0 16 04 0a 00 	adcb	656406(%rax), %ah
100007eef:	00 00 	addb	%al, (%rax)
100007ef1:	d7 	xlatb
100007ef2:	04 04 	addb	$4, %al
100007ef4:	00 00 	addb	%al, (%rax)
100007ef6:	00 d8 	addb	%bl, %al
100007ef8:	04 09 	addb	$9, %al
100007efa:	00 00 	addb	%al, (%rax)
100007efc:	00 d9 	addb	%bl, %cl
100007efe:	04 09 	addb	$9, %al
100007f00:	00 00 	addb	%al, (%rax)
100007f02:	00 da 	addb	%bl, %dl
100007f04:	04 06 	addb	$6, %al
100007f06:	00 00 	addb	%al, (%rax)
100007f08:	00 db 	addb	%bl, %bl
100007f0a:	04 06 	addb	$6, %al
100007f0c:	00 00 	addb	%al, (%rax)
100007f0e:	00 dc 	addb	%bl, %ah
100007f10:	04 06 	addb	$6, %al
100007f12:	00 00 	addb	%al, (%rax)
100007f14:	00 dd 	addb	%bl, %ch
100007f16:	04 06 	addb	$6, %al
100007f18:	00 00 	addb	%al, (%rax)
100007f1a:	00 de 	addb	%bl, %dh
100007f1c:	04 06 	addb	$6, %al
100007f1e:	00 00 	addb	%al, (%rax)
100007f20:	00 df 	addb	%bl, %bh
100007f22:	04 06 	addb	$6, %al
100007f24:	00 00 	addb	%al, (%rax)
100007f26:	00 e0 	addb	%ah, %al
100007f28:	04 17 	addb	$23, %al
100007f2a:	00 00 	addb	%al, (%rax)
100007f2c:	00 0e 	addb	%cl, (%rsi)
100007f2e:	20 cc 	andb	%cl, %ah
100007f30:	04 02 	addb	$2, %al
100007f32:	00 00 	addb	%al, (%rax)
100007f34:	00 0e 	addb	%cl, (%rsi)
100007f36:	18 c5 	sbbb	%al, %ch
100007f38:	04 01 	addb	$1, %al
100007f3a:	00 00 	addb	%al, (%rax)
100007f3c:	00 0e 	addb	%cl, (%rsi)
100007f3e:	10 c4 	adcb	%al, %ah
100007f40:	04 01 	addb	$1, %al
100007f42:	00 00 	addb	%al, (%rax)
100007f44:	00 0e 	addb	%cl, (%rsi)
100007f46:	08 04 01 	orb	%al, (%rcx,%rax)
100007f49:	00 00 	addb	%al, (%rax)
100007f4b:	00 0e 	addb	%cl, (%rsi)
100007f4d:	c0 01 84 	rolb	$132, (%rcx)
100007f50:	02 85 03 8c 04 97 	addb	-1761309693(%rbp), %al
100007f56:	14 98 	adcb	$-104, %al
100007f58:	18 99 06 9a 08 9b 	sbbb	%bl, -1693935098(%rcx)
100007f5e:	0a 9c 0c 9d 0e 9e 10 	orb	278793885(%rsp,%rcx), %bl
100007f65:	9f 	lahf
100007f66:	12 a0 16 04 92 01 	adcb	26346518(%rax), %ah
100007f6c:	00 00 	addb	%al, (%rax)
100007f6e:	d7 	xlatb
100007f6f:	04 08 	addb	$8, %al
100007f71:	00 00 	addb	%al, (%rax)
100007f73:	00 d8 	addb	%bl, %al
100007f75:	04 09 	addb	$9, %al
100007f77:	00 00 	addb	%al, (%rax)
100007f79:	00 d9 	addb	%bl, %cl
100007f7b:	04 09 	addb	$9, %al
100007f7d:	00 00 	addb	%al, (%rax)
100007f7f:	00 da 	addb	%bl, %dl
100007f81:	04 06 	addb	$6, %al
100007f83:	00 00 	addb	%al, (%rax)
100007f85:	00 db 	addb	%bl, %bl
100007f87:	04 06 	addb	$6, %al
100007f89:	00 00 	addb	%al, (%rax)
100007f8b:	00 dc 	addb	%bl, %ah
100007f8d:	04 06 	addb	$6, %al
100007f8f:	00 00 	addb	%al, (%rax)
100007f91:	00 dd 	addb	%bl, %ch
100007f93:	04 06 	addb	$6, %al
100007f95:	00 00 	addb	%al, (%rax)
100007f97:	00 de 	addb	%bl, %dh
100007f99:	04 06 	addb	$6, %al
100007f9b:	00 00 	addb	%al, (%rax)
100007f9d:	00 df 	addb	%bl, %bh
100007f9f:	04 06 	addb	$6, %al
100007fa1:	00 00 	addb	%al, (%rax)
100007fa3:	00 e0 	addb	%ah, %al
100007fa5:	04 07 	addb	$7, %al
100007fa7:	00 00 	addb	%al, (%rax)
100007fa9:	00 0e 	addb	%cl, (%rsi)
100007fab:	20 cc 	andb	%cl, %ah
100007fad:	04 02 	addb	$2, %al
100007faf:	00 00 	addb	%al, (%rax)
100007fb1:	00 0e 	addb	%cl, (%rsi)
100007fb3:	18 c5 	sbbb	%al, %ch
100007fb5:	04 01 	addb	$1, %al
100007fb7:	00 00 	addb	%al, (%rax)
100007fb9:	00 0e 	addb	%cl, (%rsi)
100007fbb:	10 c4 	adcb	%al, %ah
100007fbd:	04 01 	addb	$1, %al
100007fbf:	00 00 	addb	%al, (%rax)
100007fc1:	00 0e 	addb	%cl, (%rsi)
100007fc3:	08 04 01 	orb	%al, (%rcx,%rax)
100007fc6:	00 00 	addb	%al, (%rax)
100007fc8:	00 0e 	addb	%cl, (%rsi)
100007fca:	c0 01 84 	rolb	$132, (%rcx)
100007fcd:	02 85 03 8c 04 97 	addb	-1761309693(%rbp), %al
100007fd3:	14 98 	adcb	$-104, %al
100007fd5:	18 99 06 9a 08 9b 	sbbb	%bl, -1693935098(%rcx)
100007fdb:	0a 9c 0c 9d 0e 9e 10 	orb	278793885(%rsp,%rcx), %bl
100007fe2:	9f 	lahf
100007fe3:	12 a0  <unknown>
100007fe5:	16  <unknown>
100007fe6:	00 00 	addb	%al, (%rax)
Disassembly of section __DATA,__got:
__got:
100008000:	00 00 	addb	%al, (%rax)
100008002:	00 00 	addb	%al, (%rax)
100008004:	00 00 	addb	%al, (%rax)
100008006:	00 00 	addb	%al, (%rax)
Disassembly of section __DATA,__nl_symbol_ptr:
__nl_symbol_ptr:
100008008:	00 00 	addb	%al, (%rax)
10000800a:	00 00 	addb	%al, (%rax)
10000800c:	00 00 	addb	%al, (%rax)
10000800e:	00 00 	addb	%al, (%rax)
100008010:	00 00 	addb	%al, (%rax)
100008012:	00 00 	addb	%al, (%rax)
100008014:	00 00 	addb	%al, (%rax)
100008016:	00 00 	addb	%al, (%rax)
Disassembly of section __DATA,__la_symbol_ptr:
__la_symbol_ptr:
100008018:	bc 64 00 00 01 	movl	$16777316, %esp
10000801d:	00 00 	addb	%al, (%rax)
10000801f:	00 c6 	addb	%al, %dh
100008021:	64 00 00 	addb	%al, %fs:(%rax)
100008024:	01 00 	addl	%eax, (%rax)
100008026:	00 00 	addb	%al, (%rax)
100008028:	d0 64 00 00 	shlb	(%rax,%rax)
10000802c:	01 00 	addl	%eax, (%rax)
10000802e:	00 00 	addb	%al, (%rax)
100008030:	da 64 00 00 	fisubl	(%rax,%rax)
100008034:	01 00 	addl	%eax, (%rax)
100008036:	00 00 	addb	%al, (%rax)
100008038:	e4 64 	inb	$100, %al
10000803a:	00 00 	addb	%al, (%rax)
10000803c:	01 00 	addl	%eax, (%rax)
10000803e:	00 00 	addb	%al, (%rax)
100008040:	ee 	outb	%al, %dx
100008041:	64 00 00 	addb	%al, %fs:(%rax)
100008044:	01 00 	addl	%eax, (%rax)
100008046:	00 00 	addb	%al, (%rax)
100008048:	f8 	clc
100008049:	64 00 00 	addb	%al, %fs:(%rax)
10000804c:	01 00 	addl	%eax, (%rax)
10000804e:	00 00 	addb	%al, (%rax)
100008050:	02 65 00 	addb	(%rbp), %ah
100008053:	00 01 	addb	%al, (%rcx)
100008055:	00 00 	addb	%al, (%rax)
100008057:	00 0c 65 00 00 01 00 	addb	%cl, 65536
10000805e:	00 00 	addb	%al, (%rax)
100008060:	16  <unknown>
100008061:	65 00 00 	addb	%al, %gs:(%rax)
100008064:	01 00 	addl	%eax, (%rax)
100008066:	00 00 	addb	%al, (%rax)
100008068:	20 65 00 	andb	%ah, (%rbp)
10000806b:	00 01 	addb	%al, (%rcx)
10000806d:	00 00 	addb	%al, (%rax)
10000806f:	00 2a 	addb	%ch, (%rdx)
100008071:	65 00 00 	addb	%al, %gs:(%rax)
100008074:	01 00 	addl	%eax, (%rax)
100008076:	00 00 	addb	%al, (%rax)
100008078:	34 65 	xorb	$101, %al
10000807a:	00 00 	addb	%al, (%rax)
10000807c:	01 00 	addl	%eax, (%rax)
10000807e:	00 00 	addb	%al, (%rax)
100008080:	3e 65 00 00 	addb	%al, %gs:(%rax)
100008084:	01 00 	addl	%eax, (%rax)
100008086:	00 00 	addb	%al, (%rax)
100008088:	48 65 	gs
10000808a:	00 00 	addb	%al, (%rax)
10000808c:	01 00 	addl	%eax, (%rax)
10000808e:	00 00 	addb	%al, (%rax)
Disassembly of section __DATA,__debug_opt_rpt:
__debug_opt_rpt:
100008090:	2e 69 74 74 5f 6e 6f 74 69 	imull	$1769238382, %cs:95(%rsp,%rsi,2), %esi
100008099:	66 79 5f 	jns	95 <__debug_opt_rpt+0x6B>
10000809c:	74 61 	je	97 <__debug_opt_rpt+0x6F>
10000809e:	62  <unknown>
10000809f:	00 02 	addb	%al, (%rdx)
1000080a1:	01 30 	addl	%esi, (%rax)
1000080a3:	00 26 	addb	%ah, (%rsi)
1000080a5:	00 00 	addb	%al, (%rax)
1000080a7:	00 90 02 00 00 30 	addb	%dl, 805306370(%rax)
1000080ad:	00 00 	addb	%al, (%rax)
1000080af:	00 c0 	addb	%al, %al
1000080b1:	02 00 	addb	(%rax), %al
1000080b3:	00 37 	addb	%dh, (%rdi)
1000080b5:	02 00 	addb	(%rax), %al
1000080b7:	00 08 	addb	%cl, (%rax)
1000080b9:	00 00 	addb	%al, (%rax)
1000080bb:	00 00 	addb	%al, (%rax)
1000080bd:	00 00 	addb	%al, (%rax)
1000080bf:	00 b0 0a 00 00 01 	addb	%dh, 16777226(%rax)
1000080c5:	00 00 	addb	%al, (%rax)
1000080c7:	00 00 	addb	%al, (%rax)
1000080c9:	00 00 	addb	%al, (%rax)
1000080cb:	00 00 	addb	%al, (%rax)
1000080cd:	00 00 	addb	%al, (%rax)
1000080cf:	00 9a 0b 00 00 01 	addb	%bl, 16777227(%rdx)
1000080d5:	00 00 	addb	%al, (%rax)
1000080d7:	00 1c 00 	addb	%bl, (%rax,%rax)
1000080da:	00 00 	addb	%al, (%rax)
1000080dc:	04 00 	addb	$0, %al
1000080de:	00 00 	addb	%al, (%rax)
1000080e0:	3e 0c 00 	orb	$0, %al
1000080e3:	00 01 	addb	%al, (%rcx)
1000080e5:	00 00 	addb	%al, (%rax)
1000080e7:	00 1c 00 	addb	%bl, (%rax,%rax)
1000080ea:	00 00 	addb	%al, (%rax)
1000080ec:	14 00 	adcb	$0, %al
1000080ee:	00 00 	addb	%al, (%rax)
1000080f0:	5f 	popq	%rdi
1000080f1:	0c 00 	orb	$0, %al
1000080f3:	00 01 	addb	%al, (%rcx)
1000080f5:	00 00 	addb	%al, (%rax)
1000080f7:	00 1c 00 	addb	%bl, (%rax,%rax)
1000080fa:	00 00 	addb	%al, (%rax)
1000080fc:	20 00 	andb	%al, (%rax)
1000080fe:	00 00 	addb	%al, (%rax)
100008100:	84 0c 00 	testb	(%rax,%rax), %cl
100008103:	00 01 	addb	%al, (%rcx)
100008105:	00 00 	addb	%al, (%rax)
100008107:	00 1c 00 	addb	%bl, (%rax,%rax)
10000810a:	00 00 	addb	%al, (%rax)
10000810c:	32 00 	xorb	(%rax), %al
10000810e:	00 00 	addb	%al, (%rax)
100008110:	bb 0c 00 00 01 	movl	$16777228, %ebx
100008115:	00 00 	addb	%al, (%rax)
100008117:	00 1c 00 	addb	%bl, (%rax,%rax)
10000811a:	00 00 	addb	%al, (%rax)
10000811c:	3e 00 00 	addb	%al, %ds:(%rax)
10000811f:	00 86 0d 00 00 01 	addb	%al, 16777229(%rsi)
100008125:	00 00 	addb	%al, (%rax)
100008127:	00 1c 00 	addb	%bl, (%rax,%rax)
10000812a:	00 00 	addb	%al, (%rax)
10000812c:	4e 00 00 	addb	%r8b, (%rax)
10000812f:	00 64 0e 00 	addb	%ah, (%rsi,%rcx)
100008133:	00 01 	addb	%al, (%rcx)
100008135:	00 00 	addb	%al, (%rax)
100008137:	00 1c 00 	addb	%bl, (%rax,%rax)
10000813a:	00 00 	addb	%al, (%rax)
10000813c:	5e 	popq	%rsi
10000813d:	00 00 	addb	%al, (%rax)
10000813f:	00 f9 	addb	%bh, %cl
100008141:	0e  <unknown>
100008142:	00 00 	addb	%al, (%rax)
100008144:	01 00 	addl	%eax, (%rax)
100008146:	00 00 	addb	%al, (%rax)
100008148:	1c 00 	sbbb	$0, %al
10000814a:	00 00 	addb	%al, (%rax)
10000814c:	6e 	outsb	(%rsi), %dx
10000814d:	00 00 	addb	%al, (%rax)
10000814f:	00 8a 0f 00 00 01 	addb	%cl, 16777231(%rdx)
100008155:	00 00 	addb	%al, (%rax)
100008157:	00 1c 00 	addb	%bl, (%rax,%rax)
10000815a:	00 00 	addb	%al, (%rax)
10000815c:	7c 00 	jl	0 <__debug_opt_rpt+0xCE>
10000815e:	00 00 	addb	%al, (%rax)
100008160:	bc 0f 00 00 01 	movl	$16777231, %esp
100008165:	00 00 	addb	%al, (%rax)
100008167:	00 1c 00 	addb	%bl, (%rax,%rax)
10000816a:	00 00 	addb	%al, (%rax)
10000816c:	88 00 	movb	%al, (%rax)
10000816e:	00 00 	addb	%al, (%rax)
100008170:	ea  <unknown>
100008171:	0f 00 00 	sldtw	(%rax)
100008174:	01 00 	addl	%eax, (%rax)
100008176:	00 00 	addb	%al, (%rax)
100008178:	1c 00 	sbbb	$0, %al
10000817a:	00 00 	addb	%al, (%rax)
10000817c:	9a  <unknown>
10000817d:	00 00 	addb	%al, (%rax)
10000817f:	00 96 10 00 00 01 	addb	%dl, 16777232(%rsi)
100008185:	00 00 	addb	%al, (%rax)
100008187:	00 1c 00 	addb	%bl, (%rax,%rax)
10000818a:	00 00 	addb	%al, (%rax)
10000818c:	a6 	cmpsb	%es:(%rdi), (%rsi)
10000818d:	00 00 	addb	%al, (%rax)
10000818f:	00 bd 10 00 00 01 	addb	%bh, 16777232(%rbp)
100008195:	00 00 	addb	%al, (%rax)
100008197:	00 1c 00 	addb	%bl, (%rax,%rax)
10000819a:	00 00 	addb	%al, (%rax)
10000819c:	b7 00 	movb	$0, %bh
10000819e:	00 00 	addb	%al, (%rax)
1000081a0:	f4 	hlt
1000081a1:	11 00 	adcl	%eax, (%rax)
1000081a3:	00 01 	addb	%al, (%rcx)
1000081a5:	00 00 	addb	%al, (%rax)
1000081a7:	00 1c 00 	addb	%bl, (%rax,%rax)
1000081aa:	00 00 	addb	%al, (%rax)
1000081ac:	c7 00 00 00 1a 12 	movl	$303693824, (%rax)
1000081b2:	00 00 	addb	%al, (%rax)
1000081b4:	01 00 	addl	%eax, (%rax)
1000081b6:	00 00 	addb	%al, (%rax)
1000081b8:	1c 00 	sbbb	$0, %al
1000081ba:	00 00 	addb	%al, (%rax)
1000081bc:	d8 00 	fadds	(%rax)
1000081be:	00 00 	addb	%al, (%rax)
1000081c0:	10 14 00 	adcb	%dl, (%rax,%rax)
1000081c3:	00 01 	addb	%al, (%rcx)
1000081c5:	00 00 	addb	%al, (%rax)
1000081c7:	00 1c 00 	addb	%bl, (%rax,%rax)
1000081ca:	00 00 	addb	%al, (%rax)
1000081cc:	e8 00 00 00 65 	callq	1694498816 <___intel_cpu_feature_indicator_x+0x64FFF289>
1000081d1:	14 00 	adcb	$0, %al
1000081d3:	00 01 	addb	%al, (%rcx)
1000081d5:	00 00 	addb	%al, (%rax)
1000081d7:	00 1c 00 	addb	%bl, (%rax,%rax)
1000081da:	00 00 	addb	%al, (%rax)
1000081dc:	f6 00 00 	testb	$0, (%rax)
1000081df:	00 7b 14 	addb	%bh, 20(%rbx)
1000081e2:	00 00 	addb	%al, (%rax)
1000081e4:	01 00 	addl	%eax, (%rax)
1000081e6:	00 00 	addb	%al, (%rax)
1000081e8:	1c 00 	sbbb	$0, %al
1000081ea:	00 00 	addb	%al, (%rax)
1000081ec:	09 01 	orl	%eax, (%rcx)
1000081ee:	00 00 	addb	%al, (%rax)
1000081f0:	42 15 00 00 01 00 	adcl	$65536, %eax
1000081f6:	00 00 	addb	%al, (%rax)
1000081f8:	1c 00 	sbbb	$0, %al
1000081fa:	00 00 	addb	%al, (%rax)
1000081fc:	1a 01 	sbbb	(%rcx), %al
1000081fe:	00 00 	addb	%al, (%rax)
100008200:	02 16 	addb	(%rsi), %dl
100008202:	00 00 	addb	%al, (%rax)
100008204:	01 00 	addl	%eax, (%rax)
100008206:	00 00 	addb	%al, (%rax)
100008208:	1c 00 	sbbb	$0, %al
10000820a:	00 00 	addb	%al, (%rax)
10000820c:	2a 01 	subb	(%rcx), %al
10000820e:	00 00 	addb	%al, (%rax)
100008210:	95 	xchgl	%ebp, %eax
100008211:	17  <unknown>
100008212:	00 00 	addb	%al, (%rax)
100008214:	01 00 	addl	%eax, (%rax)
100008216:	00 00 	addb	%al, (%rax)
100008218:	1c 00 	sbbb	$0, %al
10000821a:	00 00 	addb	%al, (%rax)
10000821c:	3a 01 	cmpb	(%rcx), %al
10000821e:	00 00 	addb	%al, (%rax)
100008220:	28 18 	subb	%bl, (%rax)
100008222:	00 00 	addb	%al, (%rax)
100008224:	01 00 	addl	%eax, (%rax)
100008226:	00 00 	addb	%al, (%rax)
100008228:	1c 00 	sbbb	$0, %al
10000822a:	00 00 	addb	%al, (%rax)
10000822c:	4a 01 00 	addq	%rax, (%rax)
10000822f:	00 44 18 00 	addb	%al, (%rax,%rbx)
100008233:	00 01 	addb	%al, (%rcx)
100008235:	00 00 	addb	%al, (%rax)
100008237:	00 1c 00 	addb	%bl, (%rax,%rax)
10000823a:	00 00 	addb	%al, (%rax)
10000823c:	56 	pushq	%rsi
10000823d:	01 00 	addl	%eax, (%rax)
10000823f:	00 64 18 00 	addb	%ah, (%rax,%rbx)
100008243:	00 01 	addb	%al, (%rcx)
100008245:	00 00 	addb	%al, (%rax)
100008247:	00 1c 00 	addb	%bl, (%rax,%rax)
10000824a:	00 00 	addb	%al, (%rax)
10000824c:	68 01 00 00 9d 	pushq	$-1660944383
100008251:	18 00 	sbbb	%al, (%rax)
100008253:	00 01 	addb	%al, (%rcx)
100008255:	00 00 	addb	%al, (%rax)
100008257:	00 1c 00 	addb	%bl, (%rax,%rax)
10000825a:	00 00 	addb	%al, (%rax)
10000825c:	74 01 	je	1 <__debug_opt_rpt+0x1CF>
10000825e:	00 00 	addb	%al, (%rax)
100008260:	5e 	popq	%rsi
100008261:	19 00 	sbbl	%eax, (%rax)
100008263:	00 01 	addb	%al, (%rcx)
100008265:	00 00 	addb	%al, (%rax)
100008267:	00 1c 00 	addb	%bl, (%rax,%rax)
10000826a:	00 00 	addb	%al, (%rax)
10000826c:	84 01 	testb	(%rcx), %al
10000826e:	00 00 	addb	%al, (%rax)
100008270:	42 1a 00 	sbbb	(%rax), %al
100008273:	00 01 	addb	%al, (%rcx)
100008275:	00 00 	addb	%al, (%rax)
100008277:	00 1c 00 	addb	%bl, (%rax,%rax)
10000827a:	00 00 	addb	%al, (%rax)
10000827c:	94 	xchgl	%esp, %eax
10000827d:	01 00 	addl	%eax, (%rax)
10000827f:	00 68 1a 	addb	%ch, 26(%rax)
100008282:	00 00 	addb	%al, (%rax)
100008284:	01 00 	addl	%eax, (%rax)
100008286:	00 00 	addb	%al, (%rax)
100008288:	1c 00 	sbbb	$0, %al
10000828a:	00 00 	addb	%al, (%rax)
10000828c:	a1 01 00 00 05 1b 00 00 01 	movabsl	72057710085931009, %eax
100008295:	00 00 	addb	%al, (%rax)
100008297:	00 1c 00 	addb	%bl, (%rax,%rax)
10000829a:	00 00 	addb	%al, (%rax)
10000829c:	af 	scasl	%es:(%rdi), %eax
10000829d:	01 00 	addl	%eax, (%rax)
10000829f:	00 20 	addb	%ah, (%rax)
1000082a1:	1b 00 	sbbl	(%rax), %eax
1000082a3:	00 01 	addb	%al, (%rcx)
1000082a5:	00 00 	addb	%al, (%rax)
1000082a7:	00 1c 00 	addb	%bl, (%rax,%rax)
1000082aa:	00 00 	addb	%al, (%rax)
1000082ac:	bb 01 00 00 40 	movl	$1073741825, %ebx
1000082b1:	1b 00 	sbbl	(%rax), %eax
1000082b3:	00 01 	addb	%al, (%rcx)
1000082b5:	00 00 	addb	%al, (%rax)
1000082b7:	00 1c 00 	addb	%bl, (%rax,%rax)
1000082ba:	00 00 	addb	%al, (%rax)
1000082bc:	cd 01 	int	$1
1000082be:	00 00 	addb	%al, (%rax)
1000082c0:	90 	nop
1000082c1:	1b 00 	sbbl	(%rax), %eax
1000082c3:	00 01 	addb	%al, (%rcx)
1000082c5:	00 00 	addb	%al, (%rax)
1000082c7:	00 1c 00 	addb	%bl, (%rax,%rax)
1000082ca:	00 00 	addb	%al, (%rax)
1000082cc:	d9 01 	flds	(%rcx)
1000082ce:	00 00 	addb	%al, (%rax)
1000082d0:	16  <unknown>
1000082d1:	1c 00 	sbbb	$0, %al
1000082d3:	00 01 	addb	%al, (%rcx)
1000082d5:	00 00 	addb	%al, (%rax)
1000082d7:	00 1c 00 	addb	%bl, (%rax,%rax)
1000082da:	00 00 	addb	%al, (%rax)
1000082dc:	e7 01 	outl	%eax, $1
1000082de:	00 00 	addb	%al, (%rax)
1000082e0:	3d 1c 00 00 01 	cmpl	$16777244, %eax
1000082e5:	00 00 	addb	%al, (%rax)
1000082e7:	00 1c 00 	addb	%bl, (%rax,%rax)
1000082ea:	00 00 	addb	%al, (%rax)
1000082ec:	f8 	clc
1000082ed:	01 00 	addl	%eax, (%rax)
1000082ef:	00 70 1d 	addb	%dh, 29(%rax)
1000082f2:	00 00 	addb	%al, (%rax)
1000082f4:	01 00 	addl	%eax, (%rax)
1000082f6:	00 00 	addb	%al, (%rax)
1000082f8:	1c 00 	sbbb	$0, %al
1000082fa:	00 00 	addb	%al, (%rax)
1000082fc:	08 02 	orb	%al, (%rdx)
1000082fe:	00 00 	addb	%al, (%rax)
100008300:	97 	xchgl	%edi, %eax
100008301:	1d 00 00 01 00 	sbbl	$65536, %eax
100008306:	00 00 	addb	%al, (%rax)
100008308:	1c 00 	sbbb	$0, %al
10000830a:	00 00 	addb	%al, (%rax)
10000830c:	19 02 	sbbl	%eax, (%rdx)
10000830e:	00 00 	addb	%al, (%rax)
100008310:	f1  <unknown>
100008311:	1e  <unknown>
100008312:	00 00 	addb	%al, (%rax)
100008314:	01 00 	addl	%eax, (%rax)
100008316:	00 00 	addb	%al, (%rax)
100008318:	1c 00 	sbbb	$0, %al
10000831a:	00 00 	addb	%al, (%rax)
10000831c:	29 02 	subl	%eax, (%rdx)
10000831e:	00 00 	addb	%al, (%rax)
100008320:	6f 	outsl	(%rsi), %dx
100008321:	70 74 	jo	116 <__debug_opt_rpt+0x307>
100008323:	69 6d 69 7a 61 74 69 	imull	$1769234810, 105(%rbp), %ebp
10000832a:	6f 	outsl	(%rsi), %dx
10000832b:	6e 	outsb	(%rsi), %dx
10000832c:	5f 	popq	%rdi
10000832d:	72 65 	jb	101 <__debug_opt_rpt+0x304>
10000832f:	70 6f 	jo	111 <__debug_opt_rpt+0x310>
100008331:	72 74 	jb	116 <__debug_opt_rpt+0x317>
100008333:	5f 	popq	%rdi
100008334:	76 65 	jbe	101 <__debug_opt_rpt+0x30B>
100008336:	72 73 	jb	115 <__debug_opt_rpt+0x31B>
100008338:	69 6f 6e 00 6f 70 74 	imull	$1953525504, 110(%rdi), %ebp
10000833f:	69 6d 69 7a 61 74 69 	imull	$1769234810, 105(%rbp), %ebp
100008346:	6f 	outsl	(%rsi), %dx
100008347:	6e 	outsb	(%rsi), %dx
100008348:	5f 	popq	%rdi
100008349:	72 65 	jb	101 <__debug_opt_rpt+0x320>
10000834b:	70 6f 	jo	111 <__debug_opt_rpt+0x32C>
10000834d:	72 74 	jb	116 <__debug_opt_rpt+0x333>
10000834f:	00 03 	addb	%al, (%rbx)
100008351:	10 84 02 0f 10 80 80 	adcb	%al, -2139090929(%rdx,%rax)
100008358:	80 80 80 80 80 80 80 	addb	$-128, -2139062144(%rax)
10000835f:	80 8c 87 80 40 0b 10 80 	orb	$-128, 269172864(%rdi,%rax,4)
100008367:	81 80 80 80 80 80 80 80 04 11 	addl	$285507712, -2139062144(%rax)
100008371:	10 80 81 80 80 80 	adcb	%al, -2139062143(%rax)
100008377:	80 80 80 80 82 82 d8 	addb	$-40, -2105376640(%rax)
10000837e:	ef 	outl	%eax, %dx
10000837f:	c8 a8 60 0b 	enter	$24744, $11
100008383:	10 80 81 80 80 80 	adcb	%al, -2139062143(%rax)
100008389:	80 80 80 80 08 0f 10 	addb	$16, 252215424(%rax)
100008390:	80 80 80 80 80 80 80 	addb	$-128, -2139062144(%rax)
100008397:	80 88 80 a8 80 80 40 	orb	$64, -2139051904(%rax)
10000839e:	0f 10 80 80 80 80 80 	movups	-2139062144(%rax), %xmm0
1000083a5:	80 80 80 88 80 a8 80 	addb	$-128, -1467971456(%rax)
1000083ac:	80 40 0f 10 	addb	$16, 15(%rax)
1000083b0:	80 80 80 80 80 80 80 	addb	$-128, -2139062144(%rax)
1000083b7:	80 80 80 f0 86 80 40 	addb	$64, -2138640256(%rax)
1000083be:	0d 10 80 80 80 	orl	$2155905040, %eax
1000083c3:	80 80 80 80 80 80 80 	addb	$-128, -2139062144(%rax)
1000083ca:	c8 07 0b 10 	enter	$2823, $16
1000083ce:	80 81 80 80 80 80 80 	addb	$-128, -2139062144(%rcx)
1000083d5:	80 80 04 11 10 80 81 	addb	$-127, -2146430716(%rax)
1000083dc:	80 80 80 80 80 80 80 	addb	$-128, -2139062144(%rax)
1000083e3:	82  <unknown>
1000083e4:	82  <unknown>
1000083e5:	d8 ef 	fsubr	%st(7)
1000083e7:	c8 a8 60 0b 	enter	$24744, $11
1000083eb:	10 80 81 80 80 80 	adcb	%al, -2139062143(%rax)
1000083f1:	80 80 80 80 08 10 10 	addb	$16, 268992640(%rax)
1000083f8:	80 80 80 80 80 80 80 	addb	$-128, -2139062144(%rax)
1000083ff:	80 88 80 b0 81 80 80 	orb	$-128, -2138984320(%rax)
100008406:	01 0f 	addl	%ecx, (%rdi)
100008408:	10 80 80 80 80 80 	adcb	%al, -2139062144(%rax)
10000840e:	80 80 80 88 80 b0 81 	addb	$-127, -1333753728(%rax)
100008415:	80 40 10 10 	addb	$16, 16(%rax)
100008419:	80 80 80 80 80 80 80 	addb	$-128, -2139062144(%rax)
100008420:	80 88 80 b0 81 80 80 	orb	$-128, -2138984320(%rax)
100008427:	01 0f 	addl	%ecx, (%rdi)
100008429:	10 80 80 80 80 80 	adcb	%al, -2139062144(%rax)
10000842f:	80 80 80 88 80 b0 81 	addb	$-127, -1333753728(%rax)
100008436:	80 40 0d 10 	addb	$16, 13(%rax)
10000843a:	80 80 80 80 80 80 80 	addb	$-128, -2139062144(%rax)
100008441:	80 80 80 c8 07 12 10 	addb	$16, 302499968(%rax)
100008448:	c0 80 88 81 c0 80 80 	rolb	$128, -2134867576(%rax)
10000844f:	80 80 82 82 e0 ad c8 	addb	$-56, -1377795454(%rax)
100008456:	87 dd 	xchgl	%ebx, %ebp
100008458:	08 10 	orb	%dl, (%rax)
10000845a:	10 c0 	adcb	%al, %al
10000845c:	80 88 82 c0 90 80 80 	orb	$-128, -2137997182(%rax)
100008463:	80 80 90 80 80 80 01 	addb	$1, -2139062128(%rax)
10000846a:	0f 10 80 80 80 80 80 	movups	-2139062144(%rax), %xmm0
100008471:	80 80 80 88 80 b0 81 	addb	$-127, -1333753728(%rax)
100008478:	80 40 0f 10 	addb	$16, 15(%rax)
10000847c:	80 80 80 80 80 80 80 	addb	$-128, -2139062144(%rax)
100008483:	80 88 80 b0 81 80 40 	orb	$64, -2138984320(%rax)
10000848a:	0f 10 80 80 80 80 80 	movups	-2139062144(%rax), %xmm0
100008491:	80 80 80 80 80 8c 87 	addb	$-121, -1937735552(%rax)
100008498:	80 40 0b 10 	addb	$16, 11(%rax)
10000849c:	80 81 80 80 80 80 80 	addb	$-128, -2139062144(%rcx)
1000084a3:	80 80 04 11 10 80 81 	addb	$-127, -2146430716(%rax)
1000084aa:	80 80 80 80 80 80 80 	addb	$-128, -2139062144(%rax)
1000084b1:	82  <unknown>
1000084b2:	82  <unknown>
1000084b3:	d8 ef 	fsubr	%st(7)
1000084b5:	c8 a8 60 0b 	enter	$24744, $11
1000084b9:	10 80 81 80 80 80 	adcb	%al, -2139062143(%rax)
1000084bf:	80 80 80 80 08 0f 10 	addb	$16, 252215424(%rax)
1000084c6:	80 80 80 80 80 80 80 	addb	$-128, -2139062144(%rax)
1000084cd:	80 88 80 a8 80 80 40 	orb	$64, -2139051904(%rax)
1000084d4:	0f 10 80 80 80 80 80 	movups	-2139062144(%rax), %xmm0
1000084db:	80 80 80 88 80 a8 80 	addb	$-128, -1467971456(%rax)
1000084e2:	80 40 0c 10 	addb	$16, 12(%rax)
1000084e6:	80 80 80 80 80 80 80 	addb	$-128, -2139062144(%rax)
1000084ed:	80 80 80 60 0d 10 80 	addb	$-128, 269312128(%rax)
1000084f4:	80 80 80 80 80 80 80 	addb	$-128, -2139062144(%rax)
1000084fb:	80 80 c8 07 0b 10 80 	addb	$-128, 269158344(%rax)
100008502:	81 80 80 80 80 80 80 80 04 11 	addl	$285507712, -2139062144(%rax)
10000850c:	10 80 81 80 80 80 	adcb	%al, -2139062143(%rax)
100008512:	80 80 80 80 82 82 d8 	addb	$-40, -2105376640(%rax)
100008519:	ef 	outl	%eax, %dx
10000851a:	c8 a8 60 0b 	enter	$24744, $11
10000851e:	10 80 81 80 80 80 	adcb	%al, -2139062143(%rax)
100008524:	80 80 80 80 08 0d 10 	addb	$16, 218660992(%rax)
10000852b:	80 80 80 80 80 80 80 	addb	$-128, -2139062144(%rax)
100008532:	80 80 80 c8 07 10 10 	addb	$16, 268945536(%rax)
100008539:	80 80 80 80 80 80 80 	addb	$-128, -2139062144(%rax)
100008540:	80 88 80 b0 81 80 80 	orb	$-128, -2138984320(%rax)
100008547:	01 0f 	addl	%ecx, (%rdi)
100008549:	10 80 80 80 80 80 	adcb	%al, -2139062144(%rax)
10000854f:	80 80 80 88 80 b0 81 	addb	$-127, -1333753728(%rax)
100008556:	80 40 10 10 	addb	$16, 16(%rax)
10000855a:	80 80 80 80 80 80 80 	addb	$-128, -2139062144(%rax)
100008561:	80 88 80 b0 81 80 80 	orb	$-128, -2138984320(%rax)
100008568:	01 0f 	addl	%ecx, (%rdi)
10000856a:	10 80 80 80 80 80 	adcb	%al, -2139062144(%rax)
100008570:	80 80 80 88 80 b0 81 	addb	$-127, -1333753728(%rax)
100008577:	80 40 0d 10 	addb	$16, 13(%rax)
10000857b:	80 80 80 80 80 80 80 	addb	$-128, -2139062144(%rax)
100008582:	80 80  <unknown>
100008584:	80 c8 07 	orb	$7, %al
Disassembly of section __DATA,__data:
_irc_msgtab:
1000085a0:	00 00 	addb	%al, (%rax)
1000085a2:	00 00 	addb	%al, (%rax)
1000085a4:	01 00 	addl	%eax, (%rax)
1000085a6:	00 00 	addb	%al, (%rax)
1000085a8:	44 6c 	insb	%dx, %es:(%rdi)
1000085aa:	00 00 	addb	%al, (%rax)
1000085ac:	01 00 	addl	%eax, (%rax)
1000085ae:	00 00 	addb	%al, (%rax)
1000085b0:	01 00 	addl	%eax, (%rax)
1000085b2:	00 00 	addb	%al, (%rax)
1000085b4:	04 00 	addb	$0, %al
1000085b6:	00 00 	addb	%al, (%rax)
1000085b8:	48 6c 	insb	%dx, %es:(%rdi)
1000085ba:	00 00 	addb	%al, (%rax)
1000085bc:	01 00 	addl	%eax, (%rax)
1000085be:	00 00 	addb	%al, (%rax)
1000085c0:	02 00 	addb	(%rax), %al
1000085c2:	00 00 	addb	%al, (%rax)
1000085c4:	01 00 	addl	%eax, (%rax)
1000085c6:	00 00 	addb	%al, (%rax)
1000085c8:	78 6c 	js	108 <_irc_msgtab+0x96>
1000085ca:	00 00 	addb	%al, (%rax)
1000085cc:	01 00 	addl	%eax, (%rax)
1000085ce:	00 00 	addb	%al, (%rax)
1000085d0:	03 00 	addl	(%rax), %eax
1000085d2:	00 00 	addb	%al, (%rax)
1000085d4:	01 00 	addl	%eax, (%rax)
1000085d6:	00 00 	addb	%al, (%rax)
1000085d8:	80 6c 00 00 01 	subb	$1, (%rax,%rax)
1000085dd:	00 00 	addb	%al, (%rax)
1000085df:	00 04 00 	addb	%al, (%rax,%rax)
1000085e2:	00 00 	addb	%al, (%rax)
1000085e4:	01 00 	addl	%eax, (%rax)
1000085e6:	00 00 	addb	%al, (%rax)
1000085e8:	88 6c 00 00 	movb	%ch, (%rax,%rax)
1000085ec:	01 00 	addl	%eax, (%rax)
1000085ee:	00 00 	addb	%al, (%rax)
1000085f0:	05 00 00 00 01 	addl	$16777216, %eax
1000085f5:	00 00 	addb	%al, (%rax)
1000085f7:	00 90 6c 00 00 01 	addb	%dl, 16777324(%rax)
1000085fd:	00 00 	addb	%al, (%rax)
1000085ff:	00 06 	addb	%al, (%rsi)
100008601:	00 00 	addb	%al, (%rax)
100008603:	00 01 	addb	%al, (%rcx)
100008605:	00 00 	addb	%al, (%rax)
100008607:	00 a0 6c 00 00 01 	addb	%ah, 16777324(%rax)
10000860d:	00 00 	addb	%al, (%rax)
10000860f:	00 07 	addb	%al, (%rdi)
100008611:	00 00 	addb	%al, (%rax)
100008613:	00 01 	addb	%al, (%rcx)
100008615:	00 00 	addb	%al, (%rax)
100008617:	00 b4 6c 00 00 01 00 	addb	%dh, 65536(%rsp,%rbp,2)
10000861e:	00 00 	addb	%al, (%rax)
100008620:	08 00 	orb	%al, (%rax)
100008622:	00 00 	addb	%al, (%rax)
100008624:	01 00 	addl	%eax, (%rax)
100008626:	00 00 	addb	%al, (%rax)
100008628:	c4 6c 00  <unknown>
10000862b:	00 01 	addb	%al, (%rcx)
10000862d:	00 00 	addb	%al, (%rax)
10000862f:	00 09 	addb	%cl, (%rcx)
100008631:	00 00 	addb	%al, (%rax)
100008633:	00 01 	addb	%al, (%rcx)
100008635:	00 00 	addb	%al, (%rax)
100008637:	00 dc 	addb	%bl, %ah
100008639:	6c 	insb	%dx, %es:(%rdi)
10000863a:	00 00 	addb	%al, (%rax)
10000863c:	01 00 	addl	%eax, (%rax)
10000863e:	00 00 	addb	%al, (%rax)
100008640:	0a 00 	orb	(%rax), %al
100008642:	00 00 	addb	%al, (%rax)
100008644:	01 00 	addl	%eax, (%rax)
100008646:	00 00 	addb	%al, (%rax)
100008648:	f8 	clc
100008649:	6c 	insb	%dx, %es:(%rdi)
10000864a:	00 00 	addb	%al, (%rax)
10000864c:	01 00 	addl	%eax, (%rax)
10000864e:	00 00 	addb	%al, (%rax)
100008650:	0b 00 	orl	(%rax), %eax
100008652:	00 00 	addb	%al, (%rax)
100008654:	04 00 	addb	$0, %al
100008656:	00 00 	addb	%al, (%rax)
100008658:	08 6d 00 	orb	%ch, (%rbp)
10000865b:	00 01 	addb	%al, (%rcx)
10000865d:	00 00 	addb	%al, (%rax)
10000865f:	00 0c 00 	addb	%cl, (%rax,%rax)
100008662:	00 00 	addb	%al, (%rax)
100008664:	04 00 	addb	$0, %al
100008666:	00 00 	addb	%al, (%rax)
100008668:	1c 6d 	sbbb	$109, %al
10000866a:	00 00 	addb	%al, (%rax)
10000866c:	01 00 	addl	%eax, (%rax)
10000866e:	00 00 	addb	%al, (%rax)
100008670:	0d 00 00 00 04 	orl	$67108864, %eax
100008675:	00 00 	addb	%al, (%rax)
100008677:	00 44 6d 00 	addb	%al, (%rbp,%rbp,2)
10000867b:	00 01 	addb	%al, (%rcx)
10000867d:	00 00 	addb	%al, (%rax)
10000867f:	00 0e 	addb	%cl, (%rsi)
100008681:	00 00 	addb	%al, (%rax)
100008683:	00 04 00 	addb	%al, (%rax,%rax)
100008686:	00 00 	addb	%al, (%rax)
100008688:	68 6d 00 00 01 	pushq	$16777325
10000868d:	00 00 	addb	%al, (%rax)
10000868f:	00 0f 	addb	%cl, (%rdi)
100008691:	00 00 	addb	%al, (%rax)
100008693:	00 04 00 	addb	%al, (%rax,%rax)
100008696:	00 00 	addb	%al, (%rax)
100008698:	94 	xchgl	%esp, %eax
100008699:	6d 	insl	%dx, %es:(%rdi)
10000869a:	00 00 	addb	%al, (%rax)
10000869c:	01 00 	addl	%eax, (%rax)
10000869e:	00 00 	addb	%al, (%rax)
1000086a0:	10 00 	adcb	%al, (%rax)
1000086a2:	00 00 	addb	%al, (%rax)
1000086a4:	04 00 	addb	$0, %al
1000086a6:	00 00 	addb	%al, (%rax)
1000086a8:	c8 6d 00 00 	enter	$109, $0
1000086ac:	01 00 	addl	%eax, (%rax)
1000086ae:	00 00 	addb	%al, (%rax)
1000086b0:	11 00 	adcl	%eax, (%rax)
1000086b2:	00 00 	addb	%al, (%rax)
1000086b4:	04 00 	addb	$0, %al
1000086b6:	00 00 	addb	%al, (%rax)
1000086b8:	e4 6d 	inb	$109, %al
1000086ba:	00 00 	addb	%al, (%rax)
1000086bc:	01 00 	addl	%eax, (%rax)
1000086be:	00 00 	addb	%al, (%rax)
1000086c0:	12 00 	adcb	(%rax), %al
1000086c2:	00 00 	addb	%al, (%rax)
1000086c4:	04 00 	addb	$0, %al
1000086c6:	00 00 	addb	%al, (%rax)
1000086c8:	1c 6e 	sbbb	$110, %al
1000086ca:	00 00 	addb	%al, (%rax)
1000086cc:	01 00 	addl	%eax, (%rax)
1000086ce:	00 00 	addb	%al, (%rax)
1000086d0:	13 00 	adcl	(%rax), %eax
1000086d2:	00 00 	addb	%al, (%rax)
1000086d4:	04 00 	addb	$0, %al
1000086d6:	00 00 	addb	%al, (%rax)
1000086d8:	38 6e 00 	cmpb	%ch, (%rsi)
1000086db:	00 01 	addb	%al, (%rcx)
1000086dd:	00 00 	addb	%al, (%rax)
1000086df:	00 14 00 	addb	%dl, (%rax,%rax)
1000086e2:	00 00 	addb	%al, (%rax)
1000086e4:	04 00 	addb	$0, %al
1000086e6:	00 00 	addb	%al, (%rax)
1000086e8:	4c 6e 	outsb	(%rsi), %dx
1000086ea:	00 00 	addb	%al, (%rax)
1000086ec:	01 00 	addl	%eax, (%rax)
1000086ee:	00 00 	addb	%al, (%rax)
1000086f0:	15 00 00 00 04 	adcl	$67108864, %eax
1000086f5:	00 00 	addb	%al, (%rax)
1000086f7:	00 60 6e 	addb	%ah, 110(%rax)
1000086fa:	00 00 	addb	%al, (%rax)
1000086fc:	01 00 	addl	%eax, (%rax)
1000086fe:	00 00 	addb	%al, (%rax)
100008700:	16  <unknown>
100008701:	00 00 	addb	%al, (%rax)
100008703:	00 04 00 	addb	%al, (%rax,%rax)
100008706:	00 00 	addb	%al, (%rax)
100008708:	74 6e 	je	110 <_irc_msgtab+0x1D8>
10000870a:	00 00 	addb	%al, (%rax)
10000870c:	01 00 	addl	%eax, (%rax)
10000870e:	00 00 	addb	%al, (%rax)
100008710:	17  <unknown>
100008711:	00 00 	addb	%al, (%rax)
100008713:	00 04 00 	addb	%al, (%rax,%rax)
100008716:	00 00 	addb	%al, (%rax)
100008718:	e0 65 	loopne	101
10000871a:	00 00 	addb	%al, (%rax)
10000871c:	01 00 	addl	%eax, (%rax)
10000871e:	00 00 	addb	%al, (%rax)
100008720:	18 00 	sbbb	%al, (%rax)
100008722:	00 00 	addb	%al, (%rax)
100008724:	04 00 	addb	$0, %al
100008726:	00 00 	addb	%al, (%rax)
100008728:	a4 	movsb	(%rsi), %es:(%rdi)
100008729:	6e 	outsb	(%rsi), %dx
10000872a:	00 00 	addb	%al, (%rax)
10000872c:	01 00 	addl	%eax, (%rax)
10000872e:	00 00 	addb	%al, (%rax)
100008730:	19 00 	sbbl	%eax, (%rax)
100008732:	00 00 	addb	%al, (%rax)
100008734:	04 00 	addb	$0, %al
100008736:	00 00 	addb	%al, (%rax)
100008738:	40 66 	data16
10000873a:	00 00 	addb	%al, (%rax)
10000873c:	01 00 	addl	%eax, (%rax)
10000873e:	00 00 	addb	%al, (%rax)
100008740:	1a 00 	sbbb	(%rax), %al
100008742:	00 00 	addb	%al, (%rax)
100008744:	04 00 	addb	$0, %al
100008746:	00 00 	addb	%al, (%rax)
100008748:	c4 6e 00  <unknown>
10000874b:	00 01 	addb	%al, (%rcx)
10000874d:	00 00 	addb	%al, (%rax)
10000874f:	00 1b 	addb	%bl, (%rbx)
100008751:	00 00 	addb	%al, (%rax)
100008753:	00 04 00 	addb	%al, (%rax,%rax)
100008756:	00 00 	addb	%al, (%rax)
100008758:	f4 	hlt
100008759:	6e 	outsb	(%rsi), %dx
10000875a:	00 00 	addb	%al, (%rax)
10000875c:	01 00 	addl	%eax, (%rax)
10000875e:	00 00 	addb	%al, (%rax)
100008760:	1c 00 	sbbb	$0, %al
100008762:	00 00 	addb	%al, (%rax)
100008764:	04 00 	addb	$0, %al
100008766:	00 00 	addb	%al, (%rax)
100008768:	2c 6f 	subb	$111, %al
10000876a:	00 00 	addb	%al, (%rax)
10000876c:	01 00 	addl	%eax, (%rax)
10000876e:	00 00 	addb	%al, (%rax)
100008770:	1d 00 00 00 04 	sbbl	$67108864, %eax
100008775:	00 00 	addb	%al, (%rax)
100008777:	00 44 6f 00 	addb	%al, (%rdi,%rbp,2)
10000877b:	00 01 	addb	%al, (%rcx)
10000877d:	00 00 	addb	%al, (%rax)
10000877f:	00 1e 	addb	%bl, (%rsi)
100008781:	00 00 	addb	%al, (%rax)
100008783:	00 04 00 	addb	%al, (%rax,%rax)
100008786:	00 00 	addb	%al, (%rax)
100008788:	a0 66 00 00 01 00 00 00 1f 	movabsb	2233785415192543334, %al
100008791:	00 00 	addb	%al, (%rax)
100008793:	00 04 00 	addb	%al, (%rax,%rax)
100008796:	00 00 	addb	%al, (%rax)
100008798:	78 6f 	js	111 <_irc_msgtab+0x269>
10000879a:	00 00 	addb	%al, (%rax)
10000879c:	01 00 	addl	%eax, (%rax)
10000879e:	00 00 	addb	%al, (%rax)
1000087a0:	20 00 	andb	%al, (%rax)
1000087a2:	00 00 	addb	%al, (%rax)
1000087a4:	04 00 	addb	$0, %al
1000087a6:	00 00 	addb	%al, (%rax)
1000087a8:	ac 	lodsb	(%rsi), %al
1000087a9:	6f 	outsl	(%rsi), %dx
1000087aa:	00 00 	addb	%al, (%rax)
1000087ac:	01 00 	addl	%eax, (%rax)
1000087ae:	00 00 	addb	%al, (%rax)
1000087b0:	21 00 	andl	%eax, (%rax)
1000087b2:	00 00 	addb	%al, (%rax)
1000087b4:	04 00 	addb	$0, %al
1000087b6:	00 00 	addb	%al, (%rax)
1000087b8:	d8 6f 00 	fsubrs	(%rdi)
1000087bb:	00 01 	addb	%al, (%rcx)
1000087bd:	00 00 	addb	%al, (%rax)
1000087bf:	00 22 	addb	%ah, (%rdx)
1000087c1:	00 00 	addb	%al, (%rax)
1000087c3:	00 04 00 	addb	%al, (%rax,%rax)
1000087c6:	00 00 	addb	%al, (%rax)
1000087c8:	ec 	inb	%dx, %al
1000087c9:	6f 	outsl	(%rsi), %dx
1000087ca:	00 00 	addb	%al, (%rax)
1000087cc:	01 00 	addl	%eax, (%rax)
1000087ce:	00 00 	addb	%al, (%rax)
1000087d0:	23 00 	andl	(%rax), %eax
1000087d2:	00 00 	addb	%al, (%rax)
1000087d4:	01 00 	addl	%eax, (%rax)
1000087d6:	00 00 	addb	%al, (%rax)
1000087d8:	08 70 00 	orb	%dh, (%rax)
1000087db:	00 01 	addb	%al, (%rcx)
1000087dd:	00 00 	addb	%al, (%rax)
1000087df:	00 24 00 	addb	%ah, (%rax,%rax)
1000087e2:	00 00 	addb	%al, (%rax)
1000087e4:	01 00 	addl	%eax, (%rax)
1000087e6:	00 00 	addb	%al, (%rax)
1000087e8:	10 70 00 	adcb	%dh, (%rax)
1000087eb:	00 01 	addb	%al, (%rcx)
1000087ed:	00 00 	addb	%al, (%rax)
1000087ef:	00 25 00 00 00 01 	addb	%ah, 16777216(%rip)
1000087f5:	00 00 	addb	%al, (%rax)
1000087f7:	00 18 	addb	%bl, (%rax)
1000087f9:	70 00 	jo	0 <_irc_msgtab+0x25B>
1000087fb:	00 01 	addb	%al, (%rcx)
1000087fd:	00 00 	addb	%al, (%rax)
1000087ff:	00 26 	addb	%ah, (%rsi)
100008801:	00 00 	addb	%al, (%rax)
100008803:	00 01 	addb	%al, (%rcx)
100008805:	00 00 	addb	%al, (%rax)
100008807:	00 20 	addb	%ah, (%rax)
100008809:	70 00 	jo	0 <_irc_msgtab+0x26B>
10000880b:	00 01 	addb	%al, (%rcx)
10000880d:	00 00 	addb	%al, (%rax)
10000880f:	00 27 	addb	%ah, (%rdi)
100008811:	00 00 	addb	%al, (%rax)
100008813:	00 01 	addb	%al, (%rcx)
100008815:	00 00 	addb	%al, (%rax)
100008817:	00 28 	addb	%ch, (%rax)
100008819:	70 00 	jo	0 <_irc_msgtab+0x27B>
10000881b:	00 01 	addb	%al, (%rcx)
10000881d:	00 00 	addb	%al, (%rax)
10000881f:	00 28 	addb	%ch, (%rax)
100008821:	00 00 	addb	%al, (%rax)
100008823:	00 01 	addb	%al, (%rcx)
100008825:	00 00 	addb	%al, (%rax)
100008827:	00 30 	addb	%dh, (%rax)
100008829:	70 00 	jo	0 <_irc_msgtab+0x28B>
10000882b:	00 01 	addb	%al, (%rcx)
10000882d:	00 00 	addb	%al, (%rax)
10000882f:	00 29 	addb	%ch, (%rcx)
100008831:	00 00 	addb	%al, (%rax)
100008833:	00 01 	addb	%al, (%rcx)
100008835:	00 00 	addb	%al, (%rax)
100008837:	00 3c 70 	addb	%bh, (%rax,%rsi,2)
10000883a:	00 00 	addb	%al, (%rax)
10000883c:	01 00 	addl	%eax, (%rax)
10000883e:	00 00 	addb	%al, (%rax)
100008840:	2a 00 	subb	(%rax), %al
100008842:	00 00 	addb	%al, (%rax)
100008844:	04 00 	addb	$0, %al
100008846:	00 00 	addb	%al, (%rax)
100008848:	00 67 00 	addb	%ah, (%rdi)
10000884b:	00 01 	addb	%al, (%rcx)
10000884d:	00 00 	addb	%al, (%rax)
10000884f:	00 2b 	addb	%ch, (%rbx)
100008851:	00 00 	addb	%al, (%rax)
100008853:	00 04 00 	addb	%al, (%rax,%rax)
100008856:	00 00 	addb	%al, (%rax)
100008858:	a0 67 00 00 01 00 00 00 2c 	movabsb	3170534137685606503, %al
100008861:	00 00 	addb	%al, (%rax)
100008863:	00 04 00 	addb	%al, (%rax,%rax)
100008866:	00 00 	addb	%al, (%rax)
100008868:	78 70 	js	112 <_irc_msgtab+0x33A>
10000886a:	00 00 	addb	%al, (%rax)
10000886c:	01 00 	addl	%eax, (%rax)
10000886e:	00 00 	addb	%al, (%rax)
100008870:	2d 00 00 00 04 	subl	$67108864, %eax
100008875:	00 00 	addb	%al, (%rax)
100008877:	00 40 68 	addb	%al, 104(%rax)
10000887a:	00 00 	addb	%al, (%rax)
10000887c:	01 00 	addl	%eax, (%rax)
10000887e:	00 00 	addb	%al, (%rax)
100008880:	2e 00 00 	addb	%al, %cs:(%rax)
100008883:	00 04 00 	addb	%al, (%rax,%rax)
100008886:	00 00 	addb	%al, (%rax)
100008888:	b0 70 	movb	$112, %al
10000888a:	00 00 	addb	%al, (%rax)
10000888c:	01 00 	addl	%eax, (%rax)
10000888e:	00 00 	addb	%al, (%rax)
100008890:	2f  <unknown>
100008891:	00 00 	addb	%al, (%rax)
100008893:	00 04 00 	addb	%al, (%rax,%rax)
100008896:	00 00 	addb	%al, (%rax)
100008898:	e0 68 	loopne	104
10000889a:	00 00 	addb	%al, (%rax)
10000889c:	01 00 	addl	%eax, (%rax)
10000889e:	00 00 	addb	%al, (%rax)
1000088a0:	30 00 	xorb	%al, (%rax)
1000088a2:	00 00 	addb	%al, (%rax)
1000088a4:	04 00 	addb	$0, %al
1000088a6:	00 00 	addb	%al, (%rax)
1000088a8:	e8 70 00 00 01 	callq	16777328 <___intel_cpu_feature_indicator_x+0xFFF9D5>
1000088ad:	00 00 	addb	%al, (%rax)
1000088af:	00 31 	addb	%dh, (%rcx)
1000088b1:	00 00 	addb	%al, (%rax)
1000088b3:	00 04 00 	addb	%al, (%rax,%rax)
1000088b6:	00 00 	addb	%al, (%rax)
1000088b8:	1c 71 	sbbb	$113, %al
1000088ba:	00 00 	addb	%al, (%rax)
1000088bc:	01 00 	addl	%eax, (%rax)
1000088be:	00 00 	addb	%al, (%rax)
1000088c0:	32 00 	xorb	(%rax), %al
1000088c2:	00 00 	addb	%al, (%rax)
1000088c4:	04 00 	addb	$0, %al
1000088c6:	00 00 	addb	%al, (%rax)
1000088c8:	20 69 00 	andb	%ch, (%rcx)
1000088cb:	00 01 	addb	%al, (%rcx)
1000088cd:	00 00 	addb	%al, (%rax)
1000088cf:	00 33 	addb	%dh, (%rbx)
1000088d1:	00 00 	addb	%al, (%rax)
1000088d3:	00 04 00 	addb	%al, (%rax,%rax)
1000088d6:	00 00 	addb	%al, (%rax)
1000088d8:	80 69 00 00 	subb	$0, (%rcx)
1000088dc:	01 00 	addl	%eax, (%rax)
1000088de:	00 00 	addb	%al, (%rax)
1000088e0:	34 00 	xorb	$0, %al
1000088e2:	00 00 	addb	%al, (%rax)
1000088e4:	04 00 	addb	$0, %al
1000088e6:	00 00 	addb	%al, (%rax)
1000088e8:	00 6a 00 	addb	%ch, (%rdx)
1000088eb:	00 01 	addb	%al, (%rcx)
1000088ed:	00 00 	addb	%al, (%rax)
1000088ef:	00 35 00 00 00 04 	addb	%dh, 67108864(%rip)
1000088f5:	00 00 	addb	%al, (%rax)
1000088f7:	00 5c 71 00 	addb	%bl, (%rcx,%rsi,2)
1000088fb:	00 01 	addb	%al, (%rcx)
1000088fd:	00 00 	addb	%al, (%rax)
1000088ff:	00 36 	addb	%dh, (%rsi)
100008901:	00 00 	addb	%al, (%rax)
100008903:	00 04 00 	addb	%al, (%rax,%rax)
100008906:	00 00 	addb	%al, (%rax)
100008908:	90 	nop
100008909:	71 00 	jno	0 <_irc_msgtab+0x36B>
10000890b:	00 01 	addb	%al, (%rcx)
10000890d:	00 00 	addb	%al, (%rax)
10000890f:	00 37 	addb	%dh, (%rdi)
100008911:	00 00 	addb	%al, (%rax)
100008913:	00 04 00 	addb	%al, (%rax,%rax)
100008916:	00 00 	addb	%al, (%rax)
100008918:	b0 71 	movb	$113, %al
10000891a:	00 00 	addb	%al, (%rax)
10000891c:	01 00 	addl	%eax, (%rax)
10000891e:	00 00 	addb	%al, (%rax)
100008920:	38 00 	cmpb	%al, (%rax)
100008922:	00 00 	addb	%al, (%rax)
100008924:	04 00 	addb	$0, %al
100008926:	00 00 	addb	%al, (%rax)
100008928:	a0 6a 00 00 01 00 00 00 39 	movabsb	4107282860178669674, %al
100008931:	00 00 	addb	%al, (%rax)
100008933:	00 04 00 	addb	%al, (%rax,%rax)
100008936:	00 00 	addb	%al, (%rax)
100008938:	d4  <unknown>
100008939:	71 00 	jno	0 <_irc_msgtab+0x39B>
10000893b:	00 01 	addb	%al, (%rcx)
10000893d:	00 00 	addb	%al, (%rax)
10000893f:	00 3a 	addb	%bh, (%rdx)
100008941:	00 00 	addb	%al, (%rax)
100008943:	00 04 00 	addb	%al, (%rax,%rax)
100008946:	00 00 	addb	%al, (%rax)
100008948:	20 6b 00 	andb	%ch, (%rbx)
10000894b:	00 01 	addb	%al, (%rcx)
10000894d:	00 00 	addb	%al, (%rax)
10000894f:	00 3b 	addb	%bh, (%rbx)
100008951:	00 00 	addb	%al, (%rax)
100008953:	00 04 00 	addb	%al, (%rax,%rax)
100008956:	00 00 	addb	%al, (%rax)
100008958:	80 6b 00 00 	subb	$0, (%rbx)
10000895c:	01 00 	addl	%eax, (%rax)
10000895e:	00 00 	addb	%al, (%rax)
100008960:	3c 00 	cmpb	$0, %al
100008962:	00 00 	addb	%al, (%rax)
100008964:	04 00 	addb	$0, %al
100008966:	00 00 	addb	%al, (%rax)
100008968:	e0 6b 	loopne	107
10000896a:	00 00 	addb	%al, (%rax)
10000896c:	01 00 	addl	%eax, (%rax)
10000896e:	00 00 	addb	%al, (%rax)

_first_msg:
100008970:	01 00 	addl	%eax, (%rax)
100008972:	00 00 	addb	%al, (%rax)

_use_internal_msg:
100008974:	01 00 	addl	%eax, (%rax)
100008976:	00 00 	addb	%al, (%rax)
100008978:	00 00 	addb	%al, (%rax)
10000897a:	00 00 	addb	%al, (%rax)
10000897c:	00 00 	addb	%al, (%rax)
10000897e:	00 00 	addb	%al, (%rax)

_c_feature_names:
100008980:	30 66 00 	xorb	%ah, (%rsi)
100008983:	00 01 	addb	%al, (%rcx)
100008985:	00 00 	addb	%al, (%rax)
100008987:	00 e8 	addb	%ch, %al
100008989:	71 00 	jno	0 <_c_feature_names+0xB>
10000898b:	00 01 	addb	%al, (%rcx)
10000898d:	00 00 	addb	%al, (%rax)
10000898f:	00 f8 	addb	%bh, %al
100008991:	71 00 	jno	0 <_c_feature_names+0x13>
100008993:	00 01 	addb	%al, (%rcx)
100008995:	00 00 	addb	%al, (%rax)
100008997:	00 fc 	addb	%bh, %ah
100008999:	71 00 	jno	0 <_c_feature_names+0x1B>
10000899b:	00 01 	addb	%al, (%rcx)
10000899d:	00 00 	addb	%al, (%rax)
10000899f:	00 04 72 	addb	%al, (%rdx,%rsi,2)
1000089a2:	00 00 	addb	%al, (%rax)
1000089a4:	01 00 	addl	%eax, (%rax)
1000089a6:	00 00 	addb	%al, (%rax)
1000089a8:	08 72 00 	orb	%dh, (%rdx)
1000089ab:	00 01 	addb	%al, (%rcx)
1000089ad:	00 00 	addb	%al, (%rax)
1000089af:	00 10 	addb	%dl, (%rax)
1000089b1:	72 00 	jb	0 <_c_feature_names+0x33>
1000089b3:	00 01 	addb	%al, (%rcx)
1000089b5:	00 00 	addb	%al, (%rax)
1000089b7:	00 14 72 	addb	%dl, (%rdx,%rsi,2)
1000089ba:	00 00 	addb	%al, (%rax)
1000089bc:	01 00 	addl	%eax, (%rax)
1000089be:	00 00 	addb	%al, (%rax)
1000089c0:	1c 72 	sbbb	$114, %al
1000089c2:	00 00 	addb	%al, (%rax)
1000089c4:	01 00 	addl	%eax, (%rax)
1000089c6:	00 00 	addb	%al, (%rax)
1000089c8:	24 72 	andb	$114, %al
1000089ca:	00 00 	addb	%al, (%rax)
1000089cc:	01 00 	addl	%eax, (%rax)
1000089ce:	00 00 	addb	%al, (%rax)
1000089d0:	2c 72 	subb	$114, %al
1000089d2:	00 00 	addb	%al, (%rax)
1000089d4:	01 00 	addl	%eax, (%rax)
1000089d6:	00 00 	addb	%al, (%rax)
1000089d8:	34 72 	xorb	$114, %al
1000089da:	00 00 	addb	%al, (%rax)
1000089dc:	01 00 	addl	%eax, (%rax)
1000089de:	00 00 	addb	%al, (%rax)
1000089e0:	3c 72 	cmpb	$114, %al
1000089e2:	00 00 	addb	%al, (%rax)
1000089e4:	01 00 	addl	%eax, (%rax)
1000089e6:	00 00 	addb	%al, (%rax)
1000089e8:	44 72 00 	jb	0 <_c_feature_names+0x6B>
1000089eb:	00 01 	addb	%al, (%rcx)
1000089ed:	00 00 	addb	%al, (%rax)
1000089ef:	00 4c 72 00 	addb	%cl, (%rdx,%rsi,2)
1000089f3:	00 01 	addb	%al, (%rcx)
1000089f5:	00 00 	addb	%al, (%rax)
1000089f7:	00 58 72 	addb	%bl, 114(%rax)
1000089fa:	00 00 	addb	%al, (%rax)
1000089fc:	01 00 	addl	%eax, (%rax)
1000089fe:	00 00 	addb	%al, (%rax)
100008a00:	5c 	popq	%rsp
100008a01:	72 00 	jb	0 <_c_feature_names+0x83>
100008a03:	00 01 	addb	%al, (%rcx)
100008a05:	00 00 	addb	%al, (%rax)
100008a07:	00 64 72 00 	addb	%ah, (%rdx,%rsi,2)
100008a0b:	00 01 	addb	%al, (%rcx)
100008a0d:	00 00 	addb	%al, (%rax)
100008a0f:	00 68 72 	addb	%ch, 114(%rax)
100008a12:	00 00 	addb	%al, (%rax)
100008a14:	01 00 	addl	%eax, (%rax)
100008a16:	00 00 	addb	%al, (%rax)
100008a18:	70 72 	jo	114 <_c_feature_names+0x10C>
100008a1a:	00 00 	addb	%al, (%rax)
100008a1c:	01 00 	addl	%eax, (%rax)
100008a1e:	00 00 	addb	%al, (%rax)
100008a20:	74 72 	je	114 <_c_feature_names+0x114>
100008a22:	00 00 	addb	%al, (%rax)
100008a24:	01 00 	addl	%eax, (%rax)
100008a26:	00 00 	addb	%al, (%rax)
100008a28:	78 72 	js	114 <_c_feature_names+0x11C>
100008a2a:	00 00 	addb	%al, (%rax)
100008a2c:	01 00 	addl	%eax, (%rax)
100008a2e:	00 00 	addb	%al, (%rax)
100008a30:	80 72 00 00 	xorb	$0, (%rdx)
100008a34:	01 00 	addl	%eax, (%rax)
100008a36:	00 00 	addb	%al, (%rax)
100008a38:	84 72 00 	testb	(%rdx), %dh
100008a3b:	00 01 	addb	%al, (%rcx)
100008a3d:	00 00 	addb	%al, (%rax)
100008a3f:	00 88 72 00 00 01 	addb	%cl, 16777330(%rax)
100008a45:	00 00 	addb	%al, (%rax)
100008a47:	00 90 72 00 00 01 	addb	%dl, 16777330(%rax)
100008a4d:	00 00 	addb	%al, (%rax)
100008a4f:	00 30 	addb	%dh, (%rax)
100008a51:	66 00 00 	addb	%al, (%rax)
100008a54:	01 00 	addl	%eax, (%rax)
100008a56:	00 00 	addb	%al, (%rax)
100008a58:	9c 	pushfq
100008a59:	72 00 	jb	0 <_c_feature_names+0xDB>
100008a5b:	00 01 	addb	%al, (%rcx)
100008a5d:	00 00 	addb	%al, (%rax)
100008a5f:	00 a4 72 00 00 01 00 	addb	%ah, 65536(%rdx,%rsi,2)
100008a66:	00 00 	addb	%al, (%rax)
100008a68:	ac 	lodsb	(%rsi), %al
100008a69:	72 00 	jb	0 <_c_feature_names+0xEB>
100008a6b:	00 01 	addb	%al, (%rcx)
100008a6d:	00 00 	addb	%al, (%rax)
100008a6f:	00 b0 72 00 00 01 	addb	%dh, 16777330(%rax)
100008a75:	00 00 	addb	%al, (%rax)
100008a77:	00 b8 72 00 00 01 	addb	%bh, 16777330(%rax)
100008a7d:	00 00 	addb	%al, (%rax)
100008a7f:	00 c8 	addb	%cl, %al
100008a81:	72 00 	jb	0 <_c_feature_names+0x103>
100008a83:	00 01 	addb	%al, (%rcx)
100008a85:	00 00 	addb	%al, (%rax)
100008a87:	00 e0 	addb	%ah, %al
100008a89:	72 00 	jb	0 <_c_feature_names+0x10B>
100008a8b:	00 01 	addb	%al, (%rcx)
100008a8d:	00 00 	addb	%al, (%rax)
100008a8f:	00 ec 	addb	%ch, %ah
100008a91:	72 00 	jb	0 <_c_feature_names+0x113>
100008a93:	00 01 	addb	%al, (%rcx)
100008a95:	00 00 	addb	%al, (%rax)
100008a97:	00 f8 	addb	%bh, %al
100008a99:	72 00 	jb	0 <_c_feature_names+0x11B>
100008a9b:	00 01 	addb	%al, (%rcx)
100008a9d:	00 00 	addb	%al, (%rax)
100008a9f:	00 04 73 	addb	%al, (%rbx,%rsi,2)
100008aa2:	00 00 	addb	%al, (%rax)
100008aa4:	01 00 	addl	%eax, (%rax)
100008aa6:	00 00 	addb	%al, (%rax)
100008aa8:	08 73 00 	orb	%dh, (%rbx)
100008aab:	00 01 	addb	%al, (%rcx)
100008aad:	00 00 	addb	%al, (%rax)
100008aaf:	00 0c 73 	addb	%cl, (%rbx,%rsi,2)
100008ab2:	00 00 	addb	%al, (%rax)
100008ab4:	01 00 	addl	%eax, (%rax)
100008ab6:	00 00 	addb	%al, (%rax)
100008ab8:	18 73 00 	sbbb	%dh, (%rbx)
100008abb:	00 01 	addb	%al, (%rcx)
100008abd:	00 00 	addb	%al, (%rax)
100008abf:	00 24 73 	addb	%ah, (%rbx,%rsi,2)
100008ac2:	00 00 	addb	%al, (%rax)
100008ac4:	01 00 	addl	%eax, (%rax)
100008ac6:	00 00 	addb	%al, (%rax)
100008ac8:	30 73 00 	xorb	%dh, (%rbx)
100008acb:	00 01 	addb	%al, (%rcx)
100008acd:	00 00 	addb	%al, (%rax)
100008acf:	00 40 73 	addb	%al, 115(%rax)
100008ad2:	00 00 	addb	%al, (%rax)
100008ad4:	01 00 	addl	%eax, (%rax)
100008ad6:	00 00 	addb	%al, (%rax)
100008ad8:	50 	pushq	%rax
100008ad9:	73 00 	jae	0 <_c_feature_names+0x15B>
100008adb:	00 01 	addb	%al, (%rcx)
100008add:	00 00 	addb	%al, (%rax)
100008adf:	00 30 	addb	%dh, (%rax)
100008ae1:	66 00 00 	addb	%al, (%rax)
100008ae4:	01 00 	addl	%eax, (%rax)
100008ae6:	00 00 	addb	%al, (%rax)
100008ae8:	30 66 00 	xorb	%ah, (%rsi)
100008aeb:	00 01 	addb	%al, (%rcx)
100008aed:	00 00 	addb	%al, (%rax)
100008aef:	00 30 	addb	%dh, (%rax)
100008af1:	66 00 00 	addb	%al, (%rax)
100008af4:	01 00 	addl	%eax, (%rax)
100008af6:	00 00 	addb	%al, (%rax)
100008af8:	30 66 00 	xorb	%ah, (%rsi)
100008afb:	00 01 	addb	%al, (%rcx)
100008afd:	00 00 	addb	%al, (%rax)
100008aff:	00 30 	addb	%dh, (%rax)
100008b01:	66 00 00 	addb	%al, (%rax)
100008b04:	01 00 	addl	%eax, (%rax)
100008b06:	00 00 	addb	%al, (%rax)
100008b08:	30 66 00 	xorb	%ah, (%rsi)
100008b0b:	00 01 	addb	%al, (%rcx)
100008b0d:	00 00 	addb	%al, (%rax)
100008b0f:	00 30 	addb	%dh, (%rax)
100008b11:	66 00 00 	addb	%al, (%rax)
100008b14:	01 00 	addl	%eax, (%rax)
100008b16:	00 00 	addb	%al, (%rax)
100008b18:	00 00 	addb	%al, (%rax)
100008b1a:	00 00 	addb	%al, (%rax)
100008b1c:	00 00 	addb	%al, (%rax)
100008b1e:	00 00 	addb	%al, (%rax)
Disassembly of section __DATA,__bss:
_get_msg_buf:
100008b20:	cf 	iretl
100008b21:	fa 	cli
100008b22:	ed 	inl	%dx, %eax
100008b23:	fe 07 	incb	(%rdi)
100008b25:	00 00 	addb	%al, (%rax)
100008b27:	01 03 	addl	%eax, (%rbx)
100008b29:	00 00 	addb	%al, (%rax)
100008b2b:	80 02 00 	addb	$0, (%rdx)
100008b2e:	00 00 	addb	%al, (%rax)
100008b30:	10 00 	adcb	%al, (%rax)
100008b32:	00 00 	addb	%al, (%rax)
100008b34:	c0 06 00 	rolb	$0, (%rsi)
100008b37:	00 85 00 20 00 00 	addb	%al, 8192(%rbp)
100008b3d:	00 00 	addb	%al, (%rax)
100008b3f:	00 19 	addb	%bl, (%rcx)
100008b41:	00 00 	addb	%al, (%rax)
100008b43:	00 48 00 	addb	%cl, (%rax)
100008b46:	00 00 	addb	%al, (%rax)
100008b48:	5f 	popq	%rdi
100008b49:	5f 	popq	%rdi
100008b4a:	50 	pushq	%rax
100008b4b:	41  <unknown>
100008b4c:	47  <unknown>
100008b4d:	45 5a 	popq	%r10
100008b4f:	45 52 	pushq	%r10
100008b51:	4f 00 00 	addb	%r8b, (%r8)
100008b54:	00 00 	addb	%al, (%rax)
100008b56:	00 00 	addb	%al, (%rax)
100008b58:	00 00 	addb	%al, (%rax)
100008b5a:	00 00 	addb	%al, (%rax)
100008b5c:	00 00 	addb	%al, (%rax)
100008b5e:	00 00 	addb	%al, (%rax)
100008b60:	00 00 	addb	%al, (%rax)
100008b62:	00 00 	addb	%al, (%rax)
100008b64:	01 00 	addl	%eax, (%rax)
100008b66:	00 00 	addb	%al, (%rax)
100008b68:	00 00 	addb	%al, (%rax)
100008b6a:	00 00 	addb	%al, (%rax)
100008b6c:	00 00 	addb	%al, (%rax)
100008b6e:	00 00 	addb	%al, (%rax)
100008b70:	00 00 	addb	%al, (%rax)
100008b72:	00 00 	addb	%al, (%rax)
100008b74:	00 00 	addb	%al, (%rax)
100008b76:	00 00 	addb	%al, (%rax)
100008b78:	00 00 	addb	%al, (%rax)
100008b7a:	00 00 	addb	%al, (%rax)
100008b7c:	00 00 	addb	%al, (%rax)
100008b7e:	00 00 	addb	%al, (%rax)
100008b80:	00 00 	addb	%al, (%rax)
100008b82:	00 00 	addb	%al, (%rax)
100008b84:	00 00 	addb	%al, (%rax)
100008b86:	00 00 	addb	%al, (%rax)
100008b88:	19 00 	sbbl	%eax, (%rax)
100008b8a:	00 00 	addb	%al, (%rax)
100008b8c:	78 02 	js	2 <_get_msg_buf+0x70>
100008b8e:	00 00 	addb	%al, (%rax)
100008b90:	5f 	popq	%rdi
100008b91:	5f 	popq	%rdi
100008b92:	54 	pushq	%rsp
100008b93:	45 58 	popq	%r8
100008b95:	54 	pushq	%rsp
100008b96:	00 00 	addb	%al, (%rax)
100008b98:	00 00 	addb	%al, (%rax)
100008b9a:	00 00 	addb	%al, (%rax)
100008b9c:	00 00 	addb	%al, (%rax)
100008b9e:	00 00 	addb	%al, (%rax)
100008ba0:	00 00 	addb	%al, (%rax)
100008ba2:	00 00 	addb	%al, (%rax)
100008ba4:	01 00 	addl	%eax, (%rax)
100008ba6:	00 00 	addb	%al, (%rax)
100008ba8:	00 80 00 00 00 00 	addb	%al, (%rax)
100008bae:	00 00 	addb	%al, (%rax)
100008bb0:	00 00 	addb	%al, (%rax)
100008bb2:	00 00 	addb	%al, (%rax)
100008bb4:	00 00 	addb	%al, (%rax)
100008bb6:	00 00 	addb	%al, (%rax)
100008bb8:	00 80 00 00 00 00 	addb	%al, (%rax)
100008bbe:	00 00 	addb	%al, (%rax)
100008bc0:	07  <unknown>
100008bc1:	00 00 	addb	%al, (%rax)
100008bc3:	00 05 00 00 00 07 	addb	%al, 117440512(%rip)
100008bc9:	00 00 	addb	%al, (%rax)
100008bcb:	00 00 	addb	%al, (%rax)
100008bcd:	00 00 	addb	%al, (%rax)
100008bcf:	00 5f 5f 	addb	%bl, 95(%rdi)
100008bd2:	74 65 	je	101 <_get_msg_buf+0x119>
100008bd4:	78 74 	js	116 <_get_msg_buf+0x12A>
100008bd6:	00 00 	addb	%al, (%rax)
100008bd8:	00 00 	addb	%al, (%rax)
100008bda:	00 00 	addb	%al, (%rax)
100008bdc:	00 00 	addb	%al, (%rax)
100008bde:	00 00 	addb	%al, (%rax)
100008be0:	5f 	popq	%rdi
100008be1:	5f 	popq	%rdi
100008be2:	54 	pushq	%rsp
100008be3:	45 58 	popq	%r8
100008be5:	54 	pushq	%rsp
100008be6:	00 00 	addb	%al, (%rax)
100008be8:	00 00 	addb	%al, (%rax)
100008bea:	00 00 	addb	%al, (%rax)
100008bec:	00 00 	addb	%al, (%rax)
100008bee:	00 00 	addb	%al, (%rax)
100008bf0:	b0 0a 	movb	$10, %al
100008bf2:	00 00 	addb	%al, (%rax)
100008bf4:	01 00 	addl	%eax, (%rax)
100008bf6:	00 00 	addb	%al, (%rax)
100008bf8:	a0 59 00 00 00 00 00 00 b0 	movabsb	-5764607523034234791, %al
100008c01:	0a 00 	orb	(%rax), %al
100008c03:	00 04 00 	addb	%al, (%rax,%rax)
100008c06:	00 00 	addb	%al, (%rax)
100008c08:	00 00 	addb	%al, (%rax)
100008c0a:	00 00 	addb	%al, (%rax)
100008c0c:	00 00 	addb	%al, (%rax)
100008c0e:	00 00 	addb	%al, (%rax)
100008c10:	00 04 00 	addb	%al, (%rax,%rax)
100008c13:	80 00 00 	addb	$0, (%rax)
100008c16:	00 00 	addb	%al, (%rax)
100008c18:	00 00 	addb	%al, (%rax)
100008c1a:	00 00 	addb	%al, (%rax)
100008c1c:	00 00 	addb	%al, (%rax)
100008c1e:	00 00 	addb	%al, (%rax)
100008c20:	5f 	popq	%rdi
100008c21:	5f 	popq	%rdi
100008c22:	73 74 	jae	116 <_get_msg_buf+0x178>
100008c24:	75 62 	jne	98 <_get_msg_buf+0x168>
100008c26:	73 00 	jae	0 <_get_msg_buf+0x108>
100008c28:	00 00 	addb	%al, (%rax)
100008c2a:	00 00 	addb	%al, (%rax)
100008c2c:	00 00 	addb	%al, (%rax)
100008c2e:	00 00 	addb	%al, (%rax)
100008c30:	5f 	popq	%rdi
100008c31:	5f 	popq	%rdi
100008c32:	54 	pushq	%rsp
100008c33:	45 58 	popq	%r8
100008c35:	54 	pushq	%rsp
100008c36:	00 00 	addb	%al, (%rax)
100008c38:	00 00 	addb	%al, (%rax)
100008c3a:	00 00 	addb	%al, (%rax)
100008c3c:	00 00 	addb	%al, (%rax)
100008c3e:	00 00 	addb	%al, (%rax)
100008c40:	50 	pushq	%rax
100008c41:	64 00 00 	addb	%al, %fs:(%rax)
100008c44:	01 00 	addl	%eax, (%rax)
100008c46:	00 00 	addb	%al, (%rax)
100008c48:	5a 	popq	%rdx
100008c49:	00 00 	addb	%al, (%rax)
100008c4b:	00 00 	addb	%al, (%rax)
100008c4d:	00 00 	addb	%al, (%rax)
100008c4f:	00 50 64 	addb	%dl, 100(%rax)
100008c52:	00 00 	addb	%al, (%rax)
100008c54:	01 00 	addl	%eax, (%rax)
100008c56:	00 00 	addb	%al, (%rax)
100008c58:	00 00 	addb	%al, (%rax)
100008c5a:	00 00 	addb	%al, (%rax)
100008c5c:	00 00 	addb	%al, (%rax)
100008c5e:	00 00 	addb	%al, (%rax)
100008c60:	08 04 00 	orb	%al, (%rax,%rax)
100008c63:	80 00 00 	addb	$0, (%rax)
100008c66:	00 00 	addb	%al, (%rax)
100008c68:	06  <unknown>
100008c69:	00 00 	addb	%al, (%rax)
100008c6b:	00 00 	addb	%al, (%rax)
100008c6d:	00 00 	addb	%al, (%rax)
100008c6f:	00 5f 5f 	addb	%bl, 95(%rdi)
100008c72:	73 74 	jae	116 <_get_msg_buf+0x1C8>
100008c74:	75 62 	jne	98 <_get_msg_buf+0x1B8>
100008c76:	5f 	popq	%rdi
100008c77:	68 65 6c 70 65 	pushq	$1701866597
100008c7c:	72 00 	jb	0 <_get_msg_buf+0x15E>
100008c7e:	00 00 	addb	%al, (%rax)
100008c80:	5f 	popq	%rdi
100008c81:	5f 	popq	%rdi
100008c82:	54 	pushq	%rsp
100008c83:	45 58 	popq	%r8
100008c85:	54 	pushq	%rsp
100008c86:	00 00 	addb	%al, (%rax)
100008c88:	00 00 	addb	%al, (%rax)
100008c8a:	00 00 	addb	%al, (%rax)
100008c8c:	00 00 	addb	%al, (%rax)
100008c8e:	00 00 	addb	%al, (%rax)
100008c90:	ac 	lodsb	(%rsi), %al
100008c91:	64 00 00 	addb	%al, %fs:(%rax)
100008c94:	01 00 	addl	%eax, (%rax)
100008c96:	00 00 	addb	%al, (%rax)
100008c98:	a6 	cmpsb	%es:(%rdi), (%rsi)
100008c99:	00 00 	addb	%al, (%rax)
100008c9b:	00 00 	addb	%al, (%rax)
100008c9d:	00 00 	addb	%al, (%rax)
100008c9f:	00 ac 64 00 00 02 00 	addb	%ch, 131072(%rsp)
100008ca6:	00 00 	addb	%al, (%rax)
100008ca8:	00 00 	addb	%al, (%rax)
100008caa:	00 00 	addb	%al, (%rax)
100008cac:	00 00 	addb	%al, (%rax)
100008cae:	00 00 	addb	%al, (%rax)
100008cb0:	00 04 00 	addb	%al, (%rax,%rax)
100008cb3:	80 00 00 	addb	$0, (%rax)
100008cb6:	00 00 	addb	%al, (%rax)
100008cb8:	00 00 	addb	%al, (%rax)
100008cba:	00 00 	addb	%al, (%rax)
100008cbc:	00 00 	addb	%al, (%rax)
100008cbe:	00 00 	addb	%al, (%rax)
100008cc0:	5f 	popq	%rdi
100008cc1:	5f 	popq	%rdi
100008cc2:	63  <unknown>
100008cc3:	73 74 	jae	116 <_print_buf+0x19>
100008cc5:	72 69 	jb	105 <_print_buf+0x10>
100008cc7:	6e 	outsb	(%rsi), %dx
100008cc8:	67 00 00 	addb	%al, (%eax)
100008ccb:	00 00 	addb	%al, (%rax)
100008ccd:	00 00 	addb	%al, (%rax)
100008ccf:	00 5f 5f 	addb	%bl, 95(%rdi)
100008cd2:	54 	pushq	%rsp
100008cd3:	45 58 	popq	%r8
100008cd5:	54 	pushq	%rsp
100008cd6:	00 00 	addb	%al, (%rax)
100008cd8:	00 00 	addb	%al, (%rax)
100008cda:	00 00 	addb	%al, (%rax)
100008cdc:	00 00 	addb	%al, (%rax)
100008cde:	00 00 	addb	%al, (%rax)
100008ce0:	60  <unknown>
100008ce1:	65 00 00 	addb	%al, %gs:(%rax)
100008ce4:	01 00 	addl	%eax, (%rax)
100008ce6:	00 00 	addb	%al, (%rax)
100008ce8:	07  <unknown>
100008ce9:	0e  <unknown>
100008cea:	00 00 	addb	%al, (%rax)
100008cec:	00 00 	addb	%al, (%rax)
100008cee:	00 00 	addb	%al, (%rax)
100008cf0:	60  <unknown>
100008cf1:	65 00 00 	addb	%al, %gs:(%rax)
100008cf4:	05 00 00 00 00 	addl	$0, %eax
100008cf9:	00 00 	addb	%al, (%rax)
100008cfb:	00 00 	addb	%al, (%rax)
100008cfd:	00 00 	addb	%al, (%rax)
100008cff:	00 02 	addb	%al, (%rdx)
100008d01:	00 00 	addb	%al, (%rax)
100008d03:	00 00 	addb	%al, (%rax)
100008d05:	00 00 	addb	%al, (%rax)
100008d07:	00 00 	addb	%al, (%rax)
100008d09:	00 00 	addb	%al, (%rax)
100008d0b:	00 00 	addb	%al, (%rax)
100008d0d:	00 00 	addb	%al, (%rax)
100008d0f:	00 5f 5f 	addb	%bl, 95(%rdi)
100008d12:	63  <unknown>
100008d13:	6f 	outsl	(%rsi), %dx
100008d14:	6e 	outsb	(%rsi), %dx
100008d15:	73 74 	jae	116 <_print_buf+0x6B>
100008d17:	00 00 	addb	%al, (%rax)
100008d19:	00 00 	addb	%al, (%rax)
100008d1b:	00 00 	addb	%al, (%rax)
100008d1d:	00 00 	addb	%al, (%rax)
100008d1f:	00 5f 5f 	addb	%bl, 95(%rdi)

_print_buf:
100008d20:	5f 	popq	%rdi
100008d21:	5f 	popq	%rdi
100008d22:	54 	pushq	%rsp
100008d23:	45 58 	popq	%r8
100008d25:	54 	pushq	%rsp
100008d26:	00 00 	addb	%al, (%rax)
100008d28:	00 00 	addb	%al, (%rax)
100008d2a:	00 00 	addb	%al, (%rax)
100008d2c:	00 00 	addb	%al, (%rax)
100008d2e:	00 00 	addb	%al, (%rax)
100008d30:	80 73 00 00 	xorb	$0, (%rbx)
100008d34:	01 00 	addl	%eax, (%rax)
100008d36:	00 00 	addb	%al, (%rax)
100008d38:	00 03 	addb	%al, (%rbx)
100008d3a:	00 00 	addb	%al, (%rax)
100008d3c:	00 00 	addb	%al, (%rax)
100008d3e:	00 00 	addb	%al, (%rax)
100008d40:	80 73 00 00 	xorb	$0, (%rbx)
100008d44:	05 00 00 00 00 	addl	$0, %eax
100008d49:	00 00 	addb	%al, (%rax)
100008d4b:	00 00 	addb	%al, (%rax)
100008d4d:	00 00 	addb	%al, (%rax)
100008d4f:	00 00 	addb	%al, (%rax)
100008d51:	00 00 	addb	%al, (%rax)
100008d53:	00 00 	addb	%al, (%rax)
100008d55:	00 00 	addb	%al, (%rax)
100008d57:	00 00 	addb	%al, (%rax)
100008d59:	00 00 	addb	%al, (%rax)
100008d5b:	00 00 	addb	%al, (%rax)
100008d5d:	00 00 	addb	%al, (%rax)
100008d5f:	00 5f 5f 	addb	%bl, 95(%rdi)
100008d62:	75 6e 	jne	110 <_print_buf+0xB2>
100008d64:	77 69 	ja	105 <_print_buf+0xAF>
100008d66:	6e 	outsb	(%rsi), %dx
100008d67:	64 5f 	popq	%rdi
100008d69:	69 6e 66 6f 00 00 00 	imull	$111, 102(%rsi), %ebp
100008d70:	5f 	popq	%rdi
100008d71:	5f 	popq	%rdi
100008d72:	54 	pushq	%rsp
100008d73:	45 58 	popq	%r8
100008d75:	54 	pushq	%rsp
100008d76:	00 00 	addb	%al, (%rax)
100008d78:	00 00 	addb	%al, (%rax)
100008d7a:	00 00 	addb	%al, (%rax)
100008d7c:	00 00 	addb	%al, (%rax)
100008d7e:	00 00 	addb	%al, (%rax)
100008d80:	80 76 00 00 	xorb	$0, (%rsi)
100008d84:	01 00 	addl	%eax, (%rax)
100008d86:	00 00 	addb	%al, (%rax)
100008d88:	a4 	movsb	(%rsi), %es:(%rdi)
100008d89:	00 00 	addb	%al, (%rax)
100008d8b:	00 00 	addb	%al, (%rax)
100008d8d:	00 00 	addb	%al, (%rax)
100008d8f:	00 80 76 00 00 02 	addb	%al, 33554550(%rax)
100008d95:	00 00 	addb	%al, (%rax)
100008d97:	00 00 	addb	%al, (%rax)
100008d99:	00 00 	addb	%al, (%rax)
100008d9b:	00 00 	addb	%al, (%rax)
100008d9d:	00 00 	addb	%al, (%rax)
100008d9f:	00 00 	addb	%al, (%rax)
100008da1:	00 00 	addb	%al, (%rax)
100008da3:	00 00 	addb	%al, (%rax)
100008da5:	00 00 	addb	%al, (%rax)
100008da7:	00 00 	addb	%al, (%rax)
100008da9:	00 00 	addb	%al, (%rax)
100008dab:	00 00 	addb	%al, (%rax)
100008dad:	00 00 	addb	%al, (%rax)
100008daf:	00 5f 5f 	addb	%bl, 95(%rdi)
100008db2:	65 68 5f 66 72 61 	pushq	$1634887263
100008db8:	6d 	insl	%dx, %es:(%rdi)
100008db9:	65 00 00 	addb	%al, %gs:(%rax)
100008dbc:	00 00 	addb	%al, (%rax)
100008dbe:	00 00 	addb	%al, (%rax)
100008dc0:	5f 	popq	%rdi
100008dc1:	5f 	popq	%rdi
100008dc2:	54 	pushq	%rsp
100008dc3:	45 58 	popq	%r8
100008dc5:	54 	pushq	%rsp
100008dc6:	00 00 	addb	%al, (%rax)
100008dc8:	00 00 	addb	%al, (%rax)
100008dca:	00 00 	addb	%al, (%rax)
100008dcc:	00 00 	addb	%al, (%rax)
100008dce:	00 00 	addb	%al, (%rax)
100008dd0:	28 77 00 	subb	%dh, (%rdi)
100008dd3:	00 01 	addb	%al, (%rcx)
100008dd5:	00 00 	addb	%al, (%rax)
100008dd7:	00 c0 	addb	%al, %al
100008dd9:	08 00 	orb	%al, (%rax)
100008ddb:	00 00 	addb	%al, (%rax)
100008ddd:	00 00 	addb	%al, (%rax)
100008ddf:	00 28 	addb	%ch, (%rax)
100008de1:	77 00 	ja	0 <_print_buf+0xC3>
100008de3:	00 03 	addb	%al, (%rbx)
100008de5:	00 00 	addb	%al, (%rax)
100008de7:	00 00 	addb	%al, (%rax)
100008de9:	00 00 	addb	%al, (%rax)
100008deb:	00 00 	addb	%al, (%rax)
100008ded:	00 00 	addb	%al, (%rax)
100008def:	00 00 	addb	%al, (%rax)
100008df1:	00 00 	addb	%al, (%rax)
100008df3:	00 00 	addb	%al, (%rax)
100008df5:	00 00 	addb	%al, (%rax)
100008df7:	00 00 	addb	%al, (%rax)
100008df9:	00 00 	addb	%al, (%rax)
100008dfb:	00 00 	addb	%al, (%rax)
100008dfd:	00 00 	addb	%al, (%rax)
100008dff:	00 19 	addb	%bl, (%rcx)
100008e01:	00 00 	addb	%al, (%rax)
100008e03:	00 28 	addb	%ch, (%rax)
100008e05:	02 00 	addb	(%rax), %al
100008e07:	00 5f 5f 	addb	%bl, 95(%rdi)
100008e0a:	44  <unknown>
100008e0b:	41 54 	pushq	%r12
100008e0d:	41 00 00 	addb	%al, (%r8)
100008e10:	00 00 	addb	%al, (%rax)
100008e12:	00 00 	addb	%al, (%rax)
100008e14:	00 00 	addb	%al, (%rax)
100008e16:	00 00 	addb	%al, (%rax)
100008e18:	00 80 00 00 01 00 	addb	%al, 65536(%rax)
100008e1e:	00 00 	addb	%al, (%rax)
100008e20:	00 10 	addb	%dl, (%rax)
100008e22:	00 00 	addb	%al, (%rax)
100008e24:	00 00 	addb	%al, (%rax)
100008e26:	00 00 	addb	%al, (%rax)
100008e28:	00 80 00 00 00 00 	addb	%al, (%rax)
100008e2e:	00 00 	addb	%al, (%rax)
100008e30:	00 10 	addb	%dl, (%rax)
100008e32:	00 00 	addb	%al, (%rax)
100008e34:	00 00 	addb	%al, (%rax)
100008e36:	00 00 	addb	%al, (%rax)
100008e38:	07  <unknown>
100008e39:	00 00 	addb	%al, (%rax)
100008e3b:	00 03 	addb	%al, (%rbx)
100008e3d:	00 00 	addb	%al, (%rax)
100008e3f:	00 06 	addb	%al, (%rsi)
100008e41:	00 00 	addb	%al, (%rax)
100008e43:	00 00 	addb	%al, (%rax)
100008e45:	00 00 	addb	%al, (%rax)
100008e47:	00 5f 5f 	addb	%bl, 95(%rdi)
100008e4a:	67 6f 	outsl	(%esi), %dx
100008e4c:	74 00 	je	0 <_print_buf+0x12E>
100008e4e:	00 00 	addb	%al, (%rax)
100008e50:	00 00 	addb	%al, (%rax)
100008e52:	00 00 	addb	%al, (%rax)
100008e54:	00 00 	addb	%al, (%rax)
100008e56:	00 00 	addb	%al, (%rax)
100008e58:	5f 	popq	%rdi
100008e59:	5f 	popq	%rdi
100008e5a:	44  <unknown>
100008e5b:	41 54 	pushq	%r12
100008e5d:	41 00 00 	addb	%al, (%r8)
100008e60:	00 00 	addb	%al, (%rax)
100008e62:	00 00 	addb	%al, (%rax)
100008e64:	00 00 	addb	%al, (%rax)
100008e66:	00 00 	addb	%al, (%rax)
100008e68:	00 80 00 00 01 00 	addb	%al, 65536(%rax)
100008e6e:	00 00 	addb	%al, (%rax)
100008e70:	08 00 	orb	%al, (%rax)
100008e72:	00 00 	addb	%al, (%rax)
100008e74:	00 00 	addb	%al, (%rax)
100008e76:	00 00 	addb	%al, (%rax)
100008e78:	00 80 00 00 03 00 	addb	%al, 196608(%rax)
100008e7e:	00 00 	addb	%al, (%rax)
100008e80:	00 00 	addb	%al, (%rax)
100008e82:	00 00 	addb	%al, (%rax)
100008e84:	00 00 	addb	%al, (%rax)
100008e86:	00 00 	addb	%al, (%rax)
100008e88:	06  <unknown>
100008e89:	00 00 	addb	%al, (%rax)
100008e8b:	00 0f 	addb	%cl, (%rdi)
100008e8d:	00 00 	addb	%al, (%rax)
100008e8f:	00 00 	addb	%al, (%rax)
100008e91:	00 00 	addb	%al, (%rax)
100008e93:	00 00 	addb	%al, (%rax)
100008e95:	00 00 	addb	%al, (%rax)
100008e97:	00 5f 5f 	addb	%bl, 95(%rdi)
100008e9a:	6e 	outsb	(%rsi), %dx
100008e9b:	6c 	insb	%dx, %es:(%rdi)
100008e9c:	5f 	popq	%rdi
100008e9d:	73 79 	jae	121 <_print_buf+0x1F8>
100008e9f:	6d 	insl	%dx, %es:(%rdi)
100008ea0:	62  <unknown>
100008ea1:	6f 	outsl	(%rsi), %dx
100008ea2:	6c 	insb	%dx, %es:(%rdi)
100008ea3:	5f 	popq	%rdi
100008ea4:	70 74 	jo	116 <_print_buf+0x1FA>
100008ea6:	72 00 	jb	0 <_print_buf+0x188>
100008ea8:	5f 	popq	%rdi
100008ea9:	5f 	popq	%rdi
100008eaa:	44  <unknown>
100008eab:	41 54 	pushq	%r12
100008ead:	41 00 00 	addb	%al, (%r8)
100008eb0:	00 00 	addb	%al, (%rax)
100008eb2:	00 00 	addb	%al, (%rax)
100008eb4:	00 00 	addb	%al, (%rax)
100008eb6:	00 00 	addb	%al, (%rax)
100008eb8:	08 80 00 00 01 00 	orb	%al, 65536(%rax)
100008ebe:	00 00 	addb	%al, (%rax)
100008ec0:	10 00 	adcb	%al, (%rax)
100008ec2:	00 00 	addb	%al, (%rax)
100008ec4:	00 00 	addb	%al, (%rax)
100008ec6:	00 00 	addb	%al, (%rax)
100008ec8:	08 80 00 00 03 00 	orb	%al, 196608(%rax)
100008ece:	00 00 	addb	%al, (%rax)
100008ed0:	00 00 	addb	%al, (%rax)
100008ed2:	00 00 	addb	%al, (%rax)
100008ed4:	00 00 	addb	%al, (%rax)
100008ed6:	00 00 	addb	%al, (%rax)
100008ed8:	06  <unknown>
100008ed9:	00 00 	addb	%al, (%rax)
100008edb:	00 10 	addb	%dl, (%rax)
100008edd:	00 00 	addb	%al, (%rax)
100008edf:	00 00 	addb	%al, (%rax)
100008ee1:	00 00 	addb	%al, (%rax)
100008ee3:	00 00 	addb	%al, (%rax)
100008ee5:	00 00 	addb	%al, (%rax)
100008ee7:	00 5f 5f 	addb	%bl, 95(%rdi)
100008eea:	6c 	insb	%dx, %es:(%rdi)
100008eeb:	61  <unknown>
100008eec:	5f 	popq	%rdi
100008eed:	73 79 	jae	121 <___intel_cpu_feature_indicator_x+0x20>
100008eef:	6d 	insl	%dx, %es:(%rdi)
100008ef0:	62  <unknown>
100008ef1:	6f 	outsl	(%rsi), %dx
100008ef2:	6c 	insb	%dx, %es:(%rdi)
100008ef3:	5f 	popq	%rdi
100008ef4:	70 74 	jo	116 <___intel_cpu_feature_indicator_x+0x22>
100008ef6:	72 00 	jb	0 <_print_buf+0x1D8>
100008ef8:	5f 	popq	%rdi
100008ef9:	5f 	popq	%rdi
100008efa:	44  <unknown>
100008efb:	41 54 	pushq	%r12
100008efd:	41 00 00 	addb	%al, (%r8)
100008f00:	00 00 	addb	%al, (%rax)
100008f02:	00 00 	addb	%al, (%rax)
100008f04:	00 00 	addb	%al, (%rax)
100008f06:	00 00 	addb	%al, (%rax)
100008f08:	18 80 00 00 01 00 	sbbb	%al, 65536(%rax)
100008f0e:	00 00 	addb	%al, (%rax)
100008f10:	78 00 	js	0 <_print_buf+0x1F2>
100008f12:	00 00 	addb	%al, (%rax)
100008f14:	00 00 	addb	%al, (%rax)
100008f16:	00 00 	addb	%al, (%rax)
100008f18:	18 80 00 00 03 00 	sbbb	%al, 196608(%rax)
100008f1e:	00 00 	addb	%al, (%rax)

_message_catalog:
100008f20:	00 00 	addb	%al, (%rax)
100008f22:	00 00 	addb	%al, (%rax)
100008f24:	00 00 	addb	%al, (%rax)
100008f26:	00 00 	addb	%al, (%rax)
100008f28:	07  <unknown>
100008f29:	00 00 	addb	%al, (%rax)
100008f2b:	00 12 	addb	%dl, (%rdx)
100008f2d:	00 00 	addb	%al, (%rax)
100008f2f:	00 00 	addb	%al, (%rax)
100008f31:	00 00 	addb	%al, (%rax)
100008f33:	00 00 	addb	%al, (%rax)
100008f35:	00 00 	addb	%al, (%rax)
100008f37:	00 5f 5f 	addb	%bl, 95(%rdi)
100008f3a:	64 65 62  <unknown>
100008f3d:	75 67 	jne	103 <___intel_cpu_feature_indicator_x+0x5E>
100008f3f:	5f 	popq	%rdi

___intel_cpu_feature_indicator:
100008f40:	6f 	outsl	(%rsi), %dx
100008f41:	70 74 	jo	116 <___intel_cpu_feature_indicator_x+0x6F>
100008f43:	5f 	popq	%rdi
100008f44:	72 70 	jb	112 <___intel_cpu_feature_indicator_x+0x6E>
100008f46:	74 00 	je	0 <___intel_cpu_feature_indicator_x>

___intel_cpu_feature_indicator_x:
100008f48:	5f 	popq	%rdi
100008f49:	5f 	popq	%rdi
100008f4a:	44  <unknown>
100008f4b:	41 54 	pushq	%r12
100008f4d:	41 00 00 	addb	%al, (%r8)
Contents of section __text:
 100000ab0 554889e5 4883e480 41544155 41564157  UH..H...ATAUAVAW
 100000ac0 534881ec d8000000 4889f333 f6bf0300  SH......H..3....
 100000ad0 0000e849 200000c5 f8ae1c24 810c2440  ...I ......$..$@
 100000ae0 80000048 8b4b08c5 f8ae1424 e84f5200  ...H.K.....$.OR.
 100000af0 00bfd204 000089c3 e8a75900 004189de  ..........Y..A..
 100000b00 4d03f64c 89f7e87b 59000049 89c54c89  M..L...{Y..I..L.
 100000b10 f7e87059 00004889 4424304c 89f7e863  ..pY..H.D$0L...c
 100000b20 59000049 89c74c89 f7e85859 00004989  Y..I..L...XY..I.
 100000b30 c44c89f7 e84d5900 004989c6 4d85ed0f  .L...MY..I..M...
 100000b40 84020800 0048837c 2430000f 84f60700  .....H.|$0......
 100000b50 004d85ff 0f84ed07 00004d85 e40f84e4  .M........M.....
 100000b60 0700004d 85f60f84 db070000 33c985db  ...M........3...
 100000b70 76554863 d3b80100 00004c89 6424104c  vUHc......L.d$.L
 100000b80 89742408 4989d64c 897c2440 4989cf89  .t$.I..L.|$@I...
 100000b90 5c245089 c34c8b64 24306643 895c7d00  \$P..L.d$0fC.\}.
 100000ba0 e8f35800 00664389 047c49ff c74d3bfe  ..X..fC..|I..M;.
 100000bb0 72e88b5c 245085db 4c8b7424 084c8b64  r..\$P..L.t$.L.d
 100000bc0 24104c8b 7c24400f 86d20000 008d4307  $.L.|$@.......C.
 100000bd0 c1f802c1 e81d8d4c 18074863 c94883e1  .......L..Hc.H..
 100000be0 f84883f9 100f8c89 07000048 81f9b904  .H.........H....
 100000bf0 00000f8c 83070000 4c89fa48 83e21f85  ........L..H....
 100000c00 d27410f6 c2010f85 68070000 f7da83c2  .t......h.......
 100000c10 20d1ea89 d0488d78 10483bcf 0f8c5207   ....H.x.H;...R.
 100000c20 00004189 cb4489df 2bfa83e7 0f442bdf  ..A..D..+....D+.
 100000c30 33ff85d2 4963d376 214c8b54 2430450f  3...Ic.v!L.T$0E.
 100000c40 b74c7d00 450fb704 7a450faf c8664589  .L}.E...zE...fE.
 100000c50 0c7f48ff c7483bf8 72e4488b 7c2430c4  ..H..H;.r.H.|$0.
 100000c60 c17e6f44 4500c5fd d50c47c4 c17e7f0c  .~oDE.....G..~..
 100000c70 474883c0 10483bc2 72e5483b d173204c  GH...H;.r.H;.s L
 100000c80 8b442430 410fb77c 5500410f b704500f  .D$0A..|U.A...P.
 100000c90 aff86641 893c5748 ffc2483b d172e541  ..fA.<WH..H;.r.A
 100000ca0 89da33c9 41c1ea03 33d24585 d20f86b5  ..3.A...3.E.....
 100000cb0 00000044 89d04c8b 442430c4 a17a6f04  ...D..L.D$0..zo.
 100000cc0 2a4883c1 08c4a17a 6f4c2a10 4a8d3c22  *H.....zoL*.J.<"
 100000cd0 c4a17a6f 542a20c4 a17a6f5c 2a30c4a1  ..zoT* ..zo\*0..
 100000ce0 7a6f642a 40c4a17a 6f6c2a50 c4a17a6f  zod*@..zol*P..zo
 100000cf0 742a60c4 a17a6f7c 2a70c421 79d50402  t*`..zo|*p.!y...
 100000d00 c42171d5 4c0210c4 2169d554 0220c421  .!q.L...!i.T. .!
 100000d10 61d55c02 30c42159 d5640240 c42151d5  a.\.0.!Y.d.@.!Q.
 100000d20 6c0250c4 2149d574 0260c421 41d57c02  l.P.!I.t.`.!A.|.
 100000d30 704881c2 80000000 c57a7f07 c57a7f4f  pH.......z...z.O
 100000d40 10c57a7f 5720c57a 7f5f30c5 7a7f6740  ..z.W .z._0.z.g@
 100000d50 c57a7f6f 50c57a7f 7760c57a 7f7f7048  .z.oP.z.w`.z..pH
 100000d60 3bc80f82 53ffffff 89d833c9 c1e80433  ;...S.....3....3
 100000d70 d2894424 1885c00f 86de0000 008b4424  ..D$..........D$
 100000d80 18488b7c 2430c4a1 7e6f042a 4883c108  .H.|$0..~o.*H...
 100000d90 c4a17e6f 542a20c4 a17e6f64 2a40c4a1  ..~oT* ..~od*@..
 100000da0 7e6f742a 60c4217e 6f842a80 000000c4  ~ot*`.!~o.*.....
 100000db0 217e6f94 2aa00000 00c4217e 6fa42ac0  !~o.*.....!~o.*.
 100000dc0 000000c4 217e6fb4 2ae00000 00c5fdd5  ....!~o.*.......
 100000dd0 0c3ac5ed d55c3a20 c5ddd56c 3a40c5cd  .:...\: ...l:@..
 100000de0 d57c3a60 c53dd58c 3a800000 00c52dd5  .|:`.=..:.....-.
 100000df0 9c3aa000 0000c51d d5ac3ac0 000000c5  .:........:.....
 100000e00 0dd5bc3a e0000000 c4a17e7f 0c32c4a1  ...:......~..2..
 100000e10 7e7f5c32 20c4a17e 7f6c3240 c4a17e7f  ~.\2 ..~.l2@..~.
 100000e20 7c3260c4 217e7f8c 32800000 00c4217e  |2`.!~..2.....!~
 100000e30 7f9c32a0 000000c4 217e7fac 32c00000  ..2.....!~..2...
 100000e40 00c4217e 7fbc32e0 00000048 81c20001  ..!~..2....H....
 100000e50 0000483b c80f822b ffffff33 d285db76  ..H;...+...3...v
 100000e60 2a4863c3 410fbf3c 57410fbf 0c543bf9  *Hc.A..<WA...T;.
 100000e70 0f85d104 0000410f bf0c563b f90f85c4  ......A...V;....
 100000e80 04000048 ffc2483b d072d933 c98d4307  ...H..H;.r.3..C.
 100000e90 c1f80245 33c0c1e8 1d4c897c 24404489  ...E3....L.|$@D.
 100000ea0 14244c89 7424088d 74030748 63f64c89  .$L.t$..t..Hc.L.
 100000eb0 f84883e6 f84883e0 1f89f241 89c389d7  .H...H.....A....
 100000ec0 41f7db83 e7f04183 c3204c63 cf89c741  A.....A.. Lc...A
 100000ed0 d1eb83e7 0144895c 24284189 c6897c24  .....D.\$(A...|$
 100000ee0 484c894c 24204989 c94c8964 24104c89  HL.L$ I..L.d$.L.
 100000ef0 6c243841 89d54989 cfc5f877 488d7c24  l$8A..I....wH.|$
 100000f00 6041ffc0 0f01f948 c1e22048 0bc2890f  `A.....H.. H....
 100000f10 4989c485 db0f86ea 00000048 83fe100f  I..........H....
 100000f20 8c3c0400 004881fe b9040000 0f8c3604  .<...H........6.
 100000f30 00004589 f24585f6 7410837c 2448000f  ..E..E..t..|$H..
 100000f40 851c0400 00448b54 24284489 d2488d7a  .....D.T$(D..H.z
 100000f50 10483bf7 0f8c0704 00004489 ef33c041  .H;.......D..3.A
 100000f60 2bfa83e7 0ff7df41 03fd4863 ff4585d2  +......A..Hc.E..
 100000f70 763b4c89 4c245889 5c24504c 8b4c2440  v;L.L$X.\$PL.L$@
 100000f80 4c8b5424 304c8b5c 2438410f b71c4341  L.T$0L.\$8A...CA
 100000f90 0fb70c42 0fafd966 41891c41 48ffc048  ...B...fA..AH..H
 100000fa0 3bc272e6 4c8b4c24 588b5c24 504c8b54  ;.r.L.L$X.\$PL.T
 100000fb0 24404c8b 5c243048 8b442438 c5fe6f04  $@L.\$0H.D$8..o.
 100000fc0 50c4c17d d50c53c4 c17e7f0c 524883c2  P..}..S..~..RH..
 100000fd0 10483bd7 72e6483b fe732a48 8b442440  .H;.r.H;.s*H.D$@
 100000fe0 488b5424 30488b4c 2438440f b71c7944  H.T$0H.L$8D...yD
 100000ff0 0fb7147a 450fafda 6644891c 7848ffc7  ...zE...fD..xH..
 100001000 483bfe72 e5c5f877 488d7c24 640f01f9  H;.r...wH.|$d...
 100001010 48c1e220 480bc289 0f492bc4 493bc74c  H.. H....I+.I;.L
 100001020 0f4ff84c 03c84181 f8a08601 000f82c6  .O.L..A.........
 100001030 feffff4c 89c9488d 3d235500 004889c8  ...L..H.=#U..H..
 100001040 89de4899 49f7f848 89ca4189 c133c04c  ..H.I..H..A..3.L
 100001050 89f94c8b 7424084c 8b642410 4c8b6c24  ..L.t$.L.d$.L.l$
 100001060 38e82654 0000448b 1424418d 4207c1e8  8.&T..D..$A.B...
 100001070 034533c9 488b7424 304533ff 4c897424  .E3.H.t$0E3.L.t$
 100001080 084533c0 4c896c24 384189c6 895c2450  .E3.L.l$8A...\$P
 100001090 4d89e545 89d4488d 7c241041 ffc00f01  M..E..H.|$.A....
 1000010a0 f948c1e2 20480bc2 890f4889 c34585e4  .H.. H....H..E..
 1000010b0 0f86be00 00004c8b 5c243833 d28d3cd5  ......L.\$83..<.
 1000010c0 00000000 ffc24863 ff48c1e7 04c4c17a  ......Hc.H.....z
 1000010d0 6f043bc4 c17a6f54 3b10c4c1 7a6f643b  o.;..zoT;...zod;
 1000010e0 20c4c17a 6f743b30 c4417a6f 443b40c4   ..zot;0.AzoD;@.
 1000010f0 417a6f54 3b50c441 7a6f643b 60c4417a  AzoT;P.Azod;`.Az
 100001100 6f743b70 c5f9d50c 3ec5e9d5 5c3e10c5  ot;p....>...\>..
 100001110 d9d56c3e 20c5c9d5 7c3e30c5 39d54c3e  ..l> ...|>0.9.L>
 100001120 40c529d5 5c3e50c5 19d56c3e 60c509d5  @.).\>P...l>`...
 100001130 7c3e70c4 c17a7f4c 3d00c4c1 7a7f5c3d  |>p..z.L=...z.\=
 100001140 10c4c17a 7f6c3d20 c4c17a7f 7c3d30c4  ...z.l= ..z.|=0.
 100001150 417a7f4c 3d40c441 7a7f5c3d 50c4417a  Az.L=@.Az.\=P.Az
 100001160 7f6c3d60 c4417a7f 7c3d7041 3bd60f8c  .l=`.Az.|=pA;...
 100001170 49ffffff 488d7c24 140f01f9 48c1e220  I...H.|$....H.. 
 100001180 480bc289 0f482bc3 493bc74c 0f4ff84c  H....H+.I;.L.O.L
 100001190 03c84181 f8a08601 000f82f7 feffff4c  ..A............L
 1000011a0 89c8488d 3dd75300 004c89f9 489949f7  ..H.=.S..L..H.I.
 1000011b0 f88b5c24 5089de4c 89ca4189 c133c04c  ..\$P..L..A..3.L
 1000011c0 8b742408 4c8b6c24 38e8be52 00008b44  .t$.L.l$8..R...D
 1000011d0 24184533 ff488b74 24304533 e44c896c  $.E3.H.t$0E3.L.l
 1000011e0 24384533 c0895c24 50448d48 0741c1e9  $8E3..\$PD.H.A..
 1000011f0 034189c5 488d3c24 41ffc00f 01f948c1  .A..H.<$A.....H.
 100001200 e220480b c2890f48 89c34585 ed0f86e1  . H....H..E.....
 100001210 0000004c 8b542438 33c08d3c c5000000  ...L.T$83..<....
 100001220 00ffc048 63ff48c1 e705c4c1 7e6f043a  ...Hc.H.....~o.:
 100001230 c4c17e6f 543a20c4 c17e6f64 3a40c4c1  ..~oT: ..~od:@..
 100001240 7e6f743a 60c4417e 6f843a80 000000c4  ~ot:`.A~o.:.....
 100001250 417e6f94 3aa00000 00c4417e 6fa43ac0  A~o.:.....A~o.:.
 100001260 000000c4 417e6fb4 3ae00000 00c5fdd5  ....A~o.:.......
 100001270 0c3ec5ed d55c3e20 c5ddd56c 3e40c5cd  .>...\> ...l>@..
 100001280 d57c3e60 c53dd58c 3e800000 00c52dd5  .|>`.=..>.....-.
 100001290 9c3ea000 0000c51d d5ac3ec0 000000c5  .>........>.....
 1000012a0 0dd5bc3e e0000000 c4c17e7f 0c3ec4c1  ...>......~..>..
 1000012b0 7e7f5c3e 20c4c17e 7f6c3e40 c4c17e7f  ~.\> ..~.l>@..~.
 1000012c0 7c3e60c4 417e7f8c 3e800000 00c4417e  |>`.A~..>.....A~
 1000012d0 7f9c3ea0 000000c4 417e7fac 3ec00000  ..>.....A~..>...
 1000012e0 00c4417e 7fbc3ee0 00000041 3bc10f8c  ..A~..>....A;...
 1000012f0 26ffffff c5f87748 8d7c2404 0f01f948  &.....wH.|$....H
 100001300 c1e22048 0bc2890f 482bc349 3bc44c0f  .. H....H+.I;.L.
 100001310 4fe04c03 f84181f8 a0860100 0f82d2fe  O.L..A..........
 100001320 ffff4c89 f8488d3d 74520000 4c89e148  ..L..H.=tR..L..H
 100001330 9949f7f8 8b5c2450 89de4c89 fa4189c1  .I...\$P..L..A..
 100001340 33c0e845 510000c5 f87733c0 4881c4d8  3..EQ....w3.H...
 100001350 0000005b 415f415e 415d415c 4889ec5d  ...[A_A^A]A\H..]
 100001360 c333ffe9 6efcffff 488b7c24 2033d2e9  .3..n...H.|$ 3..
 100001370 39fcffff 33d2e9ff f8ffff89 ca33c083  9...3........3..
 100001380 e2f04863 d2e9d0f8 ffff660f 1f440000  ..Hc......f..D..
 100001390 4883ec18 488d3d25 520000c5 fa7f0424  H...H.=%R......$
 1000013a0 4883c4e0 0fbf4424 2a440fbf 54242c44  H.....D$*D..T$,D
 1000013b0 0fbf5c24 2e890424 33c00fbf 7424200f  ..\$...$3...t$ .
 1000013c0 bf542422 0fbf4c24 24440fbf 44242644  .T$"..L$$D..D$&D
 1000013d0 0fbf4c24 28448954 24084489 5c2410e8  ..L$(D.T$.D.\$..
 1000013e0 a8500000 4883c420 4883c418 c30f1f00  .P..H.. H.......
 1000013f0 4989d149 89f033f6 85c90f86 2e010000  I..I..3.........
 100001400 8d4107c1 f802c1e8 1d8d4c01 07c1f903  .A........L.....
 100001410 8d14f500 00000048 63d2488d 04574d8d  .......Hc.H..WM.
 100001420 14514c3b d0760e48 f7d84903 c24883f8  .QL;.v.H..I..H..
 100001430 107d10eb 46493bc2 7641492b c24883f8  .}..FI;.vAI+.H..
 100001440 107c3849 8d04504c 3bd0760b 4c2bd049  .|8I..PL;.v.L+.I
 100001450 83fa107d 10eb2449 3bc2761f 492bc248  ...}..$I;.v.I+.H
 100001460 83f8107c 16c5fa6f 0457c4c1 79d50c50  ...|...o.W..y..P
 100001470 c4c17a7f 0c51e9a9 00000044 0fb71c57  ..z..Q.....D...W
 100001480 498d0451 450fb714 50450faf da664489  I..QE...PE...fD.
 100001490 18440fb7 5c570245 0fb75450 02450faf  .D..\W.E..TP.E..
 1000014a0 da664489 5802440f b75c5704 450fb754  .fD.X.D..\W.E..T
 1000014b0 5004450f afda6644 89580444 0fb75c57  P.E...fD.X.D..\W
 1000014c0 06450fb7 54500645 0fafda66 44895806  .E..TP.E...fD.X.
 1000014d0 440fb75c 5708450f b7545008 450fafda  D..\W.E..TP.E...
 1000014e0 66448958 08440fb7 5c570a45 0fb75450  fD.X.D..\W.E..TP
 1000014f0 0a450faf da664489 580a440f b75c570c  .E...fD.X.D..\W.
 100001500 450fb754 500c450f afda6644 89580c44  E..TP.E...fD.X.D
 100001510 0fb75457 0e410fb7 54500e44 0fafd266  ..TW.A..TP.D...f
 100001520 4489500e ffc63bf1 0f82e2fe ffffc390  D.P...;.........
 100001530 4989f0c1 e90333f6 33c085c9 0f86ac00  I.....3.3.......
 100001540 0000c5fa 6f04384c 8d0c10c4 a179d50c  ....o.8L.....y..
 100001550 004883c6 08c4c17a 7f09c5fa 6f543810  .H.....z....oT8.
 100001560 c4a169d5 5c0010c4 c17a7f59 10c5fa6f  ..i.\....z.Y...o
 100001570 643820c4 a159d56c 0020c4c1 7a7f6920  d8 ..Y.l. ..z.i 
 100001580 c5fa6f74 3830c4a1 49d57c00 30c4c17a  ..ot80..I.|.0..z
 100001590 7f7930c5 7a6f4438 40c42139 d54c0040  .y0.zoD8@.!9.L.@
 1000015a0 c4417a7f 4940c57a 6f543850 c42129d5  .Az.I@.zoT8P.!).
 1000015b0 5c0050c4 417a7f59 50c57a6f 643860c4  \.P.Az.YP.zod8`.
 1000015c0 2119d56c 0060c441 7a7f6960 c57a6f74  !..l.`.Az.i`.zot
 1000015d0 3870c421 09d57c00 70480580 000000c4  8p.!..|.pH......
 1000015e0 417a7f79 70483bf1 0f8254ff ffffc390  Az.ypH;...T.....
 1000015f0 4989f0c1 e90433f6 33c085c9 0f86d000  I.....3.3.......
 100001600 0000c5fe 6f04384c 8d0c10c4 a17dd50c  ....o.8L.....}..
 100001610 004883c6 08c4c17e 7f09c5fe 6f543820  .H.....~....oT8 
 100001620 c4a16dd5 5c0020c4 c17e7f59 20c5fe6f  ..m.\. ..~.Y ..o
 100001630 643840c4 a15dd56c 0040c4c1 7e7f6940  d8@..].l.@..~.i@
 100001640 c5fe6f74 3860c4a1 4dd57c00 60c4c17e  ..ot8`..M.|.`..~
 100001650 7f7960c5 7e6f8438 80000000 c4213dd5  .y`.~o.8.....!=.
 100001660 8c008000 0000c441 7e7f8980 000000c5  .......A~.......
 100001670 7e6f9438 a0000000 c4212dd5 9c00a000  ~o.8.....!-.....
 100001680 0000c441 7e7f99a0 000000c5 7e6fa438  ...A~.......~o.8
 100001690 c0000000 c4211dd5 ac00c000 0000c441  .....!.........A
 1000016a0 7e7fa9c0 000000c5 7e6fb438 e0000000  ~.......~o.8....
 1000016b0 c4210dd5 bc00e000 00004805 00010000  .!........H.....
 1000016c0 c4417e7f b9e00000 00483bf1 0f8230ff  .A~......H;...0.
 1000016d0 ffffc5f8 77c30f1f 000f1f80 00000000  ....w...........
 1000016e0 554889e5 4883e4e0 41544155 41564157  UH..H...ATAUAVAW
 1000016f0 534883ec 584189fe 89f7e8a5 4d000045  SH..XA......M..E
 100001700 89f74d03 ff4c89ff e8794d00 004989c5  ..M..L...yM..I..
 100001710 4c89ffe8 6e4d0000 4889c34c 89ffe863  L...nM..H..L...c
 100001720 4d000049 89c44c89 ffe8584d 00004889  M..I..L...XM..H.
 100001730 4424204c 89ffe84b 4d000048 89442418  D$ L...KM..H.D$.
 100001740 4d85ed0f 84470800 004885db 0f843e08  M....G...H....>.
 100001750 00004d85 e40f8435 08000048 837c2420  ..M....5...H.|$ 
 100001760 000f8429 08000048 837c2418 000f841d  ...)...H.|$.....
 100001770 08000033 d24585f6 0f86d007 0000b801  ...3.E..........
 100001780 0000004d 63fe4c89 24244989 d4448974  ...Mc.L.$$I..D.t
 100001790 24084189 c6664789 746500e8 f84c0000  $.A..fG.te...L..
 1000017a0 66428904 6349ffc4 4d3be772 e8448b74  fB..cI..M;.r.D.t
 1000017b0 2408418d 4607c1f8 02c1e81d 4c8b2424  $.A.F.......L.$$
 1000017c0 428d5430 074863d2 4883e2f8 4883fa10  B.T0.Hc.H...H...
 1000017d0 0f8c6207 00004881 fab90400 000f8c5c  ..b...H........\
 1000017e0 0700004c 89e14883 e11f85c9 7410f6c1  ...L..H.....t...
 1000017f0 010f8541 070000f7 d983c120 d1e989c8  ...A....... ....
 100001800 488d7810 483bd70f 8c2b0700 0089d741  H.x.H;...+.....A
 100001810 89f8442b c14183e0 0f412bf8 4863ff85  ..D+.A...A+.Hc..
 100001820 c9b90000 0000761c 450fb74c 4d00440f  ......v.E..LM.D.
 100001830 b7044b45 0fafc866 45890c4c 48ffc148  ..KE...fE..LH..H
 100001840 3bc872e4 c4c17e6f 444500c5 fdd50c43  ;.r...~oDE.....C
 100001850 c4c17e7f 0c444883 c010483b c772e548  ..~..DH...H;.r.H
 100001860 3bfa731a 410fb74c 7d000fb7 047b0faf  ;.s.A..L}....{..
 100001870 c8664189 0c7c48ff c7483bfa 72e64489  .fA..|H..H;.r.D.
 100001880 f0c1e803 89442410 85c00f86 92060000  .....D$.........
 100001890 33c98b54 241033c0 4c8b4424 20c4a17a  3..T$.3.L.D$ ..z
 1000018a0 6f042848 83c108c4 a17a6f4c 28104a8d  o.(H.....zoL(.J.
 1000018b0 3c00c4a1 7a6f5428 20c4a17a 6f5c2830  <...zoT( ..zo\(0
 1000018c0 c4a17a6f 642840c4 a17a6f6c 2850c4a1  ..zod(@..zol(P..
 1000018d0 7a6f7428 60c4a17a 6f7c2870 c579d504  zot(`..zo|(p.y..
 1000018e0 18c571d5 4c1810c5 69d55418 20c561d5  ..q.L...i.T. .a.
 1000018f0 5c1830c5 59d56418 40c551d5 6c1850c5  \.0.Y.d.@.Q.l.P.
 100001900 49d57418 60c541d5 7c187048 05800000  I.t.`.A.|.pH....
 100001910 00c57a7f 07c57a7f 4f10c57a 7f5720c5  ..z...z.O..z.W .
 100001920 7a7f5f30 c57a7f67 40c57a7f 6f50c57a  z._0.z.g@.z.oP.z
 100001930 7f7760c5 7a7f7f70 483bca0f 825cffff  .w`.z..pH;...\..
 100001940 ff4489f0 c1e80489 042485c0 0f86d800  .D.......$......
 100001950 000033c9 8b142433 c0488b7c 2418c4a1  ..3...$3.H.|$...
 100001960 7e6f0428 4883c108 c4a17e6f 542820c4  ~o.(H.....~oT( .
 100001970 a17e6f64 2840c4a1 7e6f7428 60c4217e  .~od(@..~ot(`.!~
 100001980 6f842880 000000c4 217e6f94 28a00000  o.(.....!~o.(...
 100001990 00c4217e 6fa428c0 000000c4 217e6fb4  ..!~o.(.....!~o.
 1000019a0 28e00000 00c5fdd5 0c18c5ed d55c1820  (............\. 
 1000019b0 c5ddd56c 1840c5cd d57c1860 c53dd58c  ...l.@...|.`.=..
 1000019c0 18800000 00c52dd5 9c18a000 0000c51d  ......-.........
 1000019d0 d5ac18c0 000000c5 0dd5bc18 e0000000  ................
 1000019e0 c5fe7f0c 38c5fe7f 5c3820c5 fe7f6c38  ....8...\8 ...l8
 1000019f0 40c5fe7f 7c3860c5 7e7f8c38 80000000  @...|8`.~..8....
 100001a00 c57e7f9c 38a00000 00c57e7f ac38c000  .~..8.....~..8..
 100001a10 0000c57e 7fbc38e0 00000048 05000100  ...~..8....H....
 100001a20 00483bca 0f8234ff ffff4585 f60f86be  .H;...4...E.....
 100001a30 0400004d 63fe488b 7c241833 c04c8b44  ...Mc.H.|$.3.L.D
 100001a40 2420410f bf0c4441 0fbf1440 3bca0f85  $ A...DA...@;...
 100001a50 22050000 0fbf1447 3bca0f85 16050000  "......G;.......
 100001a60 48ffc049 3bc772da 4533ffbe 01000000  H..I;.r.E3......
 100001a70 4533c048 8d7c2438 4189f1c5 f8770f01  E3.H.|$8A....w..
 100001a80 f948c1e2 20480bc2 890f8974 24284889  .H.. H.....t$(H.
 100001a90 c6418d7e 07c1ff02 c1ef1d46 8d543707  .A.~.......F.T7.
 100001aa0 4d63d249 83e2f849 83fa100f 8c290400  Mc.I...I.....)..
 100001ab0 004981fa b9040000 0f8c2304 00004c89  .I........#...L.
 100001ac0 e74883e7 1f85ff74 13f7c701 0000000f  .H.....t........
 100001ad0 85050400 00f7df83 c720d1ef 89f84c8d  ......... ....L.
 100001ae0 58104d3b d30f8cef 03000044 89d24189  X.M;.......D..A.
 100001af0 d3442bdf 4183e30f 412bd345 33db85ff  .D+.A...A+.E3...
 100001b00 4863fa76 1b430fb7 4c5d0042 0fb7145b  Hc.v.C..L].B...[
 100001b10 0fafca66 43890c5c 49ffc34c 3bd872e5  ...fC..\I..L;.r.
 100001b20 c4c17e6f 444500c5 fdd50c43 c4c17e7f  ..~oDE.....C..~.
 100001b30 0c444883 c010483b c772e549 3bfa731c  .DH...H;.r.I;.s.
 100001b40 410fb744 7d00440f b71c7b41 0fafc366  A..D}.D...{A...f
 100001b50 4189047c 48ffc749 3bfa72e4 4c896c24  A..|H..I;.r.L.l$
 100001b60 30448b6c 2428c5f8 77488d7c 243c0f01  0D.l$(..wH.|$<..
 100001b70 f948c1e2 20480bc2 890f482b c6493bc0  .H.. H....H+.I;.
 100001b80 4c0f4fc0 4c03f841 81fda086 01007332  L.O.L..A......s2
 100001b90 41ffc548 8d7c2438 4589e90f 01f948c1  A..H.|$8E.....H.
 100001ba0 e220480b c2890f48 89c64585 f676b70f  . H....H..E..v..
 100001bb0 1f400044 896c2428 4c8b6c24 30e9cffe  .@.D.l$(L.l$0...
 100001bc0 ffff4c89 f8488d3d 94490000 4d63c944  ..L..H.=.I..Mc.D
 100001bd0 89f64899 4c89c149 f7f94c89 fa4589c8  ..H.L..I..L..E..
 100001be0 4189c133 c04c8b6c 2430e89d 4800008b  A..3.L.l$0..H...
 100001bf0 44241045 33e44489 74240845 33ff4c89  D$.E3.D.t$.E3.L.
 100001c00 6c243045 33c04c8b 74242044 8d480741  l$0E3.L.t$ D.H.A
 100001c10 c1e90341 89c5488d 7c242841 ffc00f01  ...A..H.|$(A....
 100001c20 f948c1e2 20480bc2 890f4889 c64585ed  .H.. H....H..E..
 100001c30 0f86bd00 00004c8b 54243033 c08d3cc5  ......L.T$03..<.
 100001c40 00000000 ffc04863 ff48c1e7 04c4c17a  ......Hc.H.....z
 100001c50 6f043ac4 c17a6f54 3a10c4c1 7a6f643a  o.:..zoT:...zod:
 100001c60 20c4c17a 6f743a30 c4417a6f 443a40c4   ..zot:0.AzoD:@.
 100001c70 417a6f54 3a50c441 7a6f643a 60c4417a  AzoT:P.Azod:`.Az
 100001c80 6f743a70 c5f9d50c 3bc5e9d5 5c3b10c5  ot:p....;...\;..
 100001c90 d9d56c3b 20c5c9d5 7c3b30c5 39d54c3b  ..l; ...|;0.9.L;
 100001ca0 40c529d5 5c3b50c5 19d56c3b 60c509d5  @.).\;P...l;`...
 100001cb0 7c3b70c4 c17a7f0c 3ec4c17a 7f5c3e10  |;p..z..>..z.\>.
 100001cc0 c4c17a7f 6c3e20c4 c17a7f7c 3e30c441  ..z.l> ..z.|>0.A
 100001cd0 7a7f4c3e 40c4417a 7f5c3e50 c4417a7f  z.L>@.Az.\>P.Az.
 100001ce0 6c3e60c4 417a7f7c 3e70413b c10f8c4a  l>`.Az.|>pA;...J
 100001cf0 ffffff48 8d7c242c 0f01f948 c1e22048  ...H.|$,...H.. H
 100001d00 0bc2890f 482bc649 3bc74c0f 4ff84c03  ....H+.I;.L.O.L.
 100001d10 e04181f8 a0860100 0f82f8fe ffff4c89  .A............L.
 100001d20 e0488d3d 58480000 4c89f948 9949f7f8  .H.=XH..L..H.I..
 100001d30 448b7424 084489f6 4c89e241 89c133c0  D.t$.D..L..A..3.
 100001d40 4c8b6c24 30e84247 00008b04 244533ff  L.l$0.BG....$E3.
 100001d50 44897424 084533e4 4c896c24 304533c0  D.t$.E3.L.l$0E3.
 100001d60 4c8b7424 18448d48 0741c1e9 034189c5  L.t$.D.H.A...A..
 100001d70 488d7c24 1041ffc0 0f01f948 c1e22048  H.|$.A.....H.. H
 100001d80 0bc2890f 4889c645 85ed0f86 e1000000  ....H..E........
 100001d90 4c8b5424 3033c08d 3cc50000 0000ffc0  L.T$03..<.......
 100001da0 4863ff48 c1e705c4 c17e6f04 3ac4c17e  Hc.H.....~o.:..~
 100001db0 6f543a20 c4c17e6f 643a40c4 c17e6f74  oT: ..~od:@..~ot
 100001dc0 3a60c441 7e6f843a 80000000 c4417e6f  :`.A~o.:.....A~o
 100001dd0 943aa000 0000c441 7e6fa43a c0000000  .:.....A~o.:....
 100001de0 c4417e6f b43ae000 0000c5fd d50c3bc5  .A~o.:........;.
 100001df0 edd55c3b 20c5ddd5 6c3b40c5 cdd57c3b  ..\; ...l;@...|;
 100001e00 60c53dd5 8c3b8000 0000c52d d59c3ba0  `.=..;.....-..;.
 100001e10 000000c5 1dd5ac3b c0000000 c50dd5bc  .......;........
 100001e20 3be00000 00c4c17e 7f0c3ec4 c17e7f5c  ;......~..>..~.\
 100001e30 3e20c4c1 7e7f6c3e 40c4c17e 7f7c3e60  > ..~.l>@..~.|>`
 100001e40 c4417e7f 8c3e8000 0000c441 7e7f9c3e  .A~..>.....A~..>
 100001e50 a0000000 c4417e7f ac3ec000 0000c441  .....A~..>.....A
 100001e60 7e7fbc3e e0000000 413bc10f 8c26ffff  ~..>....A;...&..
 100001e70 ffc5f877 488d7c24 140f01f9 48c1e220  ...wH.|$....H.. 
 100001e80 480bc289 0f482bc6 493bc44c 0f4fe04c  H....H+.I;.L.O.L
 100001e90 03f84181 f8a08601 000f82d1 feffff4c  ..A............L
 100001ea0 89f8488d 3df74600 004c89e1 489949f7  ..H.=.F..L..H.I.
 100001eb0 f8448b74 24084489 f64c89fa 4189c133  .D.t$.D..L..A..3
 100001ec0 c0e8c645 000033c0 4883c458 5b415f41  ...E..3.H..X[A_A
 100001ed0 5e415d41 5c4889ec 5dc333ff e95afcff  ^A]A\H..].3..Z..
 100001ee0 ff4489d7 33c083e7 f04863ff e92ffcff  .D..3....Hc../..
 100001ef0 ff4533ff 488d7c24 384533c0 41b90100  .E3.H.|$8E3.A...
 100001f00 0000c5f8 770f01f9 48c1e220 480bc289  ....w...H.. H...
 100001f10 0fbe0100 00008974 24284889 c6e93afc  .......t$(H...:.
 100001f20 ffff4489 f0c1e804 89042485 c00f871f  ..D.......$.....
 100001f30 faffffe9 fefaffff 33ffe920 f9ffff89  ........3.. ....
 100001f40 d733c083 e7f04863 ffe9f6f8 ffff4489  .3....Hc......D.
 100001f50 f0c1e803 89442410 85c00f87 30f9ffff  .....D$.....0...
 100001f60 4489f0c1 e8048904 2485c00f 87e1f9ff  D.......$.......
 100001f70 ffe97bff ffffc5f8 77b8ffff ffff4883  ..{.....w.....H.
 100001f80 c4585b41 5f415e41 5d415c48 89ec5dc3  .X[A_A^A]A\H..].
 100001f90 b8ffffff ff4883c4 585b415f 415e415d  .....H..X[A_A^A]
 100001fa0 415c4889 ec5dc366 0f1f8400 00000000  A\H..].f........
 100001fb0 90909090 90909090 90909090 90909090  ................
 100001fc0 41544155 41564881 ec500100 00488994  ATAUAVH..P...H..
 100001fd0 24900000 0048898c 24980000 004c8984  $....H..$....L..
 100001fe0 24a00000 004c898c 24a80000 00440fb6  $....L..$....D..
 100001ff0 d84a8d04 9d000000 004c8d1d 2e000000  .J.......L......
 100002000 4c2bd848 8d84242f 01000041 ffe30f29  L+.H..$/...A...)
 100002010 78f10f29 70e10f29 68d10f29 60c10f29  x..)p..)h..)`..)
 100002020 58b10f29 50a10f29 48910f29 40814189  X..)P..)H..)@.A.
 100002030 fd4189f6 4585ed0f 84870000 00833d2c  .A..E.........=,
 100002040 69000000 745b488d 3deb4b00 0033f6c7  i...t[H.=.K..3..
 100002050 05176900 00000000 00e80a44 00004889  ..i........D..H.
 100002060 05bb6e00 004883f8 ff0f84d6 00000048  ..n..H.........H
 100002070 8b3daa6e 0000c705 f4680000 00000000  .=.n.....h......
 100002080 4963c54c 8d051e65 000048c1 e004be01  Ic.L...e..H.....
 100002090 00000044 89ea4a8b 0c00e8c3 430000eb  ...D..J.....C...
 1000020a0 2a8b05cd 68000085 c00f848e 0100004d  *...h..........M
 1000020b0 63ed488d 05ef6400 0049c1e5 04498b44  c.H...d..I...I.D
 1000020c0 0500eb07 488d0565 45000045 85f67e67  ....H..eE..E..~g
 1000020d0 c7842430 01000010 00000048 8d942470  ..$0.......H..$p
 1000020e0 010000c7 84243401 00003000 0000488d  .....$4...0...H.
 1000020f0 b4248000 00004889 96b80000 004889b6  .$....H......H..
 100002100 c0000000 488d3d15 6a000033 f6ba0002  ....H.=.j..3....
 100002110 00004889 c14c8d84 24300100 00e83a43  ..H..L..$0....:C
 100002120 0000488d 05f76900 004881c4 50010000  ..H...i..H..P...
 100002130 415e415d 415cc348 81c45001 0000415e  A^A]A\.H..P...A^
 100002140 415d415c c3488d3d 94500000 e82f4300  A]A\.H.=.P.../C.
 100002150 004885c0 0f8447ff ffff4889 c6488d3c  .H....G...H..H.<
 100002160 2441b880 000000e8 840e0000 41bb2e00  $A..........A...
 100002170 0000488d 04244889 c183e10f 4883e0f0  ..H..$H.....H...
 100002180 660fefd2 66410f6e cb660f38 00ca660f  f...fA.n.f.8..f.
 100002190 6f00660f 74d0660f 74c16644 0fd7d866  o.f.t.f.t.fD...f
 1000021a0 440fd7d2 41d3eb41 d3ea4585 db750745  D...A..A..E..u.E
 1000021b0 85d2741d eb17450f bcdb450f bcd27405  ..t...E...E...t.
 1000021c0 453bda7f 084803c1 4903c3eb 0933c0eb  E;...H..I....3..
 1000021d0 05e8ca0d 00004989 c44d85e4 7449488d  ......I..M..tIH.
 1000021e0 3dfb4f00 00488d34 24ba0100 000041c6  =.O..H.4$.....A.
 1000021f0 042400e8 a6420000 488d3d39 4a000033  .$...B..H.=9J..3
 100002200 f6e86242 0000488d 3dd34f00 00488d34  ..bB..H.=.O..H.4
 100002210 24ba0100 00004889 05036d00 0041c604  $.....H...m..A..
 100002220 242ee877 42000048 8b3df26c 00004883  $..wB..H.=.l..H.
 100002230 ffff0f85 3efeffff e964feff ff488b3d  ....>....d...H.=
 100002240 dc6c0000 e937feff ff0f1f80 00000000  .l...7..........
 100002250 41544155 53554881 ec480100 0048898c  ATAUSUH..H...H..
 100002260 24980000 004c8984 24a00000 004c898c  $....L..$....L..
 100002270 24a80000 00440fb6 d84a8d04 9d000000  $....D...J......
 100002280 004c8d1d 2e000000 4c2bd848 8d84242f  .L......L+.H..$/
 100002290 01000041 ffe30f29 78f10f29 70e10f29  ...A...)x..)p..)
 1000022a0 68d10f29 60c10f29 58b10f29 50a10f29  h..)`..)X..)P..)
 1000022b0 48910f29 40814189 f44189d5 89fd4585  H..)@.A..A....E.
 1000022c0 e4752183 fd010f84 27010000 bf0a0000  .u!.....'.......
 1000022d0 00e8bc41 00004881 c4480100 005d5b41  ...A..H..H...][A
 1000022e0 5d415cc3 833d8566 00000074 3c488d3d  ]A\..=.f...t<H.=
 1000022f0 44490000 33f6c705 70660000 00000000  DI..3...pf......
 100002300 e8634100 00488905 146c0000 4883f8ff  .cA..H...l..H...
 100002310 0f84ff00 0000488b 3d036c00 00c7054d  ......H.=.l....M
 100002320 66000000 000000eb 228b0545 66000085  f......."..Ef...
 100002330 c00f8401 0200004d 63e4488d 05676200  .......Mc.H..gb.
 100002340 0049c1e4 04498b0c 04eb2249 63c4488d  .I...I...."Ic.H.
 100002350 1d536200 0048c1e0 04be0100 00004489  .Sb..H........D.
 100002360 e2488b0c 18e8f840 00004889 c14585ed  .H.....@..H..E..
 100002370 7e56c784 24300100 00180000 00488d84  ~V..$0.......H..
 100002380 24700100 00c78424 34010000 30000000  $p.....$4...0...
 100002390 488d9424 80000000 488982b8 00000048  H..$....H......H
 1000023a0 8992c000 0000488d 3d736900 0033f6ba  ......H.=si..3..
 1000023b0 00020000 4c8d8424 30010000 e89b4000  ....L..$0.....@.
 1000023c0 00488d0d 58690000 83fd010f 84380100  .H..Xi.......8..
 1000023d0 004889cf 33c0e8b1 400000bf 0a000000  .H..3...@.......
 1000023e0 e8ad4000 004881c4 48010000 5d5b415d  ..@..H..H...][A]
 1000023f0 415cc348 8b05065c 0000bf0a 00000048  A\.H...\.......H
 100002400 8b30e873 40000048 81c44801 00005d5b  .0.s@..H..H...][
 100002410 415d415c c3488d3d c44d0000 e85f4000  A]A\.H.=.M..._@.
 100002420 004885c0 0f84fffe ffff4889 c6488d3c  .H........H..H.<
 100002430 2441b880 000000e8 b40b0000 41bb2e00  $A..........A...
 100002440 0000488d 04244889 c183e10f 4883e0f0  ..H..$H.....H...
 100002450 660fefd2 66410f6e cb660f38 00ca660f  f...fA.n.f.8..f.
 100002460 6f00660f 74d0660f 74c16644 0fd7d866  o.f.t.f.t.fD...f
 100002470 440fd7d2 41d3eb41 d3ea4585 db750745  D...A..A..E..u.E
 100002480 85d2741d eb17450f bcdb450f bcd27405  ..t...E...E...t.
 100002490 453bda7f 084803c1 4903c3eb 0933c0eb  E;...H..I....3..
 1000024a0 05e8fa0a 00004889 c34885db 7445488d  ......H..H..tEH.
 1000024b0 3d2b4d00 00488d34 24ba0100 0000c603  =+M..H.4$.......
 1000024c0 00e8d83f 0000488d 3d6b4700 0033f6e8  ...?..H.=kG..3..
 1000024d0 943f0000 488d3d05 4d000048 8d3424ba  .?..H.=.M..H.4$.
 1000024e0 01000000 48890535 6a0000c6 032ee8ab  ....H..5j.......
 1000024f0 3f000048 8b3d266a 00004883 ffff0f85  ?..H.=&j..H.....
 100002500 19feffff e920feff ff488b1d f05a0000  ..... ...H...Z..
 100002510 4889ce33 c0488b3b e8573f00 00bf0a00  H..3.H.;.W?.....
 100002520 0000488b 33e8503f 00004881 c4480100  ..H.3.P?..H..H..
 100002530 005d5b41 5d415cc3 488b3de1 690000e9  .][A]A\.H.=.i...
 100002540 07feffff 0f1f4400 000f1f80 00000000  ......D.........
 100002550 90909090 90909090 90909090 90909090  ................
 100002560 5033c0e8 18000000 58c3660f 1f440000  P3......X.f..D..
 100002570 50b80100 0000e805 00000058 c30f1f00  P..........X....
 100002580 52515356 41514154 41565541 89c633c0  RQSVAQATAVUA..3.
 100002590 0fa28944 24e8895c 24ec894c 24f08954  ...D$..\$..L$..T
 1000025a0 24f4837c 24e8000f 84210400 004183fe  $..|$....!...A..
 1000025b0 010f842e 040000b8 01000000 0fa289d6  ................
 1000025c0 89cd83e6 01f7c200 80000041 89c4488d  ...........A..H.
 1000025d0 34750100 00004c8d 4e04490f 45f1f7c2  4u....L.N.I.E...
 1000025e0 00008000 4c8d5608 490f45f2 f7c20000  ....L.V.I.E.....
 1000025f0 00017528 f7c50000 00404c8d 8e000002  ..u(.....@L.....
 100002600 00490f45 f1b80700 000033c9 0fa24189  .I.E......3...A.
 100002610 d34189ca 4189d9e9 03010000 4883c610  .A..A.......H...
 100002620 4989f149 83c920f7 c2000000 02490f45  I..I.. ......I.E
 100002630 f14989f2 4983ca40 f7c20000 0004490f  .I..I..@......I.
 100002640 45f24989 f34981cb 80000000 f7c50100  E.I..I..........
 100002650 0000490f 45f34989 f14981c9 00010000  ..I.E.I..I......
 100002660 f7c50002 0000490f 45f14989 f24981ca  ......I.E.I..I..
 100002670 00080000 f7c50000 4000490f 45f24889  ........@.I.E.H.
 100002680 f0480d00 020000f7 c5000008 00480f45  .H...........H.E
 100002690 f04889f2 4881ca00 040000f7 c5000010  .H..H...........
 1000026a0 00480f45 f24889f1 4881c900 100000f7  .H.E.H..H.......
 1000026b0 c5000080 00480f45 f14889f3 4881cb00  .....H.E.H..H...
 1000026c0 200000f7 c5020000 00480f45 f34989f1   ........H.E.I..
 1000026d0 4981c900 400000f7 c5000000 02490f45  I...@........I.E
 1000026e0 f1b80700 000033c9 0fa24189 d34189d9  ......3...A..A..
 1000026f0 48ba0000 00000800 00004189 ca480bd6  H.........A..H..
 100002700 41f7c100 00002048 0f45f248 89f14881  A..... H.E.H..H.
 100002710 c9000002 00f7c500 00004048 0f45f144  ..........@H.E.D
 100002720 89c84889 f3250801 00004881 cb000008  ..H..%....H.....
 100002730 003d0801 0000480f 44f3b801 0000800f  .=....H.D.......
 100002740 a24889f2 4881ca00 001000f6 c120480f  .H..H........ H.
 100002750 45f24889 f14881c9 00002000 41f7c110  E.H..H.... .A...
 100002760 00000048 0f45f148 89f0480d 00004000  ...H.E.H..H...@.
 100002770 41f7c100 08000048 0f45f048 89f24881  A......H.E.H..H.
 100002780 ca000000 1041f7c1 00000800 480f45f2  .....A......H.E.
 100002790 4889f348 81cb0000 002041f7 c1000004  H..H..... A.....
 1000027a0 00480f45 f3f7c500 0000080f 84c00100  .H.E............
 1000027b0 0033c90f 01d04883 ce0189c2 83e20683  .3....H.........
 1000027c0 fa060f85 a9010000 4889f248 81ca0000  ........H..H....
 1000027d0 0100f7c5 00000010 480f45f2 4889f148  ........H.E.H..H
 1000027e0 81c90080 0000f7c5 00000020 480f45f1  ........... H.E.
 1000027f0 4889f348 81cb0000 800041f7 c1200000  H..H......A.. ..
 100002800 00480f45 f34889f2 4881ca00 000400f7  .H.E.H..H.......
 100002810 c5001000 0089c548 0f45f283 e51883fd  .......H.E......
 100002820 18751c48 83ce0148 ba000000 00100000  .u.H...H........
 100002830 00480bd6 41f7c100 40000048 0f45f225  .H..A...@..H.E.%
 100002840 e0000000 3de00000 000f8522 01000048  ....=......"...H
 100002850 83ce0148 ba000000 00040000 004889f0  ...H.........H..
 100002860 48b90000 00000100 0000480d 00000008  H.........H.....
 100002870 41f7c100 00010048 bb000000 00020000  A......H........
 100002880 00480f45 f048b800 00000020 00000048  .H.E.H..... ...H
 100002890 0bd641f7 c1000000 10480f45 f24489ca  ..A......H.E.D..
 1000028a0 480bce41 f7c10000 0008480f 45f148b9  H..A......H.E.H.
 1000028b0 00000000 40000000 480bde41 f7c10000  ....@...H..A....
 1000028c0 0004480f 45f381e2 00000080 4889f548  ..H.E.......H..H
 1000028d0 81cd0000 000141f7 c1000002 00480f45  ......A......H.E
 1000028e0 f5480bc6 41f7c100 00004048 0f45f048  .H..A.....@H.E.H
 1000028f0 b8000000 00000400 00480bce 81fa0000  .........H......
 100002900 0080480f 44f14889 f34881cb 00000040  ..H.D.H..H.....@
 100002910 41f7c100 00200049 b9000000 00800000  A.... .I........
 100002920 00480f45 f34c0bce 41f7c202 00000049  .H.E.L..A......I
 100002930 0f45f148 0bc641f7 c2004000 0049ba00  .E.H..A...@..I..
 100002940 00000000 02000048 0f45f048 b8000000  .......H.E.H....
 100002950 00000100 004c0bd6 41f7c304 00000049  .....L..A......I
 100002960 0f45f248 0bc641f7 c3080000 00480f45  .E.H..A......H.E
 100002970 f04489e0 c1e80c41 c1ec0425 f0000000  .D.....A...%....
 100002980 4183e40f 4103c483 f81c740a 83f82674  A...A.....t...&t
 100002990 0583f827 7505480f baee1f41 83fe0174  ...'u.H....A...t
 1000029a0 13488935 a0650000 5d415e41 5c41595e  .H.5.e..]A^A\AY^
 1000029b0 5b595ac3 48893585 65000048 89358665  [YZ.H.5.e..H.5.e
 1000029c0 00005d41 5e415c41 595e5b59 5ac348c7  ..]A^A\AY^[YZ.H.
 1000029d0 05676500 00010000 005d415e 415c4159  .ge......]A^A\AY
 1000029e0 5e5b595a c3817c24 ec47656e 7575df81  ^[YZ..|$.Genuu..
 1000029f0 7c24f469 6e654975 d5817c24 f06e7465  |$.ineIu..|$.nte
 100002a00 6c75cbe9 affbffff 0f1f8400 00000000  lu..............
 100002a10 90909090 90909090 90909090 90909090  ................
 100002a20 4881ec08 02000089 f289f183 e20483e1  H...............
 100002a30 027422f7 c7020000 00743885 d27408f7  .t"......t8..t..
 100002a40 c7040000 00742cf7 c6010000 000f85a6  .....t,.........
 100002a50 000000eb 6485d20f 848c0000 00f7c704  ....d...........
 100002a60 00000074 0ef7c601 0000000f 85880000  ...t............
 100002a70 00eb5bb8 00020000 660fefc0 0f294404  ..[.....f....)D.
 100002a80 f00f2944 04e00f29 4404d00f 294404c0  ..)D...)D...)D..
 100002a90 4883e840 75e60fae 042433ff 8b44241c  H..@u....$3..D$.
 100002aa0 a8400f44 cfa90000 02000f44 d7f7c601  .@.D.......D....
 100002ab0 00000075 4485c974 110fae1c 248b0424  ...uD..t....$..$
 100002ac0 83c84089 04240fae 142485d2 74230fae  ..@..$...$..t#..
 100002ad0 1c248b04 240d0000 02008904 240fae14  .$..$.......$...
 100002ae0 244881c4 08020000 c3f7c601 00000075  $H.............u
 100002af0 084881c4 08020000 c30fae1c 248b0424  .H..........$..$
 100002b00 0d008000 00890424 0fae1424 eba76690  .......$...$..f.
 100002b10 90909090 90909090 90909090 90909090  ................
 100002b20 41544155 41564157 4881ec18 04000049  ATAUAVAWH......I
 100002b30 89f44c8d 3d076400 004189fe 4d8b2f4d  ..L.=.d..A..M./M
 100002b40 85ed0f84 c9030000 4c89e849 23c4493b  ........L..I#.I;
 100002b50 c40f8435 03000049 f7c40100 00000f85  ...5...I........
 100002b60 8c030000 4533f649 f7d5bf39 00000033  ....E3.I...9...3
 100002b70 f633c04d 23ec4533 ffe842f4 ffff4c89  .3.M#.E3..B...L.
 100002b80 fa41bc01 000000c6 04240049 89d04889  .A.......$.I..H.
 100002b90 9c240804 00004889 ac240004 00004c89  .$....H..$....L.
 100002ba0 f54989c6 bb010000 00418d4c 243f48d3  .I.......A.L$?H.
 100002bb0 e34183fc 2b490f47 df4c85eb 0f84bc01  .A..+I.G.L......
 100002bc0 0000488d 0db75d00 004a8b1c e14885db  ..H...]..J...H..
 100002bd0 0f840803 0000803b 000f84ff 02000080  .......;........
 100002be0 3c24000f 84480100 004885ed 0f843a01  <$...H...H....:.
 100002bf0 00004889 ea4889d1 4883e2f0 660fefc0  ..H..H..H...f...
 100002c00 660f7402 660fd7c0 83e10fd3 e80fbcc0  f.t.f...........
 100002c10 750b4889 d04803d1 e8430300 004c89f2  u.H..H...C...L..
 100002c20 4989c148 89d14883 e2f0660f efc0660f  I..H..H...f...f.
 100002c30 7402660f d7c083e1 0fd3e80f bcc0750b  t.f...........u.
 100002c40 4889d048 03d1e815 03000048 89da4889  H..H.......H..H.
 100002c50 c74889d1 4883e2f0 660fefc0 660f7402  .H..H...f...f.t.
 100002c60 660fd7c0 83e10fd3 e80fbcc0 750b4889  f...........u.H.
 100002c70 d04803d1 e8e70200 004d03c8 4c03cf49  .H.......M..L..I
 100002c80 8d4c0102 4881f900 0400000f 83140200  .L..H...........
 100002c90 0049f7d8 488d3c24 4981c0ff 03000048  .I..H.<$I......H
 100002ca0 8d35be46 00004c89 c2b90004 0000e8a3  .5.F..L.........
 100002cb0 37000048 8d142448 89d14883 e2f0660f  7..H..$H..H...f.
 100002cc0 efc0660f 7402660f d7c083e1 0fd3e80f  ..f.t.f.........
 100002cd0 bcc0750b 4889d048 03d1e881 02000048  ..u.H..H.......H
 100002ce0 63d0488d 3c2448f7 da4889ee 4881c2ff  c.H.<$H..H..H...
 100002cf0 030000b9 00040000 e8593700 00488d14  .........Y7..H..
 100002d00 244889d1 4883e2f0 660fefc0 660f7402  $H..H...f...f.t.
 100002d10 660fd7c0 83e10fd3 e80fbcc0 750b4889  f...........u.H.
 100002d20 d04803d1 e8370200 004c63c0 4889ddeb  .H...7...Lc.H...
 100002d30 4d49f7d8 488d3c24 4981c0ff 03000048  MI..H.<$I......H
 100002d40 89de4c89 c2b90004 0000e807 37000048  ..L.........7..H
 100002d50 8d142448 89d14883 e2f0660f efc0660f  ..$H..H...f...f.
 100002d60 7402660f d7c083e1 0fd3e80f bcc0750b  t.f...........u.
 100002d70 4889d048 03d1e8e5 0100004c 63c041ff  H..H.......Lc.A.
 100002d80 c44183fc 2b0f8e19 feffff4c 89f04989  .A..+......L..I.
 100002d90 ee488b9c 24080400 004c89c2 488bac24  .H..$....L..H..$
 100002da0 00040000 4d85f674 6548f7da 488d3c24  ....M..teH..H.<$
 100002db0 4881c2ff 03000048 89c6b900 040000e8  H......H........
 100002dc0 92360000 488d1424 4889d148 83e2f066  .6..H..$H..H...f
 100002dd0 0fefc066 0f740266 0fd7c083 e10fd3e8  ...f.t.f........
 100002de0 0fbcc075 0b4889d0 4803d1e8 70010000  ...u.H..H...p...
 100002df0 4863d048 8d3c2448 f7da4c89 f64881c2  Hc.H.<$H..L..H..
 100002e00 ff030000 b9000400 00e84836 0000803c  ..........H6...<
 100002e10 2400753d 33f6bf01 00000033 d233c0e8  $.u=3......3.3..
 100002e20 2cf4ffff bf010000 00be3a00 000033d2  ,.........:...3.
 100002e30 33c0e819 f4ffff33 f6bf0100 000033d2  3......3......3.
 100002e40 33c0e809 f4ffffbf 01000000 e81d3600  3.............6.
 100002e50 0033f6bf 01000000 33d233c0 e8eff3ff  .3......3.3.....
 100002e60 ffbf0100 0000be38 00000089 fa488d0c  .......8.....H..
 100002e70 2433c0e8 d8f3ffff ebbd33f6 bf010000  $3........3.....
 100002e80 0033d233 c0e8c6f3 ffffeb98 49f7c520  .3.3........I.. 
 100002e90 00000075 704881c4 18040000 415f415e  ...upH......A_A^
 100002ea0 415d415c c34c89c2 4c89f048 f7da488d  A]A\.L..L..H..H.
 100002eb0 3c244881 c2ff0300 004889c6 b9000400  <$H......H......
 100002ec0 004989ee 488b9c24 08040000 488bac24  .I..H..$....H..$
 100002ed0 00040000 e87d3500 00e9e6fe ffff488b  .....}5.......H.
 100002ee0 9c240804 0000488b ac240004 0000eb8a  .$....H..$......
 100002ef0 33f6bf01 00000033 d233c0e8 50f3ffff  3......3.3..P...
 100002f00 e91fffff ff33ff44 89f6e811 fbffffeb  .....3.D........
 100002f10 8433c0e8 58f6ffff 4d8b2f4d 85ed0f85  .3..X...M./M....
 100002f20 24fcffff 33f6bf01 00000033 d233c0e8  $...3......3.3..
 100002f30 1cf3ffff bf010000 00be3b00 000033d2  ..........;...3.
 100002f40 33c0e809 f3ffffe9 ebfeffff 0f1f4000  3.............@.
 100002f50 90909090 90909090 90909090 90909090  ................
 100002f60 660fefc0 4883c010 660f6f08 660f74c8  f...H...f.o.f.t.
 100002f70 660fd7c9 85c974ec 0fbcc948 2bca4803  f.....t....H+.H.
 100002f80 c1c30f1f 80000000 000f1f80 00000000  ................
 100002f90 90909090 90909090 90909090 90909090  ................
 100002fa0 4883c010 660fefc0 660f6f10 660f74c2  H...f...f.o.f.t.
 100002fb0 660f74d1 660fd7ca 85c9750b 660fd7c8  f.t.f.....u.f...
 100002fc0 85c974dc 33c0c344 0fbcd166 0fd7c885  ..t.3..D...f....
 100002fd0 c974080f bcc9413b ca72e949 03c2c390  .t....A;.r.I....
 100002fe0 90909090 90909090 90909090 90909090  ................
 100002ff0 4889f148 89fa4d85 c00f84a1 21000049  H..H..M.....!..I
 100003000 83f8080f 86372200 00803900 0f849e1d  .....7"...9.....
 100003010 00008079 01000f84 b41d0000 80790200  ...y.........y..
 100003020 0f84ca1d 00008079 03000f84 e01d0000  .......y........
 100003030 80790400 0f84f61d 00008079 05000f84  .y.........y....
 100003040 0c1e0000 80790600 0f84221e 00008079  .....y...."....y
 100003050 07000f84 f81a0000 4983f810 0f824e21  ........I.....N!
 100003060 00008079 08000f84 241e0000 80790900  ...y....$....y..
 100003070 0f843a1e 00008079 0a000f84 501e0000  ..:....y....P...
 100003080 80790b00 0f84661e 00008079 0c000f84  .y....f....y....
 100003090 7c1e0000 80790d00 0f84921e 00008079  |....y.........y
 1000030a0 0e000f84 a81e0000 4983f810 0f84fe1a  ........I.......
 1000030b0 00008079 0f000f84 f41a0000 4889ce48  ...y........H..H
 1000030c0 83e60f4c 03c6488d 71104883 e6f0660f  ...L..H.q.H...f.
 1000030d0 efc04c8b 094c890a 660f7406 4c8b4908  ..L..L..f.t.L.I.
 1000030e0 4c894a08 660fd7c0 482bf149 83e8200f  L.J.f...H+.I.. .
 1000030f0 86151c00 004885c0 0f85021a 00004889  .....H........H.
 100003100 d0488d52 104883e2 f0482bc2 4803f048  .H.R.H...H+.H..H
 100003110 8d76ff81 e6000000 804885f6 75044d8d  .v.......H..u.M.
 100003120 4010482b c84889c8 4883e00f 48c7c600  @.H+.H..H...H...
 100003130 0000000f 848e0000 004883f8 08734148  .........H...sAH
 100003140 83f8010f 84570200 004883f8 020f84dd  .....W...H......
 100003150 03000048 83f8030f 84630500 004883f8  ...H.....c...H..
 100003160 040f84e9 06000048 83f8050f 846f0800  .......H.....o..
 100003170 004883f8 060f84f5 090000e9 800b0000  .H..............
 100003180 0f840a0d 00004883 f8090f84 900e0000  ......H.........
 100003190 4883f80a 0f841610 00004883 f80b0f84  H.........H.....
 1000031a0 9c110000 4883f80c 0f842213 00004883  ....H....."...H.
 1000031b0 f80d0f84 a8140000 4883f80e 0f842e16  ........H.......
 1000031c0 0000e9b9 1700000f 28090f28 51100f29  ........(..(Q..)
 1000031d0 0a660f74 c2660fd7 c0488d76 104983e8  .f.t.f...H.v.I..
 1000031e0 100f8623 1b000048 85c00f85 10190000  ...#...H........
 1000031f0 0f285c31 100f2914 32660f74 c3660fd7  .(\1..).2f.t.f..
 100003200 c0488d76 104983e8 100f86fb 1a000048  .H.v.I.........H
 100003210 85c00f85 e8180000 0f286431 100f291c  .........(d1..).
 100003220 32660f74 c4660fd7 c0488d76 104983e8  2f.t.f...H.v.I..
 100003230 100f86d3 1a000048 85c00f85 c0180000  .......H........
 100003240 0f284c31 100f2924 32660f74 c1660fd7  .(L1..)$2f.t.f..
 100003250 c0488d76 104983e8 100f86ab 1a000048  .H.v.I.........H
 100003260 85c00f85 98180000 0f285431 100f290c  .........(T1..).
 100003270 32660f74 c2660fd7 c0488d76 104983e8  2f.t.f...H.v.I..
 100003280 100f8683 1a000048 85c00f85 70180000  .......H....p...
 100003290 0f285c31 100f2914 32660f74 c3660fd7  .(\1..).2f.t.f..
 1000032a0 c0488d76 104983e8 100f865b 1a000048  .H.v.I.....[...H
 1000032b0 85c00f85 48180000 0f291c32 4889c848  ....H....).2H..H
 1000032c0 8d4c3110 4883e1c0 482bc148 2bd04d8d  .L1.H...H+.H+.M.
 1000032d0 44007048 bec0ffff ffffffff ff0f2811  D.pH..........(.
 1000032e0 0f28e20f 2869100f 2859200f 28f30f28  .(..(i..(Y .(..(
 1000032f0 7930660f dad5660f dadf660f dada660f  y0f...f...f...f.
 100003300 74d8660f d7c3488d 5240488d 49404983  t.f...H.R@H.I@I.
 100003310 e8400f86 bd1f0000 4885c075 120f2962  .@......H..u..)b
 100003320 c00f296a d00f2972 e00f297a f0ebae4d  ..)j..)r..)z...M
 100003330 8d403066 0f74c466 0fd7c048 85c00f85  .@0f.t.f...H....
 100003340 bc170000 660f74c5 4d8d40f0 660fd7c0  ....f.t.M.@.f...
 100003350 0f2962c0 4885c048 8d76100f 859f1700  .)b.H..H.v......
 100003360 00660f74 c64d8d40 f0660fd7 c00f296a  .f.t.M.@.f....)j
 100003370 d04885c0 488d7610 0f858217 00000f29  .H..H.v........)
 100003380 72e0660f 74c74d8d 40f0660f d7c0488d  r.f.t.M.@.f...H.
 100003390 7610e969 17000066 0f1f8400 00000000  v..i...f........
 1000033a0 0f2849ff 0f28510f 660f74c2 660fd7c0  .(I..(Q.f.t.f...
 1000033b0 0f28da49 83e8100f 86da1f00 004885c0  .(.I.........H..
 1000033c0 0f854201 0000660f 3a0fd101 0f28cb0f  ..B...f.:....(..
 1000033d0 29120f28 511f660f 74c2488d 5210660f  )..(Q.f.t.H.R.f.
 1000033e0 d7c0488d 49100f28 da4983e8 100f86a4  ..H.I..(.I......
 1000033f0 1f000048 85c00f85 0c010000 660f3a0f  ...H........f.:.
 100003400 d1010f29 120f2851 1f0f28cb 660f74c2  ...)..(Q..(.f.t.
 100003410 488d5210 660fd7c0 488d4910 0f28da49  H.R.f...H.I..(.I
 100003420 83e8100f 866e1f00 004885c0 0f85d600  .....n...H......
 100003430 0000660f 3a0fd101 0f28cb0f 29120f28  ..f.:....(..)..(
 100003440 511f660f 74c2488d 5210660f d7c0488d  Q.f.t.H.R.f...H.
 100003450 49100f28 da4983e8 100f8638 1f000048  I..(.I.....8...H
 100003460 85c00f85 a0000000 660f3a0f d1010f28  ........f.:....(
 100003470 cb0f2912 488d491f 488d5210 4889c848  ..).H.I.H.R.H..H
 100003480 83e1c048 2bc1488d 49f1482b d04c03c0  ...H+.H.I.H+.L..
 100003490 0f2849ff 0f28510f 0f28591f 0f28f30f  .(I..(Q..(Y..(..
 1000034a0 28612f0f 28fc0f28 693f660f daf2660f  (a/.(..(i?f...f.
 1000034b0 dafd660f dafe660f 74f8660f d7c70f28  ..f...f.t.f....(
 1000034c0 fd660f3a 0fec0148 85c0660f 3a0fe301  .f.:...H..f.:...
 1000034d0 0f85d2fe ffff4983 e8400f86 f1200000  ......I..@... ..
 1000034e0 660f3a0f da01488d 4940660f 3a0fd101  f.:...H.I@f.:...
 1000034f0 0f28cf0f 296a300f 2962200f 295a100f  .(..)j0.)b .)Z..
 100003500 2912488d 5240eb8c 0f283266 0f73de0f  ).H.R@...(2f.s..
 100003510 48c7c60f 00000066 0f3a0ff1 010f2932  H......f.:....)2
 100003520 e9db1500 000f1f40 000f1f80 00000000  .......@........
 100003530 0f2849fe 0f28510e 660f74c2 660fd7c0  .(I..(Q.f.t.f...
 100003540 0f28da49 83e8100f 86701e00 004885c0  .(.I.....p...H..
 100003550 0f854201 0000660f 3a0fd102 0f28cb0f  ..B...f.:....(..
 100003560 29120f28 511e660f 74c2488d 5210660f  )..(Q.f.t.H.R.f.
 100003570 d7c0488d 49100f28 da4983e8 100f863a  ..H.I..(.I.....:
 100003580 1e000048 85c00f85 0c010000 660f3a0f  ...H........f.:.
 100003590 d1020f29 120f2851 1e0f28cb 660f74c2  ...)..(Q..(.f.t.
 1000035a0 488d5210 660fd7c0 488d4910 0f28da49  H.R.f...H.I..(.I
 1000035b0 83e8100f 86041e00 004885c0 0f85d600  .........H......
 1000035c0 0000660f 3a0fd102 0f28cb0f 29120f28  ..f.:....(..)..(
 1000035d0 511e660f 74c2488d 5210660f d7c0488d  Q.f.t.H.R.f...H.
 1000035e0 49100f28 da4983e8 100f86ce 1d000048  I..(.I.........H
 1000035f0 85c00f85 a0000000 660f3a0f d1020f28  ........f.:....(
 100003600 cb0f2912 488d491e 488d5210 4889c848  ..).H.I.H.R.H..H
 100003610 83e1c048 2bc1488d 49f2482b d04c03c0  ...H+.H.I.H+.L..
 100003620 0f2849fe 0f28510e 0f28591e 0f28f30f  .(I..(Q..(Y..(..
 100003630 28612e0f 28fc0f28 693e660f daf2660f  (a..(..(i>f...f.
 100003640 dafd660f dafe660f 74f8660f d7c70f28  ..f...f.t.f....(
 100003650 fd660f3a 0fec0248 85c0660f 3a0fe302  .f.:...H..f.:...
 100003660 0f85d2fe ffff4983 e8400f86 de1f0000  ......I..@......
 100003670 660f3a0f da02488d 4940660f 3a0fd102  f.:...H.I@f.:...
 100003680 0f28cf0f 296a300f 2962200f 295a100f  .(..)j0.)b .)Z..
 100003690 2912488d 5240eb8c 0f283266 0f73de0e  ).H.R@...(2f.s..
 1000036a0 48c7c60e 00000066 0f3a0ff1 020f2932  H......f.:....)2
 1000036b0 e94b1400 000f1f40 000f1f80 00000000  .K.....@........
 1000036c0 0f2849fd 0f28510d 660f74c2 660fd7c0  .(I..(Q.f.t.f...
 1000036d0 0f28da49 83e8100f 86061d00 004885c0  .(.I.........H..
 1000036e0 0f854201 0000660f 3a0fd103 0f28cb0f  ..B...f.:....(..
 1000036f0 29120f28 511d660f 74c2488d 5210660f  )..(Q.f.t.H.R.f.
 100003700 d7c0488d 49100f28 da4983e8 100f86d0  ..H.I..(.I......
 100003710 1c000048 85c00f85 0c010000 660f3a0f  ...H........f.:.
 100003720 d1030f29 120f2851 1d0f28cb 660f74c2  ...)..(Q..(.f.t.
 100003730 488d5210 660fd7c0 488d4910 0f28da49  H.R.f...H.I..(.I
 100003740 83e8100f 869a1c00 004885c0 0f85d600  .........H......
 100003750 0000660f 3a0fd103 0f28cb0f 29120f28  ..f.:....(..)..(
 100003760 511d660f 74c2488d 5210660f d7c0488d  Q.f.t.H.R.f...H.
 100003770 49100f28 da4983e8 100f8664 1c000048  I..(.I.....d...H
 100003780 85c00f85 a0000000 660f3a0f d1030f28  ........f.:....(
 100003790 cb0f2912 488d491d 488d5210 4889c848  ..).H.I.H.R.H..H
 1000037a0 83e1c048 2bc1488d 49f3482b d04c03c0  ...H+.H.I.H+.L..
 1000037b0 0f2849fd 0f28510d 0f28591d 0f28f30f  .(I..(Q..(Y..(..
 1000037c0 28612d0f 28fc0f28 693d660f daf2660f  (a-.(..(i=f...f.
 1000037d0 dafd660f dafe660f 74f8660f d7c70f28  ..f...f.t.f....(
 1000037e0 fd660f3a 0fec0348 85c0660f 3a0fe303  .f.:...H..f.:...
 1000037f0 0f85d2fe ffff4983 e8400f86 cb1e0000  ......I..@......
 100003800 660f3a0f da03488d 4940660f 3a0fd103  f.:...H.I@f.:...
 100003810 0f28cf0f 296a300f 2962200f 295a100f  .(..)j0.)b .)Z..
 100003820 2912488d 5240eb8c 0f283266 0f73de0d  ).H.R@...(2f.s..
 100003830 48c7c60d 00000066 0f3a0ff1 030f2932  H......f.:....)2
 100003840 e9bb1200 000f1f40 000f1f80 00000000  .......@........
 100003850 0f2849fc 0f28510c 660f74c2 660fd7c0  .(I..(Q.f.t.f...
 100003860 0f28da49 83e8100f 869c1b00 004885c0  .(.I.........H..
 100003870 0f854201 0000660f 3a0fd104 0f28cb0f  ..B...f.:....(..
 100003880 29120f28 511c660f 74c2488d 5210660f  )..(Q.f.t.H.R.f.
 100003890 d7c0488d 49100f28 da4983e8 100f8666  ..H.I..(.I.....f
 1000038a0 1b000048 85c00f85 0c010000 660f3a0f  ...H........f.:.
 1000038b0 d1040f29 120f2851 1c0f28cb 660f74c2  ...)..(Q..(.f.t.
 1000038c0 488d5210 660fd7c0 488d4910 0f28da49  H.R.f...H.I..(.I
 1000038d0 83e8100f 86301b00 004885c0 0f85d600  .....0...H......
 1000038e0 0000660f 3a0fd104 0f28cb0f 29120f28  ..f.:....(..)..(
 1000038f0 511c660f 74c2488d 5210660f d7c0488d  Q.f.t.H.R.f...H.
 100003900 49100f28 da4983e8 100f86fa 1a000048  I..(.I.........H
 100003910 85c00f85 a0000000 660f3a0f d1040f28  ........f.:....(
 100003920 cb0f2912 488d491c 488d5210 4889c848  ..).H.I.H.R.H..H
 100003930 83e1c048 2bc1488d 49f4482b d04c03c0  ...H+.H.I.H+.L..
 100003940 0f2849fc 0f28510c 0f28591c 0f28f30f  .(I..(Q..(Y..(..
 100003950 28612c0f 28fc0f28 693c660f daf2660f  (a,.(..(i<f...f.
 100003960 dafd660f dafe660f 74f8660f d7c70f28  ..f...f.t.f....(
 100003970 fd660f3a 0fec0448 85c0660f 3a0fe304  .f.:...H..f.:...
 100003980 0f85d2fe ffff4983 e8400f86 b81d0000  ......I..@......
 100003990 660f3a0f da04488d 4940660f 3a0fd104  f.:...H.I@f.:...
 1000039a0 0f28cf0f 296a300f 2962200f 295a100f  .(..)j0.)b .)Z..
 1000039b0 2912488d 5240eb8c 0f283266 0f73de0c  ).H.R@...(2f.s..
 1000039c0 48c7c60c 00000066 0f3a0ff1 040f2932  H......f.:....)2
 1000039d0 e92b1100 000f1f40 000f1f80 00000000  .+.....@........
 1000039e0 0f2849fb 0f28510b 660f74c2 660fd7c0  .(I..(Q.f.t.f...
 1000039f0 0f28da49 83e8100f 86321a00 004885c0  .(.I.....2...H..
 100003a00 0f854201 0000660f 3a0fd105 0f28cb0f  ..B...f.:....(..
 100003a10 29120f28 511b660f 74c2488d 5210660f  )..(Q.f.t.H.R.f.
 100003a20 d7c0488d 49100f28 da4983e8 100f86fc  ..H.I..(.I......
 100003a30 19000048 85c00f85 0c010000 660f3a0f  ...H........f.:.
 100003a40 d1050f29 120f2851 1b0f28cb 660f74c2  ...)..(Q..(.f.t.
 100003a50 488d5210 660fd7c0 488d4910 0f28da49  H.R.f...H.I..(.I
 100003a60 83e8100f 86c61900 004885c0 0f85d600  .........H......
 100003a70 0000660f 3a0fd105 0f28cb0f 29120f28  ..f.:....(..)..(
 100003a80 511b660f 74c2488d 5210660f d7c0488d  Q.f.t.H.R.f...H.
 100003a90 49100f28 da4983e8 100f8690 19000048  I..(.I.........H
 100003aa0 85c00f85 a0000000 660f3a0f d1050f28  ........f.:....(
 100003ab0 cb0f2912 488d491b 488d5210 4889c848  ..).H.I.H.R.H..H
 100003ac0 83e1c048 2bc1488d 49f5482b d04c03c0  ...H+.H.I.H+.L..
 100003ad0 0f2849fb 0f28510b 0f28591b 0f28f30f  .(I..(Q..(Y..(..
 100003ae0 28612b0f 28fc0f28 693b660f daf2660f  (a+.(..(i;f...f.
 100003af0 dafd660f dafe660f 74f8660f d7c70f28  ..f...f.t.f....(
 100003b00 fd660f3a 0fec0548 85c0660f 3a0fe305  .f.:...H..f.:...
 100003b10 0f85d2fe ffff4983 e8400f86 a51c0000  ......I..@......
 100003b20 660f3a0f da05488d 4940660f 3a0fd105  f.:...H.I@f.:...
 100003b30 0f28cf0f 296a300f 2962200f 295a100f  .(..)j0.)b .)Z..
 100003b40 2912488d 5240eb8c 0f283266 0f73de0b  ).H.R@...(2f.s..
 100003b50 48c7c60b 00000066 0f3a0ff1 050f2932  H......f.:....)2
 100003b60 e99b0f00 000f1f40 000f1f80 00000000  .......@........
 100003b70 0f2849fa 0f28510a 660f74c2 660fd7c0  .(I..(Q.f.t.f...
 100003b80 0f28da49 83e8100f 86c81800 004885c0  .(.I.........H..
 100003b90 0f854201 0000660f 3a0fd106 0f28cb0f  ..B...f.:....(..
 100003ba0 29120f28 511a660f 74c2488d 5210660f  )..(Q.f.t.H.R.f.
 100003bb0 d7c0488d 49100f28 da4983e8 100f8692  ..H.I..(.I......
 100003bc0 18000048 85c00f85 0c010000 660f3a0f  ...H........f.:.
 100003bd0 d1060f29 120f2851 1a0f28cb 660f74c2  ...)..(Q..(.f.t.
 100003be0 488d5210 660fd7c0 488d4910 0f28da49  H.R.f...H.I..(.I
 100003bf0 83e8100f 865c1800 004885c0 0f85d600  .....\...H......
 100003c00 0000660f 3a0fd106 0f28cb0f 29120f28  ..f.:....(..)..(
 100003c10 511a660f 74c2488d 5210660f d7c0488d  Q.f.t.H.R.f...H.
 100003c20 49100f28 da4983e8 100f8626 18000048  I..(.I.....&...H
 100003c30 85c00f85 a0000000 660f3a0f d1060f28  ........f.:....(
 100003c40 cb0f2912 488d491a 488d5210 4889c848  ..).H.I.H.R.H..H
 100003c50 83e1c048 2bc1488d 49f6482b d04c03c0  ...H+.H.I.H+.L..
 100003c60 0f2849fa 0f28510a 0f28591a 0f28f30f  .(I..(Q..(Y..(..
 100003c70 28612a0f 28fc0f28 693a660f daf2660f  (a*.(..(i:f...f.
 100003c80 dafd660f dafe660f 74f8660f d7c70f28  ..f...f.t.f....(
 100003c90 fd660f3a 0fec0648 85c0660f 3a0fe306  .f.:...H..f.:...
 100003ca0 0f85d2fe ffff4983 e8400f86 921b0000  ......I..@......
 100003cb0 660f3a0f da06488d 4940660f 3a0fd106  f.:...H.I@f.:...
 100003cc0 0f28cf0f 296a300f 2962200f 295a100f  .(..)j0.)b .)Z..
 100003cd0 2912488d 5240eb8c 0f283266 0f73de0a  ).H.R@...(2f.s..
 100003ce0 48c7c60a 00000066 0f3a0ff1 060f2932  H......f.:....)2
 100003cf0 e90b0e00 000f1f40 000f1f80 00000000  .......@........
 100003d00 0f2849f9 0f285109 660f74c2 660fd7c0  .(I..(Q.f.t.f...
 100003d10 0f28da49 83e8100f 865e1700 004885c0  .(.I.....^...H..
 100003d20 0f854201 0000660f 3a0fd107 0f28cb0f  ..B...f.:....(..
 100003d30 29120f28 5119660f 74c2488d 5210660f  )..(Q.f.t.H.R.f.
 100003d40 d7c0488d 49100f28 da4983e8 100f8628  ..H.I..(.I.....(
 100003d50 17000048 85c00f85 0c010000 660f3a0f  ...H........f.:.
 100003d60 d1070f29 120f2851 190f28cb 660f74c2  ...)..(Q..(.f.t.
 100003d70 488d5210 660fd7c0 488d4910 0f28da49  H.R.f...H.I..(.I
 100003d80 83e8100f 86f21600 004885c0 0f85d600  .........H......
 100003d90 0000660f 3a0fd107 0f28cb0f 29120f28  ..f.:....(..)..(
 100003da0 5119660f 74c2488d 5210660f d7c0488d  Q.f.t.H.R.f...H.
 100003db0 49100f28 da4983e8 100f86bc 16000048  I..(.I.........H
 100003dc0 85c00f85 a0000000 660f3a0f d1070f28  ........f.:....(
 100003dd0 cb0f2912 488d4919 488d5210 4889c848  ..).H.I.H.R.H..H
 100003de0 83e1c048 2bc1488d 49f7482b d04c03c0  ...H+.H.I.H+.L..
 100003df0 0f2849f9 0f285109 0f285919 0f28f30f  .(I..(Q..(Y..(..
 100003e00 2861290f 28fc0f28 6939660f daf2660f  (a).(..(i9f...f.
 100003e10 dafd660f dafe660f 74f8660f d7c70f28  ..f...f.t.f....(
 100003e20 fd660f3a 0fec0748 85c0660f 3a0fe307  .f.:...H..f.:...
 100003e30 0f85d2fe ffff4983 e8400f86 7f1a0000  ......I..@......
 100003e40 660f3a0f da07488d 4940660f 3a0fd107  f.:...H.I@f.:...
 100003e50 0f28cf0f 296a300f 2962200f 295a100f  .(..)j0.)b .)Z..
 100003e60 2912488d 5240eb8c 0f283266 0f73de09  ).H.R@...(2f.s..
 100003e70 48c7c609 00000066 0f3a0ff1 070f2932  H......f.:....)2
 100003e80 e97b0c00 000f1f40 000f1f80 00000000  .{.....@........
 100003e90 0f2849f8 0f285108 660f74c2 660fd7c0  .(I..(Q.f.t.f...
 100003ea0 0f28da49 83e8100f 86f41500 004885c0  .(.I.........H..
 100003eb0 0f854201 0000660f 3a0fd108 0f28cb0f  ..B...f.:....(..
 100003ec0 29120f28 5118660f 74c2488d 5210660f  )..(Q.f.t.H.R.f.
 100003ed0 d7c0488d 49100f28 da4983e8 100f86be  ..H.I..(.I......
 100003ee0 15000048 85c00f85 0c010000 660f3a0f  ...H........f.:.
 100003ef0 d1080f29 120f2851 180f28cb 660f74c2  ...)..(Q..(.f.t.
 100003f00 488d5210 660fd7c0 488d4910 0f28da49  H.R.f...H.I..(.I
 100003f10 83e8100f 86881500 004885c0 0f85d600  .........H......
 100003f20 0000660f 3a0fd108 0f28cb0f 29120f28  ..f.:....(..)..(
 100003f30 5118660f 74c2488d 5210660f d7c0488d  Q.f.t.H.R.f...H.
 100003f40 49100f28 da4983e8 100f8652 15000048  I..(.I.....R...H
 100003f50 85c00f85 a0000000 660f3a0f d1080f28  ........f.:....(
 100003f60 cb0f2912 488d4918 488d5210 4889c848  ..).H.I.H.R.H..H
 100003f70 83e1c048 2bc1488d 49f8482b d04c03c0  ...H+.H.I.H+.L..
 100003f80 0f2849f8 0f285108 0f285918 0f28f30f  .(I..(Q..(Y..(..
 100003f90 2861280f 28fc0f28 6938660f daf2660f  (a(.(..(i8f...f.
 100003fa0 dafd660f dafe660f 74f8660f d7c70f28  ..f...f.t.f....(
 100003fb0 fd660f3a 0fec0848 85c0660f 3a0fe308  .f.:...H..f.:...
 100003fc0 0f85d2fe ffff4983 e8400f86 6c190000  ......I..@..l...
 100003fd0 660f3a0f da08488d 4940660f 3a0fd108  f.:...H.I@f.:...
 100003fe0 0f28cf0f 296a300f 2962200f 295a100f  .(..)j0.)b .)Z..
 100003ff0 2912488d 5240eb8c 0f283266 0f73de08  ).H.R@...(2f.s..
 100004000 48c7c608 00000066 0f3a0ff1 080f2932  H......f.:....)2
 100004010 e9eb0a00 000f1f40 000f1f80 00000000  .......@........
 100004020 0f2849f7 0f285107 660f74c2 660fd7c0  .(I..(Q.f.t.f...
 100004030 0f28da49 83e8100f 868a1400 004885c0  .(.I.........H..
 100004040 0f854201 0000660f 3a0fd109 0f28cb0f  ..B...f.:....(..
 100004050 29120f28 5117660f 74c2488d 5210660f  )..(Q.f.t.H.R.f.
 100004060 d7c0488d 49100f28 da4983e8 100f8654  ..H.I..(.I.....T
 100004070 14000048 85c00f85 0c010000 660f3a0f  ...H........f.:.
 100004080 d1090f29 120f2851 170f28cb 660f74c2  ...)..(Q..(.f.t.
 100004090 488d5210 660fd7c0 488d4910 0f28da49  H.R.f...H.I..(.I
 1000040a0 83e8100f 861e1400 004885c0 0f85d600  .........H......
 1000040b0 0000660f 3a0fd109 0f28cb0f 29120f28  ..f.:....(..)..(
 1000040c0 5117660f 74c2488d 5210660f d7c0488d  Q.f.t.H.R.f...H.
 1000040d0 49100f28 da4983e8 100f86e8 13000048  I..(.I.........H
 1000040e0 85c00f85 a0000000 660f3a0f d1090f28  ........f.:....(
 1000040f0 cb0f2912 488d4917 488d5210 4889c848  ..).H.I.H.R.H..H
 100004100 83e1c048 2bc1488d 49f9482b d04c03c0  ...H+.H.I.H+.L..
 100004110 0f2849f7 0f285107 0f285917 0f28f30f  .(I..(Q..(Y..(..
 100004120 2861270f 28fc0f28 6937660f daf2660f  (a'.(..(i7f...f.
 100004130 dafd660f dafe660f 74f8660f d7c70f28  ..f...f.t.f....(
 100004140 fd660f3a 0fec0948 85c0660f 3a0fe309  .f.:...H..f.:...
 100004150 0f85d2fe ffff4983 e8400f86 59180000  ......I..@..Y...
 100004160 660f3a0f da09488d 4940660f 3a0fd109  f.:...H.I@f.:...
 100004170 0f28cf0f 296a300f 2962200f 295a100f  .(..)j0.)b .)Z..
 100004180 2912488d 5240eb8c 0f283266 0f73de07  ).H.R@...(2f.s..
 100004190 48c7c607 00000066 0f3a0ff1 090f2932  H......f.:....)2
 1000041a0 e95b0900 000f1f40 000f1f80 00000000  .[.....@........
 1000041b0 0f2849f6 0f285106 660f74c2 660fd7c0  .(I..(Q.f.t.f...
 1000041c0 0f28da49 83e8100f 86201300 004885c0  .(.I..... ...H..
 1000041d0 0f854201 0000660f 3a0fd10a 0f28cb0f  ..B...f.:....(..
 1000041e0 29120f28 5116660f 74c2488d 5210660f  )..(Q.f.t.H.R.f.
 1000041f0 d7c0488d 49100f28 da4983e8 100f86ea  ..H.I..(.I......
 100004200 12000048 85c00f85 0c010000 660f3a0f  ...H........f.:.
 100004210 d10a0f29 120f2851 160f28cb 660f74c2  ...)..(Q..(.f.t.
 100004220 488d5210 660fd7c0 488d4910 0f28da49  H.R.f...H.I..(.I
 100004230 83e8100f 86b41200 004885c0 0f85d600  .........H......
 100004240 0000660f 3a0fd10a 0f28cb0f 29120f28  ..f.:....(..)..(
 100004250 5116660f 74c2488d 5210660f d7c0488d  Q.f.t.H.R.f...H.
 100004260 49100f28 da4983e8 100f867e 12000048  I..(.I.....~...H
 100004270 85c00f85 a0000000 660f3a0f d10a0f28  ........f.:....(
 100004280 cb0f2912 488d4916 488d5210 4889c848  ..).H.I.H.R.H..H
 100004290 83e1c048 2bc1488d 49fa482b d04c03c0  ...H+.H.I.H+.L..
 1000042a0 0f2849f6 0f285106 0f285916 0f28f30f  .(I..(Q..(Y..(..
 1000042b0 2861260f 28fc0f28 6936660f daf2660f  (a&.(..(i6f...f.
 1000042c0 dafd660f dafe660f 74f8660f d7c70f28  ..f...f.t.f....(
 1000042d0 fd660f3a 0fec0a48 85c0660f 3a0fe30a  .f.:...H..f.:...
 1000042e0 0f85d2fe ffff4983 e8400f86 46170000  ......I..@..F...
 1000042f0 660f3a0f da0a488d 4940660f 3a0fd10a  f.:...H.I@f.:...
 100004300 0f28cf0f 296a300f 2962200f 295a100f  .(..)j0.)b .)Z..
 100004310 2912488d 5240eb8c 0f283266 0f73de06  ).H.R@...(2f.s..
 100004320 48c7c606 00000066 0f3a0ff1 0a0f2932  H......f.:....)2
 100004330 e9cb0700 000f1f40 000f1f80 00000000  .......@........
 100004340 0f2849f5 0f285105 660f74c2 660fd7c0  .(I..(Q.f.t.f...
 100004350 0f28da49 83e8100f 86b61100 004885c0  .(.I.........H..
 100004360 0f854201 0000660f 3a0fd10b 0f28cb0f  ..B...f.:....(..
 100004370 29120f28 5115660f 74c2488d 5210660f  )..(Q.f.t.H.R.f.
 100004380 d7c0488d 49100f28 da4983e8 100f8680  ..H.I..(.I......
 100004390 11000048 85c00f85 0c010000 660f3a0f  ...H........f.:.
 1000043a0 d10b0f29 120f2851 150f28cb 660f74c2  ...)..(Q..(.f.t.
 1000043b0 488d5210 660fd7c0 488d4910 0f28da49  H.R.f...H.I..(.I
 1000043c0 83e8100f 864a1100 004885c0 0f85d600  .....J...H......
 1000043d0 0000660f 3a0fd10b 0f28cb0f 29120f28  ..f.:....(..)..(
 1000043e0 5115660f 74c2488d 5210660f d7c0488d  Q.f.t.H.R.f...H.
 1000043f0 49100f28 da4983e8 100f8614 11000048  I..(.I.........H
 100004400 85c00f85 a0000000 660f3a0f d10b0f28  ........f.:....(
 100004410 cb0f2912 488d4915 488d5210 4889c848  ..).H.I.H.R.H..H
 100004420 83e1c048 2bc1488d 49fb482b d04c03c0  ...H+.H.I.H+.L..
 100004430 0f2849f5 0f285105 0f285915 0f28f30f  .(I..(Q..(Y..(..
 100004440 2861250f 28fc0f28 6935660f daf2660f  (a%.(..(i5f...f.
 100004450 dafd660f dafe660f 74f8660f d7c70f28  ..f...f.t.f....(
 100004460 fd660f3a 0fec0b48 85c0660f 3a0fe30b  .f.:...H..f.:...
 100004470 0f85d2fe ffff4983 e8400f86 33160000  ......I..@..3...
 100004480 660f3a0f da0b488d 4940660f 3a0fd10b  f.:...H.I@f.:...
 100004490 0f28cf0f 296a300f 2962200f 295a100f  .(..)j0.)b .)Z..
 1000044a0 2912488d 5240eb8c 0f283266 0f73de05  ).H.R@...(2f.s..
 1000044b0 48c7c605 00000066 0f3a0ff1 0b0f2932  H......f.:....)2
 1000044c0 e93b0600 000f1f40 000f1f80 00000000  .;.....@........
 1000044d0 0f2849f4 0f285104 660f74c2 660fd7c0  .(I..(Q.f.t.f...
 1000044e0 0f28da49 83e8100f 864c1000 004885c0  .(.I.....L...H..
 1000044f0 0f854201 0000660f 3a0fd10c 0f28cb0f  ..B...f.:....(..
 100004500 29120f28 5114660f 74c2488d 5210660f  )..(Q.f.t.H.R.f.
 100004510 d7c0488d 49100f28 da4983e8 100f8616  ..H.I..(.I......
 100004520 10000048 85c00f85 0c010000 660f3a0f  ...H........f.:.
 100004530 d10c0f29 120f2851 140f28cb 660f74c2  ...)..(Q..(.f.t.
 100004540 488d5210 660fd7c0 488d4910 0f28da49  H.R.f...H.I..(.I
 100004550 83e8100f 86e00f00 004885c0 0f85d600  .........H......
 100004560 0000660f 3a0fd10c 0f28cb0f 29120f28  ..f.:....(..)..(
 100004570 5114660f 74c2488d 5210660f d7c0488d  Q.f.t.H.R.f...H.
 100004580 49100f28 da4983e8 100f86aa 0f000048  I..(.I.........H
 100004590 85c00f85 a0000000 660f3a0f d10c0f28  ........f.:....(
 1000045a0 cb0f2912 488d4914 488d5210 4889c848  ..).H.I.H.R.H..H
 1000045b0 83e1c048 2bc1488d 49fc482b d04c03c0  ...H+.H.I.H+.L..
 1000045c0 0f2849f4 0f285104 0f285914 0f28f30f  .(I..(Q..(Y..(..
 1000045d0 2861240f 28fc0f28 6934660f daf2660f  (a$.(..(i4f...f.
 1000045e0 dafd660f dafe660f 74f8660f d7c70f28  ..f...f.t.f....(
 1000045f0 fd660f3a 0fec0c48 85c0660f 3a0fe30c  .f.:...H..f.:...
 100004600 0f85d2fe ffff4983 e8400f86 20150000  ......I..@.. ...
 100004610 660f3a0f da0c488d 4940660f 3a0fd10c  f.:...H.I@f.:...
 100004620 0f28cf0f 296a300f 2962200f 295a100f  .(..)j0.)b .)Z..
 100004630 2912488d 5240eb8c 0f283266 0f73de04  ).H.R@...(2f.s..
 100004640 48c7c604 00000066 0f3a0ff1 0c0f2932  H......f.:....)2
 100004650 e9ab0400 000f1f40 000f1f80 00000000  .......@........
 100004660 0f2849f3 0f285103 660f74c2 660fd7c0  .(I..(Q.f.t.f...
 100004670 0f28da49 83e8100f 86e20e00 004885c0  .(.I.........H..
 100004680 0f854201 0000660f 3a0fd10d 0f28cb0f  ..B...f.:....(..
 100004690 29120f28 5113660f 74c2488d 5210660f  )..(Q.f.t.H.R.f.
 1000046a0 d7c0488d 49100f28 da4983e8 100f86ac  ..H.I..(.I......
 1000046b0 0e000048 85c00f85 0c010000 660f3a0f  ...H........f.:.
 1000046c0 d10d0f29 120f2851 130f28cb 660f74c2  ...)..(Q..(.f.t.
 1000046d0 488d5210 660fd7c0 488d4910 0f28da49  H.R.f...H.I..(.I
 1000046e0 83e8100f 86760e00 004885c0 0f85d600  .....v...H......
 1000046f0 0000660f 3a0fd10d 0f28cb0f 29120f28  ..f.:....(..)..(
 100004700 5113660f 74c2488d 5210660f d7c0488d  Q.f.t.H.R.f...H.
 100004710 49100f28 da4983e8 100f8640 0e000048  I..(.I.....@...H
 100004720 85c00f85 a0000000 660f3a0f d10d0f28  ........f.:....(
 100004730 cb0f2912 488d4913 488d5210 4889c848  ..).H.I.H.R.H..H
 100004740 83e1c048 2bc1488d 49fd482b d04c03c0  ...H+.H.I.H+.L..
 100004750 0f2849f3 0f285103 0f285913 0f28f30f  .(I..(Q..(Y..(..
 100004760 2861230f 28fc0f28 6933660f daf2660f  (a#.(..(i3f...f.
 100004770 dafd660f dafe660f 74f8660f d7c70f28  ..f...f.t.f....(
 100004780 fd660f3a 0fec0d48 85c0660f 3a0fe30d  .f.:...H..f.:...
 100004790 0f85d2fe ffff4983 e8400f86 0d140000  ......I..@......
 1000047a0 660f3a0f da0d488d 4940660f 3a0fd10d  f.:...H.I@f.:...
 1000047b0 0f28cf0f 296a300f 2962200f 295a100f  .(..)j0.)b .)Z..
 1000047c0 2912488d 5240eb8c 0f283266 0f73de03  ).H.R@...(2f.s..
 1000047d0 48c7c603 00000066 0f3a0ff1 0d0f2932  H......f.:....)2
 1000047e0 e91b0300 000f1f40 000f1f80 00000000  .......@........
 1000047f0 0f2849f2 0f285102 660f74c2 660fd7c0  .(I..(Q.f.t.f...
 100004800 0f28da49 83e8100f 86780d00 004885c0  .(.I.....x...H..
 100004810 0f854201 0000660f 3a0fd10e 0f28cb0f  ..B...f.:....(..
 100004820 29120f28 5112660f 74c2488d 5210660f  )..(Q.f.t.H.R.f.
 100004830 d7c0488d 49100f28 da4983e8 100f8642  ..H.I..(.I.....B
 100004840 0d000048 85c00f85 0c010000 660f3a0f  ...H........f.:.
 100004850 d10e0f29 120f2851 120f28cb 660f74c2  ...)..(Q..(.f.t.
 100004860 488d5210 660fd7c0 488d4910 0f28da49  H.R.f...H.I..(.I
 100004870 83e8100f 860c0d00 004885c0 0f85d600  .........H......
 100004880 0000660f 3a0fd10e 0f28cb0f 29120f28  ..f.:....(..)..(
 100004890 5112660f 74c2488d 5210660f d7c0488d  Q.f.t.H.R.f...H.
 1000048a0 49100f28 da4983e8 100f86d6 0c000048  I..(.I.........H
 1000048b0 85c00f85 a0000000 660f3a0f d10e0f28  ........f.:....(
 1000048c0 cb0f2912 488d4912 488d5210 4889c848  ..).H.I.H.R.H..H
 1000048d0 83e1c048 2bc1488d 49fe482b d04c03c0  ...H+.H.I.H+.L..
 1000048e0 0f2849f2 0f285102 0f285912 0f28f30f  .(I..(Q..(Y..(..
 1000048f0 2861220f 28fc0f28 6932660f daf2660f  (a".(..(i2f...f.
 100004900 dafd660f dafe660f 74f8660f d7c70f28  ..f...f.t.f....(
 100004910 fd660f3a 0fec0e48 85c0660f 3a0fe30e  .f.:...H..f.:...
 100004920 0f85d2fe ffff4983 e8400f86 fa120000  ......I..@......
 100004930 660f3a0f da0e488d 4940660f 3a0fd10e  f.:...H.I@f.:...
 100004940 0f28cf0f 296a300f 2962200f 295a100f  .(..)j0.)b .)Z..
 100004950 2912488d 5240eb8c 0f283266 0f73de02  ).H.R@...(2f.s..
 100004960 48c7c602 00000066 0f3a0ff1 0e0f2932  H......f.:....)2
 100004970 e98b0100 000f1f40 000f1f80 00000000  .......@........
 100004980 0f2849f1 0f285101 660f74c2 660fd7c0  .(I..(Q.f.t.f...
 100004990 0f28da49 83e8100f 860e0c00 004885c0  .(.I.........H..
 1000049a0 0f854201 0000660f 3a0fd10f 0f28cb0f  ..B...f.:....(..
 1000049b0 29120f28 5111660f 74c2488d 5210660f  )..(Q.f.t.H.R.f.
 1000049c0 d7c0488d 49100f28 da4983e8 100f86d8  ..H.I..(.I......
 1000049d0 0b000048 85c00f85 0c010000 660f3a0f  ...H........f.:.
 1000049e0 d10f0f29 120f2851 110f28cb 660f74c2  ...)..(Q..(.f.t.
 1000049f0 488d5210 660fd7c0 488d4910 0f28da49  H.R.f...H.I..(.I
 100004a00 83e8100f 86a20b00 004885c0 0f85d600  .........H......
 100004a10 0000660f 3a0fd10f 0f28cb0f 29120f28  ..f.:....(..)..(
 100004a20 5111660f 74c2488d 5210660f d7c0488d  Q.f.t.H.R.f...H.
 100004a30 49100f28 da4983e8 100f866c 0b000048  I..(.I.....l...H
 100004a40 85c00f85 a0000000 660f3a0f d10f0f28  ........f.:....(
 100004a50 cb0f2912 488d4911 488d5210 4889c848  ..).H.I.H.R.H..H
 100004a60 83e1c048 2bc1488d 49ff482b d04c03c0  ...H+.H.I.H+.L..
 100004a70 0f2849f1 0f285101 0f285911 0f28f30f  .(I..(Q..(Y..(..
 100004a80 2861210f 28fc0f28 6931660f daf2660f  (a!.(..(i1f...f.
 100004a90 dafd660f dafe660f 74f8660f d7c70f28  ..f...f.t.f....(
 100004aa0 fd660f3a 0fec0f48 85c0660f 3a0fe30f  .f.:...H..f.:...
 100004ab0 0f85d2fe ffff4983 e8400f86 e7110000  ......I..@......
 100004ac0 660f3a0f da0f488d 4940660f 3a0fd10f  f.:...H.I@f.:...
 100004ad0 0f28cf0f 296a300f 2962200f 295a100f  .(..)j0.)b .)Z..
 100004ae0 2912488d 5240eb8c 0f283266 0f73de01  ).H.R@...(2f.s..
 100004af0 48c7c601 00000066 0f3a0ff1 0f0f2932  H......f.:....)2
 100004b00 4983c010 4803d648 03ce84c0 7462a801  I...H..H....tb..
 100004b10 0f859a02 0000a802 0f85b202 0000a804  ................
 100004b20 0f85ca02 0000a808 0f85e202 0000a810  ................
 100004b30 0f85fa02 0000a820 0f851203 0000a840  ....... .......@
 100004b40 0f852a03 00000f1f 000f1f80 00000000  ..*.............
 100004b50 488b0148 89024889 f84983e8 08488d4a  H..H..H..I...H.J
 100004b60 080f85a9 050000c3 0f1f8400 00000000  ................
 100004b70 f6c4010f 85170300 00f6c402 0f852e03  ................
 100004b80 0000f6c4 040f8545 030000f6 c4080f85  .......E........
 100004b90 5c030000 f6c4100f 85730300 00f6c420  \........s..... 
 100004ba0 0f858a03 0000f6c4 400f85a1 03000090  ........@.......
 100004bb0 488b0148 8902488b 41084889 42084889  H..H..H.A.H.B.H.
 100004bc0 f84983e8 10488d4a 100f8541 050000c3  .I...H.J...A....
 100004bd0 4983c010 4803ce48 8d341649 8d50f780  I...H..H.4.I.P..
 100004be0 e6800af0 84f6488d 160f8491 00000049  ......H........I
 100004bf0 83f8010f 84b70100 00a8010f 85af0100  ................
 100004c00 004983f8 020f84c5 010000a8 020f85bd  .I..............
 100004c10 01000049 83f8030f 84d30100 00a8040f  ...I............
 100004c20 85cb0100 004983f8 040f84e1 010000a8  .....I..........
 100004c30 080f85d9 01000049 83f8050f 84ef0100  .......I........
 100004c40 00a8100f 85e70100 004983f8 060f84fd  .........I......
 100004c50 010000a8 200f85f5 01000049 83f8070f  .... ......I....
 100004c60 840b0200 00a8400f 85030200 00e9defe  ......@.........
 100004c70 ffff0f1f 80000000 000f1f80 00000000  ................
 100004c80 4983f809 0f840602 0000f6c4 010f85fd  I...............
 100004c90 01000049 83f80a0f 84130200 00f6c402  ...I............
 100004ca0 0f850a02 00004983 f80b0f84 20020000  ......I..... ...
 100004cb0 f6c4040f 85170200 004983f8 0c0f842d  .........I.....-
 100004cc0 020000f6 c4080f85 24020000 4983f80d  ........$...I...
 100004cd0 0f843a02 0000f6c4 100f8531 02000049  ..:........1...I
 100004ce0 83f80e0f 84470200 00f6c420 0f853e02  .....G..... ..>.
 100004cf0 00004983 f80f0f84 54020000 f6c4400f  ..I.....T.....@.
 100004d00 854b0200 00e9a6fe ffff4885 c00f85bd  .K........H.....
 100004d10 feffff0f 1f440000 0f1f8400 00000000  .....D..........
 100004d20 4983c010 4803d648 03ce4983 f8100f84  I...H..H..I.....
 100004d30 7cfeffff 4983f808 0f8412fe ffff7f1e  |...I...........
 100004d40 4983f804 0f84c600 00007f34 4983f802  I..........4I...
 100004d50 7c5e0f84 78000000 0f8f9200 00004983  |^..x.........I.
 100004d60 f80c0f84 88010000 7c2c4983 f80e0f8c  ........|,I.....
 100004d70 9c010000 0f84b601 00000f8f d0010000  ................
 100004d80 4983f806 0f8ca600 00000f84 c0000000  I...............
 100004d90 0f8fda00 00004983 f80a0f8c f0000000  ......I.........
 100004da0 0f840a01 00000f8f 24010000 0f1f4000  ........$.....@.
 100004db0 8a018802 4889f849 83e80148 8d4a010f  ....H..I...H.J..
 100004dc0 854b0300 00c30f1f 000f1f80 00000000  .K..............
 100004dd0 668b0166 89024889 f84983e8 02488d4a  f..f..H..I...H.J
 100004de0 020f8529 030000c3 0f1f8400 00000000  ...)............
 100004df0 668b0166 89028a41 02884202 4889f849  f..f...A..B.H..I
 100004e00 83e80348 8d4a030f 85030300 00c36690  ...H.J........f.
 100004e10 8b018902 4889f849 83e80448 8d4a040f  ....H..I...H.J..
 100004e20 85eb0200 00c30f1f 000f1f80 00000000  ................
 100004e30 8b018902 8a410488 42044889 f84983e8  .....A..B.H..I..
 100004e40 05488d4a 050f85c5 020000c3 0f1f4000  .H.J..........@.
 100004e50 8b018902 668b4104 66894204 4889f849  ....f.A.f.B.H..I
 100004e60 83e80648 8d4a060f 85a30200 00c36690  ...H.J........f.
 100004e70 8b018902 8b410389 42034889 f84983e8  .....A..B.H..I..
 100004e80 07488d4a 070f8585 020000c3 0f1f4000  .H.J..........@.
 100004e90 488b0148 89028b41 05894205 4889f849  H..H...A..B.H..I
 100004ea0 83e80948 8d4a090f 85630200 00c36690  ...H.J...c....f.
 100004eb0 488b0148 89028b41 06894206 4889f849  H..H...A..B.H..I
 100004ec0 83e80a48 8d4a0a0f 85430200 00c36690  ...H.J...C....f.
 100004ed0 488b0148 89028b41 07894207 4889f849  H..H...A..B.H..I
 100004ee0 83e80b48 8d4a0b0f 85230200 00c36690  ...H.J...#....f.
 100004ef0 488b0148 89028b41 08894208 4889f849  H..H...A..B.H..I
 100004f00 83e80c48 8d4a0c0f 85030200 00c36690  ...H.J........f.
 100004f10 488b0148 8902488b 41054889 42054889  H..H..H.A.H.B.H.
 100004f20 f84983e8 0d488d4a 0d0f85e1 010000c3  .I...H.J........
 100004f30 488b0148 8902488b 41064889 42064889  H..H..H.A.H.B.H.
 100004f40 f84983e8 0e488d4a 0e0f85c1 010000c3  .I...H.J........
 100004f50 488b0148 8902488b 41074889 42074889  H..H..H.A.H.B.H.
 100004f60 f84983e8 0f488d4a 0f0f85a1 010000c3  .I...H.J........
 100004f70 c30f1f84 00000000 000f1f80 00000000  ................
 100004f80 8811c30f 1f440000 0f1f8400 00000000  .....D..........
 100004f90 668911c3 0f1f4400 000f1f80 00000000  f.....D.........
 100004fa0 66891188 5102c366 0f1f8400 00000000  f...Q..f........
 100004fb0 8911c30f 1f440000 0f1f8400 00000000  .....D..........
 100004fc0 89118851 04c30f1f 000f1f80 00000000  ...Q............
 100004fd0 89116689 5104c366 0f1f8400 00000000  ..f.Q..f........
 100004fe0 89118951 03c30f1f 000f1f80 00000000  ...Q............
 100004ff0 488911c3 0f1f4400 000f1f80 00000000  H.....D.........
 100005000 48891188 5108c366 0f1f8400 00000000  H...Q..f........
 100005010 48891166 895108c3 0f1f8400 00000000  H..f.Q..........
 100005020 48891189 5107c366 0f1f8400 00000000  H...Q..f........
 100005030 48891189 5108c366 0f1f8400 00000000  H...Q..f........
 100005040 48891148 895105c3 0f1f8400 00000000  H..H.Q..........
 100005050 48891148 895106c3 0f1f8400 00000000  H..H.Q..........
 100005060 48891148 895107c3 0f1f8400 00000000  H..H.Q..........
 100005070 48891148 895108c3 0f1f8400 00000000  H..H.Q..........
 100005080 4d8d4010 4d85c00f 84e3feff ff4983f8  M.@.M........I..
 100005090 1074dd49 83f8080f 8453ffff ff7f2249  .t.I.....S...."I
 1000050a0 83f8040f 8407ffff ff7f3449 83f8020f  ..........4I....
 1000050b0 8ccbfeff ff0f84d5 feffff0f 8fdffeff  ................
 1000050c0 ff4983f8 0c0f8465 ffffff7c 284983f8  .I.....e...|(I..
 1000050d0 0e0f8c69 ffffff0f 8473ffff ff7f8149  ...i.....s.....I
 1000050e0 83f8060f 8cd7feff ff0f84e1 feffff0f  ................
 1000050f0 8febfeff ff4983f8 0a0f8c01 ffffff0f  .....I..........
 100005100 840bffff ffe916ff ffff660f 1f440000  ..........f..D..
 100005110 4833d249 83e8100f 8663ffff ff660fef  H3.I.....c...f..
 100005120 c0488911 48895108 488d4910 4889ca48  .H..H.Q.H.I.H..H
 100005130 83e20f48 2bca4c03 c24833d2 4983e840  ...H+.L..H3.I..@
 100005140 721d660f 7f01660f 7f411066 0f7f4120  r.f...f..A.f..A 
 100005150 660f7f41 30488d49 404983e8 4073e349  f..A0H.I@I..@s.I
 100005160 83c0207c 24660f7f 01660f7f 4110488d  .. |$f...f..A.H.
 100005170 49204983 e8100f8c 04ffffff 660f7f01  I I.........f...
 100005180 488d4910 e9fbfeff ff4983c0 100f8ced  H.I......I......
 100005190 feffff66 0f7f0148 8d4910e9 e4feffff  ...f...H.I......
 1000051a0 4889d0c3 0f1f4400 000f1f80 00000000  H.....D.........
 1000051b0 4983f809 0f84d6fc ffff8079 08000f84  I..........y....
 1000051c0 ccfcffff 4983f80a 0f84e2fc ffff8079  ....I..........y
 1000051d0 09000f84 d8fcffff 4983f80b 0f84eefc  ........I.......
 1000051e0 ffff8079 0a000f84 e4fcffff 4983f80c  ...y........I...
 1000051f0 0f84fafc ffff8079 0b000f84 f0fcffff  .......y........
 100005200 4983f80d 0f8406fd ffff8079 0c000f84  I..........y....
 100005210 fcfcffff 4983f80e 0f8412fd ffff8079  ....I..........y
 100005220 0d000f84 08fdffff 488b0148 8902488b  ........H..H..H.
 100005230 41074889 42074889 f8c3660f 1f440000  A.H.B.H...f..D..
 100005240 4983f801 0f8466fb ffff8039 000f845d  I.....f....9...]
 100005250 fbffff49 83f8020f 8473fbff ff807901  ...I.....s....y.
 100005260 000f8469 fbffff49 83f8030f 847ffbff  ...i...I........
 100005270 ff807902 000f8475 fbffff49 83f8040f  ..y....u...I....
 100005280 848bfbff ff807903 000f8481 fbffff49  ......y........I
 100005290 83f8050f 8497fbff ff807904 000f848d  ..........y.....
 1000052a0 fbffff49 83f8060f 84a3fbff ff807905  ...I..........y.
 1000052b0 000f8499 fbffff49 83f8070f 84affbff  .......I........
 1000052c0 ff807906 000f84a5 fbffff48 8b014889  ..y........H..H.
 1000052d0 024889f8 c34885c0 75434d8d 40404983  .H...H..uCM.@@I.
 1000052e0 e8100f86 38faffff 0f2962c0 488d7610  ....8....)b.H.v.
 1000052f0 4983e810 0f8626fa ffff0f29 6ad0488d  I.....&....)j.H.
 100005300 76104983 e8100f86 14faffff 0f2972e0  v.I..........)r.
 100005310 488d7610 4d8d40f0 e903faff ff660f74  H.v.M.@......f.t
 100005320 c4660fd7 c04983c0 300f8edb f9ffff48  .f...I..0......H
 100005330 85c00f85 c8f7ffff 660f74c5 660fd7c0  ........f.t.f...
 100005340 0f2962c0 488d7610 4983e810 0f86b8f9  .)b.H.v.I.......
 100005350 ffff4885 c00f85a5 f7ffff66 0f74c666  ..H........f.t.f
 100005360 0fd7c00f 296ad048 8d761049 83e8100f  ....)j.H.v.I....
 100005370 8695f9ff ff4885c0 0f8582f7 ffff660f  .....H........f.
 100005380 74c7660f d7c00f29 72e0488d 76104d8d  t.f....)r.H.v.M.
 100005390 40f0e939 f8ffff0f 2832660f 73de0f48  @..9....(2f.s..H
 1000053a0 c7c60f00 0000660f 3a0ff101 0f293248  ......f.:....)2H
 1000053b0 85c00f85 18f8ffff e963f9ff ff0f2832  .........c....(2
 1000053c0 660f73de 0e48c7c6 0e000000 660f3a0f  f.s..H......f.:.
 1000053d0 f1020f29 324885c0 0f85f2f7 ffffe93d  ...)2H.........=
 1000053e0 f9ffff0f 2832660f 73de0d48 c7c60d00  ....(2f.s..H....
 1000053f0 0000660f 3a0ff103 0f293248 85c00f85  ..f.:....)2H....
 100005400 ccf7ffff e917f9ff ff0f2832 660f73de  ..........(2f.s.
 100005410 0c48c7c6 0c000000 660f3a0f f1040f29  .H......f.:....)
 100005420 324885c0 0f85a6f7 ffffe9f1 f8ffff0f  2H..............
 100005430 2832660f 73de0b48 c7c60b00 0000660f  (2f.s..H......f.
 100005440 3a0ff105 0f293248 85c00f85 80f7ffff  :....)2H........
 100005450 e9cbf8ff ff0f2832 660f73de 0a48c7c6  ......(2f.s..H..
 100005460 0a000000 660f3a0f f1060f29 324885c0  ....f.:....)2H..
 100005470 0f855af7 ffffe9a5 f8ffff0f 2832660f  ..Z.........(2f.
 100005480 73de0948 c7c60900 0000660f 3a0ff107  s..H......f.:...
 100005490 0f293248 85c00f85 34f7ffff e97ff8ff  .)2H....4.......
 1000054a0 ff0f2832 660f73de 0848c7c6 08000000  ..(2f.s..H......
 1000054b0 660f3a0f f1080f29 324885c0 0f850ef7  f.:....)2H......
 1000054c0 ffffe959 f8ffff0f 2832660f 73de0748  ...Y....(2f.s..H
 1000054d0 c7c60700 0000660f 3a0ff109 0f293248  ......f.:....)2H
 1000054e0 85c00f85 e8f6ffff e933f8ff ff0f2832  .........3....(2
 1000054f0 660f73de 0648c7c6 06000000 660f3a0f  f.s..H......f.:.
 100005500 f10a0f29 324885c0 0f85c2f6 ffffe90d  ...)2H..........
 100005510 f8ffff0f 2832660f 73de0548 c7c60500  ....(2f.s..H....
 100005520 0000660f 3a0ff10b 0f293248 85c00f85  ..f.:....)2H....
 100005530 9cf6ffff e9e7f7ff ff0f2832 660f73de  ..........(2f.s.
 100005540 0448c7c6 04000000 660f3a0f f10c0f29  .H......f.:....)
 100005550 324885c0 0f8576f6 ffffe9c1 f7ffff0f  2H....v.........
 100005560 2832660f 73de0348 c7c60300 0000660f  (2f.s..H......f.
 100005570 3a0ff10d 0f293248 85c00f85 50f6ffff  :....)2H....P...
 100005580 e99bf7ff ff0f2832 660f73de 0248c7c6  ......(2f.s..H..
 100005590 02000000 660f3a0f f10e0f29 324885c0  ....f.:....)2H..
 1000055a0 0f852af6 ffffe975 f7ffff0f 2832660f  ..*....u....(2f.
 1000055b0 73de0148 c7c60100 0000660f 3a0ff10f  s..H......f.:...
 1000055c0 0f293248 85c00f85 04f6ffff e94ff7ff  .)2H.........O..
 1000055d0 ff0f28da 4983c030 7e58660f 3a0fd101  ..(.I..0~Xf.:...
 1000055e0 0f28cb0f 29120f28 511f488d 76100f28  .(..)..(Q.H.v..(
 1000055f0 da4983e8 10763b66 0f3a0fd1 010f2952  .I...v;f.:....)R
 100005600 100f2851 2f0f28cb 488d7610 4983e810  ..(Q/.(.H.v.I...
 100005610 76200f28 ca0f2962 20488d76 104983e8  v .(..)b H.v.I..
 100005620 10760f0f 28cf0f29 6a30488d 76104d8d  .v..(..)j0H.v.M.
 100005630 40f00f28 3432660f 73de0f66 0f3a0ff1  @..(42f.s..f.:..
 100005640 010f2934 32488d76 0fe9d2f6 ffff0f28  ..)42H.v.......(
 100005650 da4983c0 307e5866 0f3a0fd1 020f28cb  .I..0~Xf.:....(.
 100005660 0f29120f 28511e48 8d76100f 28da4983  .)..(Q.H.v..(.I.
 100005670 e810763b 660f3a0f d1020f29 52100f28  ..v;f.:....)R..(
 100005680 512e0f28 cb488d76 104983e8 1076200f  Q..(.H.v.I...v .
 100005690 28ca0f29 6220488d 76104983 e810760f  (..)b H.v.I...v.
 1000056a0 0f28cf0f 296a3048 8d76104d 8d40f00f  .(..)j0H.v.M.@..
 1000056b0 28343266 0f73de0e 660f3a0f f1020f29  (42f.s..f.:....)
 1000056c0 3432488d 760ee955 f6ffff0f 28da4983  42H.v..U....(.I.
 1000056d0 c0307e58 660f3a0f d1030f28 cb0f2912  .0~Xf.:....(..).
 1000056e0 0f28511d 488d7610 0f28da49 83e81076  .(Q.H.v..(.I...v
 1000056f0 3b660f3a 0fd1030f 2952100f 28512d0f  ;f.:....)R..(Q-.
 100005700 28cb488d 76104983 e8107620 0f28ca0f  (.H.v.I...v .(..
 100005710 29622048 8d761049 83e81076 0f0f28cf  )b H.v.I...v..(.
 100005720 0f296a30 488d7610 4d8d40f0 0f283432  .)j0H.v.M.@..(42
 100005730 660f73de 0d660f3a 0ff1030f 29343248  f.s..f.:....)42H
 100005740 8d760de9 d8f5ffff 0f28da49 83c0307e  .v.......(.I..0~
 100005750 58660f3a 0fd1040f 28cb0f29 120f2851  Xf.:....(..)..(Q
 100005760 1c488d76 100f28da 4983e810 763b660f  .H.v..(.I...v;f.
 100005770 3a0fd104 0f295210 0f28512c 0f28cb48  :....)R..(Q,.(.H
 100005780 8d761049 83e81076 200f28ca 0f296220  .v.I...v .(..)b 
 100005790 488d7610 4983e810 760f0f28 cf0f296a  H.v.I...v..(..)j
 1000057a0 30488d76 104d8d40 f00f2834 32660f73  0H.v.M.@..(42f.s
 1000057b0 de0c660f 3a0ff104 0f293432 488d760c  ..f.:....)42H.v.
 1000057c0 e95bf5ff ff0f28da 4983c030 7e58660f  .[....(.I..0~Xf.
 1000057d0 3a0fd105 0f28cb0f 29120f28 511b488d  :....(..)..(Q.H.
 1000057e0 76100f28 da4983e8 10763b66 0f3a0fd1  v..(.I...v;f.:..
 1000057f0 050f2952 100f2851 2b0f28cb 488d7610  ..)R..(Q+.(.H.v.
 100005800 4983e810 76200f28 ca0f2962 20488d76  I...v .(..)b H.v
 100005810 104983e8 10760f0f 28cf0f29 6a30488d  .I...v..(..)j0H.
 100005820 76104d8d 40f00f28 3432660f 73de0b66  v.M.@..(42f.s..f
 100005830 0f3a0ff1 050f2934 32488d76 0be9def4  .:....)42H.v....
 100005840 ffff0f28 da4983c0 307e5866 0f3a0fd1  ...(.I..0~Xf.:..
 100005850 060f28cb 0f29120f 28511a48 8d76100f  ..(..)..(Q.H.v..
 100005860 28da4983 e810763b 660f3a0f d1060f29  (.I...v;f.:....)
 100005870 52100f28 512a0f28 cb488d76 104983e8  R..(Q*.(.H.v.I..
 100005880 1076200f 28ca0f29 6220488d 76104983  .v .(..)b H.v.I.
 100005890 e810760f 0f28cf0f 296a3048 8d76104d  ..v..(..)j0H.v.M
 1000058a0 8d40f00f 28343266 0f73de0a 660f3a0f  .@..(42f.s..f.:.
 1000058b0 f1060f29 3432488d 760ae961 f4ffff0f  ...)42H.v..a....
 1000058c0 28da4983 c0307e58 660f3a0f d1070f28  (.I..0~Xf.:....(
 1000058d0 cb0f2912 0f285119 488d7610 0f28da49  ..)..(Q.H.v..(.I
 1000058e0 83e81076 3b660f3a 0fd1070f 2952100f  ...v;f.:....)R..
 1000058f0 2851290f 28cb488d 76104983 e8107620  (Q).(.H.v.I...v 
 100005900 0f28ca0f 29622048 8d761049 83e81076  .(..)b H.v.I...v
 100005910 0f0f28cf 0f296a30 488d7610 4d8d40f0  ..(..)j0H.v.M.@.
 100005920 0f283432 660f73de 09660f3a 0ff1070f  .(42f.s..f.:....
 100005930 29343248 8d7609e9 e4f3ffff 0f28da49  )42H.v.......(.I
 100005940 83c0307e 58660f3a 0fd1080f 28cb0f29  ..0~Xf.:....(..)
 100005950 120f2851 18488d76 100f28da 4983e810  ..(Q.H.v..(.I...
 100005960 763b660f 3a0fd108 0f295210 0f285128  v;f.:....)R..(Q(
 100005970 0f28cb48 8d761049 83e81076 200f28ca  .(.H.v.I...v .(.
 100005980 0f296220 488d7610 4983e810 760f0f28  .)b H.v.I...v..(
 100005990 cf0f296a 30488d76 104d8d40 f00f2834  ..)j0H.v.M.@..(4
 1000059a0 32660f73 de08660f 3a0ff108 0f293432  2f.s..f.:....)42
 1000059b0 488d7608 e967f3ff ff0f28da 4983c030  H.v..g....(.I..0
 1000059c0 7e58660f 3a0fd109 0f28cb0f 29120f28  ~Xf.:....(..)..(
 1000059d0 5117488d 76100f28 da4983e8 10763b66  Q.H.v..(.I...v;f
 1000059e0 0f3a0fd1 090f2952 100f2851 270f28cb  .:....)R..(Q'.(.
 1000059f0 488d7610 4983e810 76200f28 ca0f2962  H.v.I...v .(..)b
 100005a00 20488d76 104983e8 10760f0f 28cf0f29   H.v.I...v..(..)
 100005a10 6a30488d 76104d8d 40f00f28 3432660f  j0H.v.M.@..(42f.
 100005a20 73de0766 0f3a0ff1 090f2934 32488d76  s..f.:....)42H.v
 100005a30 07e9eaf2 ffff0f28 da4983c0 307e5866  .......(.I..0~Xf
 100005a40 0f3a0fd1 0a0f28cb 0f29120f 28511648  .:....(..)..(Q.H
 100005a50 8d76100f 28da4983 e810763b 660f3a0f  .v..(.I...v;f.:.
 100005a60 d10a0f29 52100f28 51260f28 cb488d76  ...)R..(Q&.(.H.v
 100005a70 104983e8 1076200f 28ca0f29 6220488d  .I...v .(..)b H.
 100005a80 76104983 e810760f 0f28cf0f 296a3048  v.I...v..(..)j0H
 100005a90 8d76104d 8d40f00f 28343266 0f73de06  .v.M.@..(42f.s..
 100005aa0 660f3a0f f10a0f29 3432488d 7606e96d  f.:....)42H.v..m
 100005ab0 f2ffff0f 28da4983 c0307e58 660f3a0f  ....(.I..0~Xf.:.
 100005ac0 d10b0f28 cb0f2912 0f285115 488d7610  ...(..)..(Q.H.v.
 100005ad0 0f28da49 83e81076 3b660f3a 0fd10b0f  .(.I...v;f.:....
 100005ae0 2952100f 2851250f 28cb488d 76104983  )R..(Q%.(.H.v.I.
 100005af0 e8107620 0f28ca0f 29622048 8d761049  ..v .(..)b H.v.I
 100005b00 83e81076 0f0f28cf 0f296a30 488d7610  ...v..(..)j0H.v.
 100005b10 4d8d40f0 0f283432 660f73de 05660f3a  M.@..(42f.s..f.:
 100005b20 0ff10b0f 29343248 8d7605e9 f0f1ffff  ....)42H.v......
 100005b30 0f28da49 83c0307e 58660f3a 0fd10c0f  .(.I..0~Xf.:....
 100005b40 28cb0f29 120f2851 14488d76 100f28da  (..)..(Q.H.v..(.
 100005b50 4983e810 763b660f 3a0fd10c 0f295210  I...v;f.:....)R.
 100005b60 0f285124 0f28cb48 8d761049 83e81076  .(Q$.(.H.v.I...v
 100005b70 200f28ca 0f296220 488d7610 4983e810   .(..)b H.v.I...
 100005b80 760f0f28 cf0f296a 30488d76 104d8d40  v..(..)j0H.v.M.@
 100005b90 f00f2834 32660f73 de04660f 3a0ff10c  ..(42f.s..f.:...
 100005ba0 0f293432 488d7604 e973f1ff ff0f28da  .)42H.v..s....(.
 100005bb0 4983c030 7e58660f 3a0fd10d 0f28cb0f  I..0~Xf.:....(..
 100005bc0 29120f28 5113488d 76100f28 da4983e8  )..(Q.H.v..(.I..
 100005bd0 10763b66 0f3a0fd1 0d0f2952 100f2851  .v;f.:....)R..(Q
 100005be0 230f28cb 488d7610 4983e810 76200f28  #.(.H.v.I...v .(
 100005bf0 ca0f2962 20488d76 104983e8 10760f0f  ..)b H.v.I...v..
 100005c00 28cf0f29 6a30488d 76104d8d 40f00f28  (..)j0H.v.M.@..(
 100005c10 3432660f 73de0366 0f3a0ff1 0d0f2934  42f.s..f.:....)4
 100005c20 32488d76 03e9f6f0 ffff0f28 da4983c0  2H.v.......(.I..
 100005c30 307e5866 0f3a0fd1 0e0f28cb 0f29120f  0~Xf.:....(..)..
 100005c40 28511248 8d76100f 28da4983 e810763b  (Q.H.v..(.I...v;
 100005c50 660f3a0f d10e0f29 52100f28 51220f28  f.:....)R..(Q".(
 100005c60 cb488d76 104983e8 1076200f 28ca0f29  .H.v.I...v .(..)
 100005c70 6220488d 76104983 e810760f 0f28cf0f  b H.v.I...v..(..
 100005c80 296a3048 8d76104d 8d40f00f 28343266  )j0H.v.M.@..(42f
 100005c90 0f73de02 660f3a0f f10e0f29 3432488d  .s..f.:....)42H.
 100005ca0 7602e979 f0ffff0f 28da4983 c0307e58  v..y....(.I..0~X
 100005cb0 660f3a0f d10f0f28 cb0f2912 0f285111  f.:....(..)..(Q.
 100005cc0 488d7610 0f28da49 83e81076 3b660f3a  H.v..(.I...v;f.:
 100005cd0 0fd10f0f 2952100f 2851210f 28cb488d  ....)R..(Q!.(.H.
 100005ce0 76104983 e8107620 0f28ca0f 29622048  v.I...v .(..)b H
 100005cf0 8d761049 83e81076 0f0f28cf 0f296a30  .v.I...v..(..)j0
 100005d00 488d7610 4d8d40f0 0f283432 660f73de  H.v.M.@..(42f.s.
 100005d10 01660f3a 0ff10f0f 29343248 8d7601e9  .f.:....)42H.v..
 100005d20 fcefffff 0f1f4400 000f1f80 00000000  ......D.........
 100005d30 90909090 90909090 90909090 90909090  ................
 100005d40 56574154 4881eca0 00000049 89c84d89  VWATH......I..M.
 100005d50 c14532e4 4983e10f 4032ff4d 2bc1440f  .E2.I...@2.M+.D.
 100005d60 297c2410 440f2974 2430440f 296c2440  )|$.D.)t$0D.)l$@
 100005d70 440f2964 2450440f 295c2460 440f2954  D.)d$PD.)\$`D.)T
 100005d80 2470440f 298c2480 00000044 0f298424  $pD.).$....D.).$
 100005d90 90000000 0f293c24 0f297424 2066410f  .....)<$.)t$ fA.
 100005da0 6f08488d 15d71500 00420fb7 144a488d  o.H......B...JH.
 100005db0 05050000 004803c2 ffe0660f 73d90f66  .....H....f.s..f
 100005dc0 0f6f05f9 15000066 0f3a0fc8 01e93901  .o.....f.:....9.
 100005dd0 0000660f 73d90e66 0f6f05e1 15000066  ..f.s..f.o.....f
 100005de0 0f3a0fc8 02e92101 0000660f 73d90d66  .:....!...f.s..f
 100005df0 0f6f05c9 15000066 0f3a0fc8 03e90901  .o.....f.:......
 100005e00 0000660f 73d90c66 0f6f05b1 15000066  ..f.s..f.o.....f
 100005e10 0f3a0fc8 04e9f100 0000660f 73d90b66  .:........f.s..f
 100005e20 0f6f0599 15000066 0f3a0fc8 05e9d900  .o.....f.:......
 100005e30 0000660f 73d90a66 0f6f0581 15000066  ..f.s..f.o.....f
 100005e40 0f3a0fc8 06e9c100 0000660f 73d90966  .:........f.s..f
 100005e50 0f6f0569 15000066 0f3a0fc8 07e9a900  .o.i...f.:......
 100005e60 0000660f 73d90866 0f6f0551 15000066  ..f.s..f.o.Q...f
 100005e70 0f3a0fc8 08e99100 0000660f 73d90766  .:........f.s..f
 100005e80 0f6f0539 15000066 0f3a0fc8 09eb7c66  .o.9...f.:....|f
 100005e90 0f73d906 660f6f05 24150000 660f3a0f  .s..f.o.$...f.:.
 100005ea0 c80aeb67 660f73d9 05660f6f 050f1500  ...gf.s..f.o....
 100005eb0 00660f3a 0fc80beb 52660f73 d904660f  .f.:....Rf.s..f.
 100005ec0 6f05fa14 0000660f 3a0fc80c eb3d660f  o.....f.:....=f.
 100005ed0 73d90366 0f6f05e5 14000066 0f3a0fc8  s..f.o.....f.:..
 100005ee0 0deb2866 0f73d902 660f6f05 d0140000  ..(f.s..f.o.....
 100005ef0 660f3a0f c80eeb13 660f73d9 01660f6f  f.:.....f.s..f.o
 100005f00 05bb1400 00660f3a 0fc80f48 8d154e16  .....f.:...H..N.
 100005f10 0000660f 6f02eb09 4983c010 66410f6f  ..f.o...I...fA.o
 100005f20 08660f3a 63c11273 ef660f3a 63c11241  .f.:c..s.f.:c..A
 100005f30 89cb4f8d 1418418a 1280fa2b 0f84e704  ..O...A....+....
 100005f40 000080fa 2d750a49 ffc341b4 014f8d14  ....-u.I..A..O..
 100005f50 184d89d9 4983e10f 660f3a63 c112740b  .M..I...f.:c..t.
 100005f60 f3430f6f 0c03e97f 00000048 8d152e14  .C.o.......H....
 100005f70 0000420f b6140a48 8d050500 00004803  ..B....H......H.
 100005f80 c2ffe066 0f73d90f eb60660f 73d90eeb  ...f.s...`f.s...
 100005f90 59660f73 d90deb52 660f73d9 0ceb4b66  Yf.s...Rf.s...Kf
 100005fa0 0f73d90b eb44660f 73d90aeb 3d660f73  .s...Df.s...=f.s
 100005fb0 d909eb36 660f73d9 08eb2f66 0f73d907  ...6f.s.../f.s..
 100005fc0 eb28660f 73d906eb 21660f73 d905eb1a  .(f.s...!f.s....
 100005fd0 660f73d9 04eb1366 0f73d903 eb0c660f  f.s....f.s....f.
 100005fe0 73d902eb 05660f73 d901488d 157f1500  s....f.s..H.....
 100005ff0 00660f6f 12660f3a 62d14666 0f6ff066  .f.o.f.:b.Ff.o.f
 100006000 440fd7c6 4489c1f7 d1ffc944 23c10f84  D...D......D#...
 100006010 8c010000 488d1565 15000049 0fbfc885  ....H..e...I....
 100006020 c9660f6f 2a0f8e22 02000045 0fbdc048  .f.o*.."...E...H
 100006030 8d155a15 0000488d 0d631500 004c8d0d  ..Z...H..c...L..
 100006040 6c150000 4d63c066 0f6f0266 0f6f1166  l...Mc.f.o.f.o.f
 100006050 410f6f19 660fdbce 660fdbee 660ff8cd  A.o.f...f...f...
 100006060 4084ff66 0f3804c8 660ff5ca 660f3840  @..f.8..f...f.8@
 100006070 cb660f38 02c97511 4983f808 730b660f  .f.8..u.I...s.f.
 100006080 3a16c900 4863c9eb 21488d0d 30150000  :...Hc..!H..0...
 100006090 660f62c9 660f3828 0966480f 3a16c900  f.b.f.8(.fH.:...
 1000060a0 66480f3a 16ca0148 03ca49c1 e0024c8d  fH.:...H..I...L.
 1000060b0 0d2b1300 004084ff 4f631401 74194889  .+...@..Oc..t.H.
 1000060c0 f033d249 f7f249f7 d84b6374 0118480f  .3.I..I..Kct..H.
 1000060d0 aff14803 c6eb0848 89c833d2 49f7f245  ..H....H..3.I..E
 1000060e0 84e47468 48f7d848 85c07e69 e85f0300  ..thH..H..~i._..
 1000060f0 000f2874 24200f28 3c24440f 28842490  ..(t$ .(<$D.(.$.
 100006100 00000044 0f288c24 80000000 440f2854  ...D.(.$....D.(T
 100006110 2470440f 285c2460 440f2864 2450440f  $pD.(\$`D.(d$PD.
 100006120 286c2440 440f2874 2430440f 287c2410  (l$@D.(t$0D.(|$.
 100006130 c7002200 000048b8 00000000 00000080  .."...H.........
 100006140 4881c4a0 00000041 5c5f5ec3 4885c00f  H......A\_^.H...
 100006150 8c980000 000f2874 24200f28 3c24440f  ......(t$ .(<$D.
 100006160 28842490 00000044 0f288c24 80000000  (.$....D.(.$....
 100006170 440f2854 2470440f 285c2460 440f2864  D.(T$pD.(\$`D.(d
 100006180 2450440f 286c2440 440f2874 2430440f  $PD.(l$@D.(t$0D.
 100006190 287c2410 4881c4a0 00000041 5c5f5ec3  (|$.H......A\_^.
 1000061a0 0f287424 2033c00f 283c2444 0f288424  .(t$ 3..(<$D.(.$
 1000061b0 90000000 440f288c 24800000 00440f28  ....D.(.$....D.(
 1000061c0 54247044 0f285c24 60440f28 64245044  T$pD.(\$`D.(d$PD
 1000061d0 0f286c24 40440f28 74243044 0f287c24  .(l$@D.(t$0D.(|$
 1000061e0 104881c4 a0000000 415c5f5e c3e85e02  .H......A\_^..^.
 1000061f0 00000f28 7424200f 283c2444 0f288424  ...(t$ .(<$D.(.$
 100006200 90000000 440f288c 24800000 00440f28  ....D.(.$....D.(
 100006210 54247044 0f285c24 60440f28 64245044  T$pD.(\$`D.(d$PD
 100006220 0f286c24 40440f28 74243044 0f287c24  .(l$@D.(t$0D.(|$
 100006230 10c70022 00000048 b8ffffff ffffffff  ..."...H........
 100006240 7f4881c4 a0000000 415c5f5e c34d2bd1  .H......A\_^.M+.
 100006250 4489c966 410f6f62 10660f3a 62d44666  D..fA.ob.f.:b.Ff
 100006260 0f6fd866 440fd7c3 41d3e844 89c2f7d2  .o.fD...A..D....
 100006270 ffca4423 c2752d48 8d151213 000041b8  ..D#.u-H......A.
 100006280 0f000000 488d0d15 1300004c 8d0d1e13  ....H......L....
 100006290 0000660f 6f02660f 6f116641 0f6f19e9  ..f.o.f.o.fA.o..
 1000062a0 b0fdffff 450fbdc0 4d63c040 b7014b8d  ....E...Mc.@..K.
 1000062b0 04014883 f80f7529 f3430f6f 640a1066  ..H...u).C.od..f
 1000062c0 0f3a62d4 46660fd7 c0660fdb e0660fdb  .:b.Ff...f...f..
 1000062d0 c5660ff8 e0440fbd c04d63c0 e98f0000  .f...D...Mc.....
 1000062e0 00660f6f c5660fdb c3660ff8 e0660fdb  .f.o.f...f...f..
 1000062f0 e3488d15 b8100000 420fb614 0a488d05  .H......B....H..
 100006300 05000000 4803c2ff e0660f73 dc0feb60  ....H....f.s...`
 100006310 660f73dc 0eeb5966 0f73dc0d eb52660f  f.s...Yf.s...Rf.
 100006320 73dc0ceb 4b660f73 dc0beb44 660f73dc  s...Kf.s...Df.s.
 100006330 0aeb3d66 0f73dc09 eb36660f 73dc08eb  ..=f.s...6f.s...
 100006340 2f660f73 dc07eb28 660f73dc 06eb2166  /f.s...(f.s...!f
 100006350 0f73dc05 eb1a660f 73dc04eb 13660f73  .s....f.s....f.s
 100006360 dc03eb0c 660f73dc 02eb0566 0f73dc01  ....f.s....f.s..
 100006370 4983f802 7742488d 05131200 00488d15  I...wBH......H..
 100006380 1c120000 488d0d25 12000066 0f6f0066  ....H..%...f.o.f
 100006390 0f6f1266 0f3804e0 660ff5e2 660f6f19  .o.f.8..f...f.o.
 1000063a0 660f3840 e3660f38 02e4660f 3a16e600  f.8@.f.8..f.:...
 1000063b0 4863f6e9 9cfcffff e8930000 004584e4  Hc...........E..
 1000063c0 48ba0000 00000000 0080c700 22000000  H..........."...
 1000063d0 48b8ffff ffffffff ff7f0f28 74242048  H..........(t$ H
 1000063e0 0f45c20f 283c2444 0f288424 90000000  .E..(<$D.(.$....
 1000063f0 440f288c 24800000 00440f28 54247044  D.(.$....D.(T$pD
 100006400 0f285c24 60440f28 64245044 0f286c24  .(\$`D.(d$PD.(l$
 100006410 40440f28 74243044 0f287c24 104881c4  @D.(t$0D.(|$.H..
 100006420 a0000000 415c5f5e c349ffc3 4f8d1418  ....A\_^.I..O...
 100006430 e91cfbff ff0f1f40 000f1f80 00000000  .......@........
 100006440 90909090 90909090 90909090 90909090  ................
Contents of section __stubs:
 100006450 ff25c21b 0000ff25 c41b0000 ff25c61b  .%.....%.....%..
 100006460 0000ff25 c81b0000 ff25ca1b 0000ff25  ...%.....%.....%
 100006470 cc1b0000 ff25ce1b 0000ff25 d01b0000  .....%.....%....
 100006480 ff25d21b 0000ff25 d41b0000 ff25d61b  .%.....%.....%..
 100006490 0000ff25 d81b0000 ff25da1b 0000ff25  ...%.....%.....%
 1000064a0 dc1b0000 ff25de1b 0000               .....%....
Contents of section __stub_helper:
 1000064ac 4c8d1d5d 1b000041 53ff254d 1b000090  L..]...AS.%M....
 1000064bc 68000000 00e9e6ff ffff680f 000000e9  h.........h.....
 1000064cc dcffffff 68240000 00e9d2ff ffff683a  ....h$........h:
 1000064dc 000000e9 c8ffffff 68490000 00e9beff  ........hI......
 1000064ec ffff6858 000000e9 b4ffffff 68640000  ..hX........hd..
 1000064fc 00e9aaff ffff6873 000000e9 a0ffffff  ......hs........
 10000650c 68800000 00e996ff ffff688e 000000e9  h.........h.....
 10000651c 8cffffff 689c0000 00e982ff ffff68aa  ....h.........h.
 10000652c 000000e9 78ffffff 68b90000 00e96eff  ....x...h.....n.
 10000653c ffff68c5 000000e9 64ffffff 68d40000  ..h.....d...h...
 10000654c 00e95aff ffff                        ..Z...
Contents of section __cstring:
 100006560 5363616c 61722c20 25642c20 256c6c64  Scalar, %d, %lld
 100006570 2c20256c 6c642c20 25642c20 25640a00  , %lld, %d, %d..
 100006580 53534534 2c202564 2c20256c 6c642c20  SSE4, %d, %lld, 
 100006590 256c6c64 2c202564 2c202564 0a000000  %lld, %d, %d....
 1000065a0 41565832 2c202564 2c20256c 6c642c20  AVX2, %d, %lld, 
 1000065b0 256c6c64 2c202564 2c202564 0a000000  %lld, %d, %d....
 1000065c0 25642025 64202564 20256420 25642025  %d %d %d %d %d %
 1000065d0 64202564 20256420 0a000000 00000000  d %d %d ........
 1000065e0 46617461 6c204572 726f723a 20546869  Fatal Error: Thi
 1000065f0 73207072 6f677261 6d207761 73206e6f  s program was no
 100006600 74206275 696c7420 746f2072 756e206f  t built to run o
 100006610 6e207468 65207072 6f636573 736f7220  n the processor 
 100006620 696e2079 6f757220 73797374 656d2e00  in your system..
 100006630 00000000 00000000 00000000 00000000  ................
 100006640 52756e2d 54696d65 20436865 636b2046  Run-Time Check F
 100006650 61696c75 72653a20 54686520 76617269  ailure: The vari
 100006660 61626c65 20272573 27206973 20626569  able '%s' is bei
 100006670 6e672075 73656420 77697468 6f757420  ng used without 
 100006680 6265696e 6720696e 69746961 6c697a65  being initialize
 100006690 64000000 00000000 00000000 00000000  d...............
 1000066a0 2057696e 646f7773 20585020 36342d62   Windows XP 64-b
 1000066b0 69742045 64697469 6f6e2056 65727369  it Edition Versi
 1000066c0 6f6e2032 30303320 6f72206e 65776572  on 2003 or newer
 1000066d0 2073686f 756c6420 62652075 7365642e   should be used.
 1000066e0 00000000 00000000 00000000 00000000  ................
 1000066f0 00000000 00000000 00000000 00000000  ................
 100006700 496e7465 6c285229 20436f72 6528544d  Intel(R) Core(TM
 100006710 29204475 6f207072 6f636573 736f7273  ) Duo processors
 100006720 20616e64 20636f6d 70617469 626c6520   and compatible 
 100006730 496e7465 6c207072 6f636573 736f7273  Intel processors
 100006740 20776974 68207375 70706c65 6d656e74   with supplement
 100006750 616c2053 74726561 6d696e67 2053494d  al Streaming SIM
 100006760 44204578 74656e73 696f6e73 20332028  D Extensions 3 (
 100006770 53535345 33292069 6e737472 75637469  SSSE3) instructi
 100006780 6f6e2073 7570706f 72740000 00000000  on support......
 100006790 00000000 00000000 00000000 00000000  ................
 1000067a0 496e7465 6c285229 2050656e 7469756d  Intel(R) Pentium
 1000067b0 28522920 3420616e 6420636f 6d706174  (R) 4 and compat
 1000067c0 69626c65 20496e74 656c2070 726f6365  ible Intel proce
 1000067d0 73736f72 73207769 74682049 6e74656c  ssors with Intel
 1000067e0 28522920 53747265 616d696e 67205349  (R) Streaming SI
 1000067f0 4d442045 7874656e 73696f6e 73203320  MD Extensions 3 
 100006800 28496e74 656c2852 29205353 45332920  (Intel(R) SSE3) 
 100006810 696e7374 72756374 696f6e20 73757070  instruction supp
 100006820 6f727400 00000000 00000000 00000000  ort.............
 100006830 00000000 00000000 00000000 00000000  ................
 100006840 496e7465 6c285229 2050656e 7469756d  Intel(R) Pentium
 100006850 28522920 3420616e 6420636f 6d706174  (R) 4 and compat
 100006860 69626c65 20496e74 656c2070 726f6365  ible Intel proce
 100006870 73736f72 732e2045 6e61626c 6573206e  ssors. Enables n
 100006880 6577206f 7074696d 697a6174 696f6e73  ew optimizations
 100006890 20696e20 61646469 74696f6e 20746f20   in addition to 
 1000068a0 496e7465 6c207072 6f636573 736f722d  Intel processor-
 1000068b0 73706563 69666963 206f7074 696d697a  specific optimiz
 1000068c0 6174696f 6e730000 00000000 00000000  ations..........
 1000068d0 00000000 00000000 00000000 00000000  ................
 1000068e0 496e7465 6c285229 2070726f 63657373  Intel(R) process
 1000068f0 6f727320 77697468 20535345 342e3220  ors with SSE4.2 
 100006900 616e6420 504f5043 4e542069 6e737472  and POPCNT instr
 100006910 75637469 6f6e7320 73757070 6f727400  uctions support.
 100006920 506c6561 73652076 65726966 79207468  Please verify th
 100006930 61742062 6f746820 74686520 6f706572  at both the oper
 100006940 6174696e 67207379 7374656d 20616e64  ating system and
 100006950 20746865 2070726f 63657373 6f722073   the processor s
 100006960 7570706f 72742049 6e74656c 28522920  upport Intel(R) 
 100006970 4156582e 00000000 00000000 00000000  AVX.............
 100006980 506c6561 73652076 65726966 79207468  Please verify th
 100006990 61742062 6f746820 74686520 6f706572  at both the oper
 1000069a0 6174696e 67207379 7374656d 20616e64  ating system and
 1000069b0 20746865 2070726f 63657373 6f722073   the processor s
 1000069c0 7570706f 72742049 6e74656c 28522920  upport Intel(R) 
 1000069d0 4156582c 20463136 4320616e 64205244  AVX, F16C and RD
 1000069e0 52414e44 20696e73 74727563 74696f6e  RAND instruction
 1000069f0 732e0000 00000000 00000000 00000000  s...............
 100006a00 506c6561 73652076 65726966 79207468  Please verify th
 100006a10 61742062 6f746820 74686520 6f706572  at both the oper
 100006a20 6174696e 67207379 7374656d 20616e64  ating system and
 100006a30 20746865 2070726f 63657373 6f722073   the processor s
 100006a40 7570706f 72742049 6e74656c 28522920  upport Intel(R) 
 100006a50 41565832 2c20424d 492c204c 5a434e54  AVX2, BMI, LZCNT
 100006a60 2c20484c 452c2052 544d2061 6e642046  , HLE, RTM and F
 100006a70 4d412069 6e737472 75637469 6f6e732e  MA instructions.
 100006a80 00000000 00000000 00000000 00000000  ................
 100006a90 00000000 00000000 00000000 00000000  ................
 100006aa0 506c6561 73652076 65726966 79207468  Please verify th
 100006ab0 61742062 6f746820 74686520 6f706572  at both the oper
 100006ac0 6174696e 67207379 7374656d 20616e64  ating system and
 100006ad0 20746865 2070726f 63657373 6f722073   the processor s
 100006ae0 7570706f 72742049 6e74656c 28522920  upport Intel(R) 
 100006af0 25732069 6e737472 75637469 6f6e732e  %s instructions.
 100006b00 00000000 00000000 00000000 00000000  ................
 100006b10 00000000 00000000 00000000 00000000  ................
 100006b20 506c6561 73652076 65726966 79207468  Please verify th
 100006b30 61742079 6f757220 6170706c 69636174  at your applicat
 100006b40 696f6e20 77617320 6275696c 74207769  ion was built wi
 100006b50 74682063 6f6d7061 7469626c 6520496e  th compatible In
 100006b60 74656c28 5229206c 69626972 63206c69  tel(R) libirc li
 100006b70 62726172 79000000 00000000 00000000  brary...........
 100006b80 55736520 6f662069 6e636f6d 70617469  Use of incompati
 100006b90 626c6520 6f722069 6e746572 6e616c6c  ble or internall
 100006ba0 7920696e 636f6e73 69737465 6e742049  y inconsistent I
 100006bb0 6e74656c 28522920 6c696269 7263206c  ntel(R) libirc l
 100006bc0 69627261 72790000 00000000 00000000  ibrary..........
 100006bd0 00000000 00000000 00000000 00000000  ................
 100006be0 52756e2d 54696d65 20436865 636b2046  Run-Time Check F
 100006bf0 61696c75 72653a20 54686520 76617269  ailure: The vari
 100006c00 61626c65 20272573 27206973 20626569  able '%s' is bei
 100006c10 6e672075 73656420 696e2025 73207769  ng used in %s wi
 100006c20 74686f75 74206265 696e6720 696e6974  thout being init
 100006c30 69616c69 7a656400 6972635f 6d73672e  ialized.irc_msg.
 100006c40 63617400 0a000000 436f6e73 74616e74  cat.....Constant
 100006c50 2070726f 70616761 74696f6e 20657272   propagation err
 100006c60 6f722028 25732073 75627374 69747574  or (%s substitut
 100006c70 696f6e29 3a000000 464f524d 414c0000  ion):...FORMAL..
 100006c80 52455455 524e0000 474c4f42 414c0000  RETURN..GLOBAL..
 100006c90 09493332 20256c78 20213d20 256c7800  .I32 %lx != %lx.
 100006ca0 09534933 3220256c 6420213d 20256c64  .SI32 %ld != %ld
 100006cb0 00000000 09463332 20256620 213d2025  .....F32 %f != %
 100006cc0 66000000 09493634 20256c78 3a256c78  f....I64 %lx:%lx
 100006cd0 20213d20 256c783a 256c7800 09534936   != %lx:%lx..SI6
 100006ce0 3420256c 643a256c 6420213d 20256c64  4 %ld:%ld != %ld
 100006cf0 3a256c64 00000000 09463634 20256620  :%ld.....F64 %f 
 100006d00 213d2025 66000000 42616420 7365636f  != %f...Bad seco
 100006d10 6e642061 7267756d 656e7400 46617461  nd argument.Fata
 100006d20 6c204572 726f723a 2043616e 206e6f74  l Error: Can not
 100006d30 20696e69 74696174 65207468 65204865   initiate the He
 100006d40 61700000 55736167 653a2025 7320696e  ap..Usage: %s in
 100006d50 7075745f 66696c65 206f7574 7075745f  put_file output_
 100006d60 66696c65 00000000 55736167 653a2025  file....Usage: %
 100006d70 73207365 676d656e 745f7369 7a652069  s segment_size i
 100006d80 6e707574 5f66696c 65205b2d 74726163  nput_file [-trac
 100006d90 655d0000 436f6e76 65727369 6f6e2066  e]..Conversion f
 100006da0 726f6d20 74657874 2066696c 65202573  rom text file %s
 100006db0 20746f20 62696e61 72792025 7320636f   to binary %s co
 100006dc0 6d706c65 74656400 7365676d 656e745f  mpleted.segment_
 100006dd0 73697a65 203d2030 78257820 3d202564  size = 0x%x = %d
 100006de0 00000000 43616e6e 6f742061 6c6c6f63  ....Cannot alloc
 100006df0 61746520 6d656d6f 72792074 6f20686f  ate memory to ho
 100006e00 6c642073 65676d65 6e742028 73697a65  ld segment (size
 100006e10 203d2030 78257829 00000000 496e7075   = 0x%x)....Inpu
 100006e20 74206669 6c653a20 25732063 6f727275  t file: %s corru
 100006e30 70746564 00000000 726f7574 696e655f  pted....routine_
 100006e40 6e616d65 203d2027 25732700 66696c65  name = '%s'.file
 100006e50 5f6e616d 65202020 203d2027 25732700  _name    = '%s'.
 100006e60 70726f66 5f646972 20202020 203d2027  prof_dir     = '
 100006e70 25732700 44796e61 6d696320 70726f66  %s'.Dynamic prof
 100006e80 696c6520 63726561 74656420 66726f6d  ile created from
 100006e90 2066696c 65202573 20636f6d 706c6574   file %s complet
 100006ea0 65640000 54686520 616c6c6f 77656420  ed..The allowed 
 100006eb0 70726f63 6573736f 72732061 72653a20  processors are: 
 100006ec0 25732e00 4572726f 723a2020 42756666  %s..Error:  Buff
 100006ed0 6572206f 76657272 756e206f 63637572  er overrun occur
 100006ee0 7265642c 20666f72 63656420 65786974  red, forced exit
 100006ef0 00000000 496e6974 69616c69 7a617469  ....Initializati
 100006f00 6f6e206f 66207379 6d626f6c 2068616e  on of symbol han
 100006f10 646c6572 20666169 6c65642e 20457272  dler failed. Err
 100006f20 6f722063 6f646520 25640000 4e54444c  or code %d..NTDL
 100006f30 4c206d6f 64756c65 206e6f74 20666f75  L module not fou
 100006f40 6e640000 52746c43 61707475 7265436f  nd..RtlCaptureCo
 100006f50 6e746578 74206675 6e637469 6f6e206e  ntext function n
 100006f60 6f742066 6f756e64 20696e20 6e74646c  ot found in ntdl
 100006f70 6c2e646c 6c000000 53746163 6b57616c  l.dll...StackWal
 100006f80 6b206973 20746572 6d696e61 74656420  k is terminated 
 100006f90 61626e6f 726d616c 6c792e20 4572726f  abnormally. Erro
 100006fa0 7220636f 64652025 64000000 45786365  r code %d...Exce
 100006fb0 7074696f 6e206973 20726169 73656420  ption is raised 
 100006fc0 64757269 6e672073 7461636b 2077616c  during stack wal
 100006fd0 6b696e67 00000000 5369676e 616c2025  king....Signal %
 100006fe0 73206973 20726169 73656400 5369676e  s is raised.Sign
 100006ff0 616c2025 73206973 20726169 73656420  al %s is raised 
 100007000 61742030 78257000 53494753 45475600  at 0x%p.SIGSEGV.
 100007010 53494749 4c4c0000 53494742 55530000  SIGILL..SIGBUS..
 100007020 53494746 50450000 756e6b6e 6f776e00  SIGFPE..unknown.
 100007030 4e6f2065 72726f72 00000000 596f7520  No error....You 
 100007040 6d757374 206c696e 6b207769 7468206c  must link with l
 100007050 6962756e 77696e64 20746f20 75736520  ibunwind to use 
 100007060 74726163 65626163 6b206675 6e637469  traceback functi
 100007070 6f6e616c 69747900 496e7465 6c285229  onality.Intel(R)
 100007080 2050656e 7469756d 28522920 4d20616e   Pentium(R) M an
 100007090 6420636f 6d706174 69626c65 20496e74  d compatible Int
 1000070a0 656c2070 726f6365 73736f72 73000000  el processors...
 1000070b0 496e7465 6c285229 2070726f 63657373  Intel(R) process
 1000070c0 6f727320 77697468 20537769 6e67204e  ors with Swing N
 1000070d0 65772049 6e737472 75637469 6f6e7320  ew Instructions 
 1000070e0 73757070 6f727400 496e7465 6c285229  support.Intel(R)
 1000070f0 2070726f 63657373 6f727320 77697468   processors with
 100007100 204d4f56 42452069 6e737472 75637469   MOVBE instructi
 100007110 6f6e7320 73757070 6f727400 46617461  ons support.Fata
 100007120 6c204572 726f723a 20546869 73207072  l Error: This pr
 100007130 6f677261 6d207761 73206e6f 74206275  ogram was not bu
 100007140 696c7420 746f2072 756e2069 6e20796f  ilt to run in yo
 100007150 75722073 79737465 6d2e0000 426f756e  ur system...Boun
 100007160 64617279 2052756e 2d54696d 65204368  dary Run-Time Ch
 100007170 65636b20 4661696c 75726520 666f7220  eck Failure for 
 100007180 76617269 61626c65 20272573 27000000  variable '%s'...
 100007190 426f756e 64617279 2052756e 2d54696d  Boundary Run-Tim
 1000071a0 65204368 65636b20 4661696c 75726500  e Check Failure.
 1000071b0 436f6e76 65727369 6f6e2052 756e2d54  Conversion Run-T
 1000071c0 696d6520 43686563 6b204661 696c7572  ime Check Failur
 1000071d0 65000000 20616e64 20000000 00000000  e... and .......
 1000071e0 4c414e47 00000000 47454e45 5249435f  LANG....GENERIC_
 1000071f0 49413332 00000000 58383700 434d4f56  IA32....X87.CMOV
 100007200 00000000 4d4d5800 46585341 56450000  ....MMX.FXSAVE..
 100007210 53534500 53534532 00000000 53534533  SSE.SSE2....SSE3
 100007220 00000000 53535345 33000000 53534534  ....SSSE3...SSE4
 100007230 5f310000 53534534 5f320000 4d4f5642  _1..SSE4_2..MOVB
 100007240 45000000 504f5043 4e540000 50434c4d  E...POPCNT..PCLM
 100007250 554c5144 51000000 41455300 46313643  ULQDQ...AES.F16C
 100007260 00000000 41565800 5244524e 44000000  ....AVX.RDRND...
 100007270 464d4100 424d4900 4c5a434e 54000000  FMA.BMI.LZCNT...
 100007280 484c4500 52544d00 41565832 00000000  HLE.RTM.AVX2....
 100007290 41565835 31324451 00000000 4b4e434e  AVX512DQ....KNCN
 1000072a0 49000000 41565835 31324600 41445800  I...AVX512F.ADX.
 1000072b0 52445345 45440000 41565835 31324946  RDSEED..AVX512IF
 1000072c0 4d413532 00000000 46554c4c 5920494e  MA52....FULLY IN
 1000072d0 4f524445 52205052 4f434553 534f5200  ORDER PROCESSOR.
 1000072e0 41565835 31324552 00000000 41565835  AVX512ER....AVX5
 1000072f0 31325046 00000000 41565835 31324344  12PF....AVX512CD
 100007300 00000000 53484100 4d505800 41565835  ....SHA.MPX.AVX5
 100007310 31324257 00000000 41565835 3132564c  12BW....AVX512VL
 100007320 00000000 41565835 31325642 4d490000  ....AVX512VBMI..
 100007330 41565835 31325f34 464d4150 53000000  AVX512_4FMAPS...
 100007340 41565835 31325f34 564e4e49 57000000  AVX512_4VNNIW...
 100007350 41565835 31325f56 504f5043 4e544451  AVX512_VPOPCNTDQ
 100007360 00000000 2c2000                      ...., .
Contents of section __const:
 100007380 51013e01 29011401 ff00ea00 d500c000  Q.>.)...........
 100007390 a8009000 78006000 48003000 18000000  ....x.`.H.0.....
 1000073a0 67625b54 4d463f38 312a231c 150e0700  gb[TMF?81*#.....
 1000073b0 67625b54 4d463f38 312a231c 150e0700  gb[TMF?81*#.....
 1000073c0 20202020 20202020 20202020 20202020                  
 1000073d0 00000000 00000000 00000000 00000000  ................
 1000073e0 80969800 40420f00 a0860100 10270000  ....@B.......'..
 1000073f0 e8030000 64000000 0a000000 01000000  ....d...........
 100007400 80969800 40420f00 a0860100 10270000  ....@B.......'..
 100007410 e8030000 64000000 0a000000 01000000  ....d...........
 100007420 80969800 40420f00 a0860100 10270000  ....@B.......'..
 100007430 e8030000 64000000 0a000000 01000000  ....d...........
 100007440 0a000000 01000000 00000000 00000000  ................
 100007450 00000000 00000000 00000000 00000000  ................
 100007460 ff000000 00000000 00000000 00000000  ................
 100007470 ffff0000 00000000 00000000 00000000  ................
 100007480 ffffff00 00000000 00000000 00000000  ................
 100007490 ffffffff 00000000 00000000 00000000  ................
 1000074a0 ffffffff ff000000 00000000 00000000  ................
 1000074b0 ffffffff ffff0000 00000000 00000000  ................
 1000074c0 ffffffff ffffff00 00000000 00000000  ................
 1000074d0 ffffffff ffffffff 00000000 00000000  ................
 1000074e0 ffffffff ffffffff ff000000 00000000  ................
 1000074f0 ffffffff ffffffff ffff0000 00000000  ................
 100007500 ffffffff ffffffff ffffff00 00000000  ................
 100007510 ffffffff ffffffff ffffffff 00000000  ................
 100007520 ffffffff ffffffff ffffffff ff000000  ................
 100007530 ffffffff ffffffff ffffffff ffff0000  ................
 100007540 ffffffff ffffffff ffffffff ffffff00  ................
 100007550 ffffffff ffffffff ffffffff ffffffff  ................
 100007560 090a0b0c 0d200000 00000000 00000000  ..... ..........
 100007570 30393039 30393039 30393039 30393039  0909090909090909
 100007580 30303030 30303030 30303030 30303030  0000000000000000
 100007590 0a010a01 0a010a01 0a010a01 0a010a01  ................
 1000075a0 64000100 64000100 64000100 64000100  d...d...d...d...
 1000075b0 10270000 01000000 10270000 01000000  .'.......'......
 1000075c0 00e1f505 00000000 01000000 00000000  ................
 1000075d0 0a010a01 0a010a01 0a010000 00000000  ................
 1000075e0 64000100 64000100 01000000 00000000  d...d...........
 1000075f0 10270000 01000000 01000000 00000000  .'..............
 100007600 415a415a 415a415a 415a415a 415a415a  AZAZAZAZAZAZAZAZ
 100007610 617a617a 617a617a 617a617a 617a617a  azazazazazazazaz
 100007620 20202020 20202020 20202020 20202020                  
 100007630 40404040 40404040 40404040 40404040  @@@@@@@@@@@@@@@@
 100007640 5b5b5b5b 5b5b5b5b 5b5b5b5b 5b5b5b5b  [[[[[[[[[[[[[[[[
 100007650 60606060 60606060 60606060 60606060  ````````````````
 100007660 7b7b7b7b 7b7b7b7b 7b7b7b7b 7b7b7b7b  {{{{{{{{{{{{{{{{
 100007670 00000000 00000000 00000000 00000000  ................
Contents of section __unwind_info:
 100007680 01000000 1c000000 01000000 20000000  ............ ...
 100007690 00000000 20000000 02000000 00000002  .... ...........
 1000076a0 b00a0000 38000000 38000000 51640000  ....8...8...Qd..
 1000076b0 00000000 38000000 03000000 0c000d00  ....8...........
 1000076c0 40000b00 0000000b e008000a 40090000  @...........@...
 1000076d0 300c0009 10150008 a0170007 b01a0006  0...............
 1000076e0 c01a0005 d01a0004 701f0003 70200002  ........p...p ..
 1000076f0 b0240000 90520001 f8050004 18050004  .$...R..........
 100007700 00004202 70030004 40030004 10030004  ..B.p...@.......
 100007710 2f112e02 450c2e02 28010004 00000802  /...E...(.......
 100007720 18000004                             ....
Contents of section __eh_frame:
 100007728 14000000 00000000 017a5200 01781001  .........zR..x..
 100007738 100c0708 90019001 0c010000 1c000000  ................
 100007748 6893ffff ffffffff e0080000 00000000  h...............
 100007758 00040100 00000e10 04030000 000c0610  ................
 100007768 86020414 00000010 030e381c 0d80ffff  ..........8.....
 100007778 ff1a0dd8 ffffff22 100c0e38 1c0d80ff  ......."...8....
 100007788 ffff1a0d f8ffffff 22100d0e 381c0d80  ........"...8...
 100007798 ffffff1a 0df0ffff ff22100e 0e381c0d  ........."...8..
 1000077a8 80ffffff 1a0de8ff ffff2210 0f0e381c  .........."...8.
 1000077b8 0d80ffff ff1a0de0 ffffff22 048b0800  ..........."....
 1000077c8 00c30401 000000cf 04020000 00ce0402  ................
 1000077d8 000000cd 04020000 00cc0406 0000000c  ................
 1000077e8 0708c604 01000000 0c061010 030e381c  ..............8.
 1000077f8 0d80ffff ff1a0dd8 ffffff22 8602100c  ..........."....
 100007808 0e381c0d 80ffffff 1a0df8ff ffff2210  .8............".
 100007818 0d0e381c 0d80ffff ff1a0df0 ffffff22  ..8............"
 100007828 100e0e38 1c0d80ff ffff1a0d e8ffffff  ...8............
 100007838 22100f0e 381c0d80 ffffff1a 0de0ffff  "...8...........
 100007848 ff220000 00000000 b4010000 2c010000  ."..........,...
 100007858 889effff ffffffff d0080000 00000000  ................
 100007868 00040100 00000e10 04030000 000c0610  ................
 100007878 86020411 00000010 030e381c 0de0ffff  ..........8.....
 100007888 ff1a0dd8 ffffff22 100c0e38 1c0de0ff  ......."...8....
 100007898 ffff1a0d f8ffffff 22100d0e 381c0de0  ........"...8...
 1000078a8 ffffff1a 0df0ffff ff22100e 0e381c0d  ........."...8..
 1000078b8 e0ffffff 1a0de8ff ffff2210 0f0e381c  .........."...8.
 1000078c8 0de0ffff ff1a0de0 ffffff22 04d70700  ..........."....
 1000078d8 00c30401 000000cf 04020000 00ce0402  ................
 1000078e8 000000cd 04020000 00cc0406 0000000c  ................
 1000078f8 0708c604 01000000 0c061010 030e381c  ..............8.
 100007908 0de0ffff ff1a0dd8 ffffff22 8602100c  ..........."....
 100007918 0e381c0d e0ffffff 1a0df8ff ffff2210  .8............".
 100007928 0d0e381c 0de0ffff ff1a0df0 ffffff22  ..8............"
 100007938 100e0e38 1c0de0ff ffff1a0d e8ffffff  ...8............
 100007948 22100f0e 381c0de0 ffffff1a 0de0ffff  "...8...........
 100007958 ff2204a8 000000c3 04010000 00cf0402  ."..............
 100007968 000000ce 04020000 00cd0402 000000cc  ................
 100007978 04060000 000c0708 c6040100 00000c06  ................
 100007988 1010030e 381c0de0 ffffff1a 0dd8ffff  ....8...........
 100007998 ff228602 100c0e38 1c0de0ff ffff1a0d  .".....8........
 1000079a8 f8ffffff 22100d0e 381c0de0 ffffff1a  ...."...8.......
 1000079b8 0df0ffff ff22100e 0e381c0d e0ffffff  ....."...8......
 1000079c8 1a0de8ff ffff2210 0f0e381c 0de0ffff  ......"...8.....
 1000079d8 ff1a0de0 ffffff22 04090000 00c30401  ......."........
 1000079e8 000000cf 04020000 00ce0402 000000cd  ................
 1000079f8 04020000 00cc0406 0000000c 0708c600  ................
 100007a08 14000000 00000000 017a5200 01781001  .........zR..x..
 100007a18 100c0708 90019001 14000000 00000000  ................
 100007a28 017a5200 01781001 100c0708 90019001  .zR..x..........
 100007a38 2c000000 1c000000 20abffff ffffffff  ,....... .......
 100007a48 10000000 00000000 00040100 00000e10  ................
 100007a58 80020407 000000c0 04010000 000e0800  ................
 100007a68 2c000000 4c000000 00abffff ffffffff  ,...L...........
 100007a78 10000000 00000000 00040100 00000e10  ................
 100007a88 8002040a 000000c0 04010000 000e0800  ................
 100007a98 74010000 7c000000 e0aaffff ffffffff  t...|...........
 100007aa8 90040000 00000000 00040100 00000e10  ................
 100007ab8 81020401 0000000e 18820304 01000000  ................
 100007ac8 0e208304 04010000 000e2884 05040200  . ........(.....
 100007ad8 00000e30 89060402 0000000e 388c0704  ...0........8...
 100007ae8 02000000 0e408e08 04010000 000e4886  .....@........H.
 100007af8 09041d04 0000c604 01000000 0e40ce04  .............@..
 100007b08 02000000 0e38cc04 02000000 0e30c904  .....8.......0..
 100007b18 02000000 0e28c404 01000000 0e20c304  .....(....... ..
 100007b28 01000000 0e18c204 01000000 0e10c104  ................
 100007b38 01000000 0e080401 0000000e 48810282  ............H...
 100007b48 03830486 09840589 068c078e 08040e00  ................
 100007b58 0000c604 01000000 0e40ce04 02000000  .........@......
 100007b68 0e38cc04 02000000 0e30c904 02000000  .8.......0......
 100007b78 0e28c404 01000000 0e20c304 01000000  .(....... ......
 100007b88 0e18c204 01000000 0e10c104 01000000  ................
 100007b98 0e080401 0000000e 48810282 03830486  ........H.......
 100007ba8 09840589 068c078e 08040b00 0000c604  ................
 100007bb8 01000000 0e40ce04 02000000 0e38cc04  .....@.......8..
 100007bc8 02000000 0e30c904 02000000 0e28c404  .....0.......(..
 100007bd8 01000000 0e20c304 01000000 0e18c204  ..... ..........
 100007be8 01000000 0e10c104 01000000 0e080401  ................
 100007bf8 0000000e 48810282 03830486 09840589  ....H...........
 100007c08 068c078e 08000000 14000000 00000000  ................
 100007c18 017a5200 01781001 100c0708 90019001  .zR..x..........
 100007c28 14000000 00000000 017a5200 01781001  .........zR..x..
 100007c38 100c0708 90019001 7c000000 1c000000  ........|.......
 100007c48 d8aeffff ffffffff 30040000 00000000  ........0.......
 100007c58 00420e10 8c02420e 188d0342 0e208e04  .B....B....B. ..
 100007c68 420e288f 05470ec0 08026f83 07860803  B.(..G....o.....
 100007c78 fb01c34b c6458307 8608027b c3c66d83  ...K.E.....{..m.
 100007c88 0786087b c3c6500e 28cf420e 20ce420e  ...{..P.(.B. .B.
 100007c98 18cd420e 10cc420e 08410ec0 08830786  ..B...B..A......
 100007ca8 088c028d 038e048f 0567c348 c64a8307  .........g.H.J..
 100007cb8 860848c3 48c60000 14000000 00000000  ..H.H...........
 100007cc8 017a5200 01781001 100c0708 90019001  .zR..x..........
 100007cd8 14000000 00000000 017a5200 01781001  .........zR..x..
 100007ce8 100c0708 90019001 14000000 00000000  ................
 100007cf8 017a5200 01781001 100c0708 90019001  .zR..x..........
 100007d08 14000000 00000000 017a5200 01781001  .........zR..x..
 100007d18 100c0708 90019001 c4020000 1c000000  ................
 100007d28 18e0ffff ffffffff 00070000 00000000  ................
 100007d38 00040100 00000e10 84020401 0000000e  ................
 100007d48 18850304 02000000 0e208c04 04070000  ......... ......
 100007d58 000ec001 046f0000 00971498 1899069a  .....o..........
 100007d68 089b0a9c 0c9d0e9e 109f12a0 16043c03  ..............<.
 100007d78 0000d704 04000000 d8040900 0000d904  ................
 100007d88 09000000 da040600 0000db04 06000000  ................
 100007d98 dc040600 0000dd04 06000000 de040600  ................
 100007da8 0000df04 06000000 e0041700 00000e20  ............... 
 100007db8 cc040200 00000e18 c5040100 00000e10  ................
 100007dc8 c4040100 00000e08 04010000 000ec001  ................
 100007dd8 84028503 8c049714 98189906 9a089b0a  ................
 100007de8 9c0c9d0e 9e109f12 a016040e 000000d7  ................
 100007df8 04040000 00d80409 000000d9 04090000  ................
 100007e08 00da0406 000000db 04060000 00dc0406  ................
 100007e18 000000dd 04060000 00de0406 000000df  ................
 100007e28 04060000 00e00407 0000000e 20cc0402  ............ ...
 100007e38 0000000e 18c50401 0000000e 10c40401  ................
 100007e48 0000000e 08040100 00000ec0 01840285  ................
 100007e58 038c0497 14981899 069a089b 0a9c0c9d  ................
 100007e68 0e9e109f 12a01604 05000000 d7040600  ................
 100007e78 0000d804 09000000 d9040900 0000da04  ................
 100007e88 06000000 db040600 0000dc04 06000000  ................
 100007e98 dd040600 0000de04 06000000 df040600  ................
 100007ea8 0000e004 07000000 0e20cc04 02000000  ......... ......
 100007eb8 0e18c504 01000000 0e10c404 01000000  ................
 100007ec8 0e080401 0000000e c0018402 85038c04  ................
 100007ed8 97149818 99069a08 9b0a9c0c 9d0e9e10  ................
 100007ee8 9f12a016 040a0000 00d70404 000000d8  ................
 100007ef8 04090000 00d90409 000000da 04060000  ................
 100007f08 00db0406 000000dc 04060000 00dd0406  ................
 100007f18 000000de 04060000 00df0406 000000e0  ................
 100007f28 04170000 000e20cc 04020000 000e18c5  ...... .........
 100007f38 04010000 000e10c4 04010000 000e0804  ................
 100007f48 01000000 0ec00184 0285038c 04971498  ................
 100007f58 1899069a 089b0a9c 0c9d0e9e 109f12a0  ................
 100007f68 16049201 0000d704 08000000 d8040900  ................
 100007f78 0000d904 09000000 da040600 0000db04  ................
 100007f88 06000000 dc040600 0000dd04 06000000  ................
 100007f98 de040600 0000df04 06000000 e0040700  ................
 100007fa8 00000e20 cc040200 00000e18 c5040100  ... ............
 100007fb8 00000e10 c4040100 00000e08 04010000  ................
 100007fc8 000ec001 84028503 8c049714 98189906  ................
 100007fd8 9a089b0a 9c0c9d0e 9e109f12 a0160000  ................
Contents of section __got:
 100008000 00000000 00000000                    ........
Contents of section __nl_symbol_ptr:
 100008008 00000000 00000000 00000000 00000000  ................
Contents of section __la_symbol_ptr:
 100008018 bc640000 01000000 c6640000 01000000  .d.......d......
 100008028 d0640000 01000000 da640000 01000000  .d.......d......
 100008038 e4640000 01000000 ee640000 01000000  .d.......d......
 100008048 f8640000 01000000 02650000 01000000  .d.......e......
 100008058 0c650000 01000000 16650000 01000000  .e.......e......
 100008068 20650000 01000000 2a650000 01000000   e......*e......
 100008078 34650000 01000000 3e650000 01000000  4e......>e......
 100008088 48650000 01000000                    He......
Contents of section __debug_opt_rpt:
 100008090 2e697474 5f6e6f74 6966795f 74616200  .itt_notify_tab.
 1000080a0 02013000 26000000 90020000 30000000  ..0.&.......0...
 1000080b0 c0020000 37020000 08000000 00000000  ....7...........
 1000080c0 b00a0000 01000000 00000000 00000000  ................
 1000080d0 9a0b0000 01000000 1c000000 04000000  ................
 1000080e0 3e0c0000 01000000 1c000000 14000000  >...............
 1000080f0 5f0c0000 01000000 1c000000 20000000  _........... ...
 100008100 840c0000 01000000 1c000000 32000000  ............2...
 100008110 bb0c0000 01000000 1c000000 3e000000  ............>...
 100008120 860d0000 01000000 1c000000 4e000000  ............N...
 100008130 640e0000 01000000 1c000000 5e000000  d...........^...
 100008140 f90e0000 01000000 1c000000 6e000000  ............n...
 100008150 8a0f0000 01000000 1c000000 7c000000  ............|...
 100008160 bc0f0000 01000000 1c000000 88000000  ................
 100008170 ea0f0000 01000000 1c000000 9a000000  ................
 100008180 96100000 01000000 1c000000 a6000000  ................
 100008190 bd100000 01000000 1c000000 b7000000  ................
 1000081a0 f4110000 01000000 1c000000 c7000000  ................
 1000081b0 1a120000 01000000 1c000000 d8000000  ................
 1000081c0 10140000 01000000 1c000000 e8000000  ................
 1000081d0 65140000 01000000 1c000000 f6000000  e...............
 1000081e0 7b140000 01000000 1c000000 09010000  {...............
 1000081f0 42150000 01000000 1c000000 1a010000  B...............
 100008200 02160000 01000000 1c000000 2a010000  ............*...
 100008210 95170000 01000000 1c000000 3a010000  ............:...
 100008220 28180000 01000000 1c000000 4a010000  (...........J...
 100008230 44180000 01000000 1c000000 56010000  D...........V...
 100008240 64180000 01000000 1c000000 68010000  d...........h...
 100008250 9d180000 01000000 1c000000 74010000  ............t...
 100008260 5e190000 01000000 1c000000 84010000  ^...............
 100008270 421a0000 01000000 1c000000 94010000  B...............
 100008280 681a0000 01000000 1c000000 a1010000  h...............
 100008290 051b0000 01000000 1c000000 af010000  ................
 1000082a0 201b0000 01000000 1c000000 bb010000   ...............
 1000082b0 401b0000 01000000 1c000000 cd010000  @...............
 1000082c0 901b0000 01000000 1c000000 d9010000  ................
 1000082d0 161c0000 01000000 1c000000 e7010000  ................
 1000082e0 3d1c0000 01000000 1c000000 f8010000  =...............
 1000082f0 701d0000 01000000 1c000000 08020000  p...............
 100008300 971d0000 01000000 1c000000 19020000  ................
 100008310 f11e0000 01000000 1c000000 29020000  ............)...
 100008320 6f707469 6d697a61 74696f6e 5f726570  optimization_rep
 100008330 6f72745f 76657273 696f6e00 6f707469  ort_version.opti
 100008340 6d697a61 74696f6e 5f726570 6f727400  mization_report.
 100008350 03108402 0f108080 80808080 80808080  ................
 100008360 8c878040 0b108081 80808080 80808004  ...@............
 100008370 11108081 80808080 80808082 82d8efc8  ................
 100008380 a8600b10 80818080 80808080 80080f10  .`..............
 100008390 80808080 80808080 8880a880 80400f10  .............@..
 1000083a0 80808080 80808080 8880a880 80400f10  .............@..
 1000083b0 80808080 80808080 8080f086 80400d10  .............@..
 1000083c0 80808080 80808080 8080c807 0b108081  ................
 1000083d0 80808080 80808004 11108081 80808080  ................
 1000083e0 80808082 82d8efc8 a8600b10 80818080  .........`......
 1000083f0 80808080 80081010 80808080 80808080  ................
 100008400 8880b081 8080010f 10808080 80808080  ................
 100008410 808880b0 81804010 10808080 80808080  ......@.........
 100008420 808880b0 81808001 0f108080 80808080  ................
 100008430 80808880 b0818040 0d108080 80808080  .......@........
 100008440 80808080 c8071210 c0808881 c0808080  ................
 100008450 808282e0 adc887dd 081010c0 808882c0  ................
 100008460 90808080 80908080 80010f10 80808080  ................
 100008470 80808080 8880b081 80400f10 80808080  .........@......
 100008480 80808080 8880b081 80400f10 80808080  .........@......
 100008490 80808080 80808c87 80400b10 80818080  .........@......
 1000084a0 80808080 80041110 80818080 80808080  ................
 1000084b0 808282d8 efc8a860 0b108081 80808080  .......`........
 1000084c0 80808008 0f108080 80808080 80808880  ................
 1000084d0 a8808040 0f108080 80808080 80808880  ...@............
 1000084e0 a8808040 0c108080 80808080 80808080  ...@............
 1000084f0 600d1080 80808080 80808080 80c8070b  `...............
 100008500 10808180 80808080 80800411 10808180  ................
 100008510 80808080 80808282 d8efc8a8 600b1080  ............`...
 100008520 81808080 80808080 080d1080 80808080  ................
 100008530 80808080 80c80710 10808080 80808080  ................
 100008540 808880b0 81808001 0f108080 80808080  ................
 100008550 80808880 b0818040 10108080 80808080  .......@........
 100008560 80808880 b0818080 010f1080 80808080  ................
 100008570 80808088 80b08180 400d1080 80808080  ........@.......
 100008580 80808080 80c807                      .......
Contents of section __data:
 1000085a0 00000000 01000000 446c0000 01000000  ........Dl......
 1000085b0 01000000 04000000 486c0000 01000000  ........Hl......
 1000085c0 02000000 01000000 786c0000 01000000  ........xl......
 1000085d0 03000000 01000000 806c0000 01000000  .........l......
 1000085e0 04000000 01000000 886c0000 01000000  .........l......
 1000085f0 05000000 01000000 906c0000 01000000  .........l......
 100008600 06000000 01000000 a06c0000 01000000  .........l......
 100008610 07000000 01000000 b46c0000 01000000  .........l......
 100008620 08000000 01000000 c46c0000 01000000  .........l......
 100008630 09000000 01000000 dc6c0000 01000000  .........l......
 100008640 0a000000 01000000 f86c0000 01000000  .........l......
 100008650 0b000000 04000000 086d0000 01000000  .........m......
 100008660 0c000000 04000000 1c6d0000 01000000  .........m......
 100008670 0d000000 04000000 446d0000 01000000  ........Dm......
 100008680 0e000000 04000000 686d0000 01000000  ........hm......
 100008690 0f000000 04000000 946d0000 01000000  .........m......
 1000086a0 10000000 04000000 c86d0000 01000000  .........m......
 1000086b0 11000000 04000000 e46d0000 01000000  .........m......
 1000086c0 12000000 04000000 1c6e0000 01000000  .........n......
 1000086d0 13000000 04000000 386e0000 01000000  ........8n......
 1000086e0 14000000 04000000 4c6e0000 01000000  ........Ln......
 1000086f0 15000000 04000000 606e0000 01000000  ........`n......
 100008700 16000000 04000000 746e0000 01000000  ........tn......
 100008710 17000000 04000000 e0650000 01000000  .........e......
 100008720 18000000 04000000 a46e0000 01000000  .........n......
 100008730 19000000 04000000 40660000 01000000  ........@f......
 100008740 1a000000 04000000 c46e0000 01000000  .........n......
 100008750 1b000000 04000000 f46e0000 01000000  .........n......
 100008760 1c000000 04000000 2c6f0000 01000000  ........,o......
 100008770 1d000000 04000000 446f0000 01000000  ........Do......
 100008780 1e000000 04000000 a0660000 01000000  .........f......
 100008790 1f000000 04000000 786f0000 01000000  ........xo......
 1000087a0 20000000 04000000 ac6f0000 01000000   ........o......
 1000087b0 21000000 04000000 d86f0000 01000000  !........o......
 1000087c0 22000000 04000000 ec6f0000 01000000  "........o......
 1000087d0 23000000 01000000 08700000 01000000  #........p......
 1000087e0 24000000 01000000 10700000 01000000  $........p......
 1000087f0 25000000 01000000 18700000 01000000  %........p......
 100008800 26000000 01000000 20700000 01000000  &....... p......
 100008810 27000000 01000000 28700000 01000000  '.......(p......
 100008820 28000000 01000000 30700000 01000000  (.......0p......
 100008830 29000000 01000000 3c700000 01000000  ).......<p......
 100008840 2a000000 04000000 00670000 01000000  *........g......
 100008850 2b000000 04000000 a0670000 01000000  +........g......
 100008860 2c000000 04000000 78700000 01000000  ,.......xp......
 100008870 2d000000 04000000 40680000 01000000  -.......@h......
 100008880 2e000000 04000000 b0700000 01000000  .........p......
 100008890 2f000000 04000000 e0680000 01000000  /........h......
 1000088a0 30000000 04000000 e8700000 01000000  0........p......
 1000088b0 31000000 04000000 1c710000 01000000  1........q......
 1000088c0 32000000 04000000 20690000 01000000  2....... i......
 1000088d0 33000000 04000000 80690000 01000000  3........i......
 1000088e0 34000000 04000000 006a0000 01000000  4........j......
 1000088f0 35000000 04000000 5c710000 01000000  5.......\q......
 100008900 36000000 04000000 90710000 01000000  6........q......
 100008910 37000000 04000000 b0710000 01000000  7........q......
 100008920 38000000 04000000 a06a0000 01000000  8........j......
 100008930 39000000 04000000 d4710000 01000000  9........q......
 100008940 3a000000 04000000 206b0000 01000000  :....... k......
 100008950 3b000000 04000000 806b0000 01000000  ;........k......
 100008960 3c000000 04000000 e06b0000 01000000  <........k......
 100008970 01000000 01000000 00000000 00000000  ................
 100008980 30660000 01000000 e8710000 01000000  0f.......q......
 100008990 f8710000 01000000 fc710000 01000000  .q.......q......
 1000089a0 04720000 01000000 08720000 01000000  .r.......r......
 1000089b0 10720000 01000000 14720000 01000000  .r.......r......
 1000089c0 1c720000 01000000 24720000 01000000  .r......$r......
 1000089d0 2c720000 01000000 34720000 01000000  ,r......4r......
 1000089e0 3c720000 01000000 44720000 01000000  <r......Dr......
 1000089f0 4c720000 01000000 58720000 01000000  Lr......Xr......
 100008a00 5c720000 01000000 64720000 01000000  \r......dr......
 100008a10 68720000 01000000 70720000 01000000  hr......pr......
 100008a20 74720000 01000000 78720000 01000000  tr......xr......
 100008a30 80720000 01000000 84720000 01000000  .r.......r......
 100008a40 88720000 01000000 90720000 01000000  .r.......r......
 100008a50 30660000 01000000 9c720000 01000000  0f.......r......
 100008a60 a4720000 01000000 ac720000 01000000  .r.......r......
 100008a70 b0720000 01000000 b8720000 01000000  .r.......r......
 100008a80 c8720000 01000000 e0720000 01000000  .r.......r......
 100008a90 ec720000 01000000 f8720000 01000000  .r.......r......
 100008aa0 04730000 01000000 08730000 01000000  .s.......s......
 100008ab0 0c730000 01000000 18730000 01000000  .s.......s......
 100008ac0 24730000 01000000 30730000 01000000  $s......0s......
 100008ad0 40730000 01000000 50730000 01000000  @s......Ps......
 100008ae0 30660000 01000000 30660000 01000000  0f......0f......
 100008af0 30660000 01000000 30660000 01000000  0f......0f......
 100008b00 30660000 01000000 30660000 01000000  0f......0f......
 100008b10 30660000 01000000 00000000 00000000  0f..............
Contents of section __bss:
<skipping contents of bss section at [100008b20, 100008f50)>
